

Microchip MPLAB XC8 Assembler V2.45 build 20230818022343 
                                                                                               Sun Jun 22 23:23:23 2025

Microchip MPLAB XC8 C Compiler v2.45 (Free license) build 20230818022343 Og1 
     1                           	processor	16F877A
     2                           	pagewidth 120
     3                           	opt	flic
     4                           	psect	idataCOMMON,global,class=CODE,delta=2,noexec
     5                           	psect	idataBANK0,global,class=CODE,delta=2,noexec
     6                           	psect	idataBANK1,global,class=CODE,delta=2,noexec
     7                           	psect	strings,global,class=STRING,delta=2,noexec
     8                           	psect	stringtext,global,reloc=256,class=STRCODE,delta=2,noexec
     9                           	psect	cinit,global,class=CODE,merge=1,delta=2
    10                           	psect	bssCOMMON,global,class=COMMON,space=1,delta=1,noexec
    11                           	psect	dataCOMMON,global,class=COMMON,space=1,delta=1,noexec
    12                           	psect	bssBANK0,global,class=BANK0,space=1,delta=1,noexec
    13                           	psect	dataBANK0,global,class=BANK0,space=1,delta=1,noexec
    14                           	psect	bssBANK1,global,class=BANK1,space=1,delta=1,noexec
    15                           	psect	dataBANK1,global,class=BANK1,space=1,delta=1,noexec
    16                           	psect	inittext,global,class=CODE,delta=2
    17                           	psect	cstackBANK1,global,class=BANK1,space=1,delta=1,noexec
    18                           	psect	cstackCOMMON,global,class=COMMON,space=1,delta=1,noexec
    19                           	psect	cstackBANK0,global,class=BANK0,space=1,delta=1,noexec
    20                           	psect	maintext,global,class=CODE,split=1,delta=2
    21                           	psect	text1,local,class=CODE,merge=1,delta=2
    22                           	psect	text2,local,class=CODE,merge=1,delta=2
    23                           	psect	text3,local,class=CODE,merge=1,delta=2
    24                           	psect	text4,local,class=CODE,merge=1,delta=2
    25                           	psect	text5,local,class=CODE,merge=1,delta=2
    26                           	psect	text6,local,class=CODE,merge=1,delta=2
    27                           	psect	text7,local,class=CODE,merge=1,delta=2,group=1
    28                           	psect	text8,local,class=CODE,merge=1,delta=2,group=1
    29                           	psect	text9,local,class=CODE,merge=1,delta=2,group=1
    30                           	psect	text10,local,class=CODE,merge=1,delta=2,group=1
    31                           	psect	text11,local,class=CODE,merge=1,delta=2,group=1
    32                           	psect	text12,local,class=CODE,merge=1,delta=2,group=1
    33                           	psect	text13,local,class=CODE,merge=1,delta=2,group=1
    34                           	psect	text14,local,class=CODE,merge=1,delta=2,group=1
    35                           	psect	text15,local,class=CODE,merge=1,delta=2,group=1
    36                           	psect	text16,local,class=CODE,merge=1,delta=2,group=1
    37                           	psect	text17,local,class=CODE,merge=1,delta=2
    38                           	psect	text18,local,class=CODE,merge=1,delta=2
    39                           	psect	text19,local,class=CODE,merge=1,delta=2
    40                           	psect	text20,local,class=CODE,merge=1,delta=2
    41                           	psect	text21,local,class=CODE,merge=1,delta=2
    42                           	psect	text22,local,class=CODE,merge=1,delta=2
    43                           	psect	text23,local,class=CODE,merge=1,delta=2
    44                           	psect	text24,local,class=CODE,merge=1,delta=2
    45                           	psect	text25,local,class=CODE,merge=1,delta=2
    46                           	psect	text26,local,class=CODE,merge=1,delta=2
    47                           	psect	text27,local,class=CODE,merge=1,delta=2
    48                           	psect	intentry,global,class=CODE,delta=2
    49                           	psect	config,global,abs,ovrld,class=CONFIG,space=4,delta=2,noexec
    50                           	dabs	1,0x7E,2
    51     0000                     
    52                           ; Generated 12/10/2023 GMT
    53                           ; 
    54                           ; Copyright © 2023, Microchip Technology Inc. and its subsidiaries ("Microchip")
    55                           ; All rights reserved.
    56                           ; 
    57                           ; This software is developed by Microchip Technology Inc. and its subsidiaries ("Microch
      +                          ip").
    58                           ; 
    59                           ; Redistribution and use in source and binary forms, with or without modification, are
    60                           ; permitted provided that the following conditions are met:
    61                           ; 
    62                           ;     1. Redistributions of source code must retain the above copyright notice, this lis
      +                          t of
    63                           ;        conditions and the following disclaimer.
    64                           ; 
    65                           ;     2. Redistributions in binary form must reproduce the above copyright notice, this 
      +                          list
    66                           ;        of conditions and the following disclaimer in the documentation and/or other
    67                           ;        materials provided with the distribution. Publication is not required when
    68                           ;        this file is used in an embedded application.
    69                           ; 
    70                           ;     3. Microchip's name may not be used to endorse or promote products derived from th
      +                          is
    71                           ;        software without specific prior written permission.
    72                           ; 
    73                           ; THIS SOFTWARE IS PROVIDED BY MICROCHIP "AS IS" AND ANY EXPRESS OR IMPLIED WARRANTIES,
    74                           ; INCLUDING, BUT NOT LIMITED TO, THE IMPLIED WARRANTIES OF MERCHANTABILITY AND FITNESS F
      +                          OR
    75                           ; PURPOSE ARE DISCLAIMED.  IN NO EVENT SHALL MICROCHIP BE LIABLE FOR ANY DIRECT, INDIREC
      +                          T,
    76                           ; INCIDENTAL, SPECIAL, EXEMPLARY, OR CONSEQUENTIAL DAMAGES (INCLUDING BUT NOT LIMITED TO
    77                           ; PROCUREMENT OF SUBSTITUTE GOODS OR SERVICES; LOSS OF USE, DATA OR PROFITS; OR BUSINESS
    78                           ; INTERRUPTION) HOWSOEVER CAUSED AND ON ANY THEORY OF LIABILITY, WHETHER IN CONTRACT, ST
      +                          RICT
    79                           ; LIABILITY, OR TORT (INCLUDING NEGLIGENCE OR OTHERWISE) ARISING IN ANY WAY OUT OF THE U
      +                          SE OF
    80                           ; THIS SOFTWARE, EVEN IF ADVISED OF THE POSSIBILITY OF SUCH DAMAGE.
    81                           ; 
    82                           ; 
    83                           ; Code-generator required, PIC16F877A Definitions
    84                           ; 
    85                           ; SFR Addresses
    86     0000                     	;# 
    87     0001                     	;# 
    88     0002                     	;# 
    89     0003                     	;# 
    90     0004                     	;# 
    91     0005                     	;# 
    92     0006                     	;# 
    93     0007                     	;# 
    94     0008                     	;# 
    95     0009                     	;# 
    96     000A                     	;# 
    97     000B                     	;# 
    98     000C                     	;# 
    99     000D                     	;# 
   100     000E                     	;# 
   101     000E                     	;# 
   102     000F                     	;# 
   103     0010                     	;# 
   104     0011                     	;# 
   105     0012                     	;# 
   106     0013                     	;# 
   107     0014                     	;# 
   108     0015                     	;# 
   109     0015                     	;# 
   110     0016                     	;# 
   111     0017                     	;# 
   112     0018                     	;# 
   113     0019                     	;# 
   114     001A                     	;# 
   115     001B                     	;# 
   116     001B                     	;# 
   117     001C                     	;# 
   118     001D                     	;# 
   119     001E                     	;# 
   120     001F                     	;# 
   121     0081                     	;# 
   122     0085                     	;# 
   123     0086                     	;# 
   124     0087                     	;# 
   125     0088                     	;# 
   126     0089                     	;# 
   127     008C                     	;# 
   128     008D                     	;# 
   129     008E                     	;# 
   130     0091                     	;# 
   131     0092                     	;# 
   132     0093                     	;# 
   133     0094                     	;# 
   134     0098                     	;# 
   135     0099                     	;# 
   136     009C                     	;# 
   137     009D                     	;# 
   138     009E                     	;# 
   139     009F                     	;# 
   140     010C                     	;# 
   141     010D                     	;# 
   142     010E                     	;# 
   143     010F                     	;# 
   144     018C                     	;# 
   145     018D                     	;# 
   146     0000                     	;# 
   147     0001                     	;# 
   148     0002                     	;# 
   149     0003                     	;# 
   150     0004                     	;# 
   151     0005                     	;# 
   152     0006                     	;# 
   153     0007                     	;# 
   154     0008                     	;# 
   155     0009                     	;# 
   156     000A                     	;# 
   157     000B                     	;# 
   158     000C                     	;# 
   159     000D                     	;# 
   160     000E                     	;# 
   161     000E                     	;# 
   162     000F                     	;# 
   163     0010                     	;# 
   164     0011                     	;# 
   165     0012                     	;# 
   166     0013                     	;# 
   167     0014                     	;# 
   168     0015                     	;# 
   169     0015                     	;# 
   170     0016                     	;# 
   171     0017                     	;# 
   172     0018                     	;# 
   173     0019                     	;# 
   174     001A                     	;# 
   175     001B                     	;# 
   176     001B                     	;# 
   177     001C                     	;# 
   178     001D                     	;# 
   179     001E                     	;# 
   180     001F                     	;# 
   181     0081                     	;# 
   182     0085                     	;# 
   183     0086                     	;# 
   184     0087                     	;# 
   185     0088                     	;# 
   186     0089                     	;# 
   187     008C                     	;# 
   188     008D                     	;# 
   189     008E                     	;# 
   190     0091                     	;# 
   191     0092                     	;# 
   192     0093                     	;# 
   193     0094                     	;# 
   194     0098                     	;# 
   195     0099                     	;# 
   196     009C                     	;# 
   197     009D                     	;# 
   198     009E                     	;# 
   199     009F                     	;# 
   200     010C                     	;# 
   201     010D                     	;# 
   202     010E                     	;# 
   203     010F                     	;# 
   204     018C                     	;# 
   205     018D                     	;# 
   206     0000                     	;# 
   207     0001                     	;# 
   208     0002                     	;# 
   209     0003                     	;# 
   210     0004                     	;# 
   211     0005                     	;# 
   212     0006                     	;# 
   213     0007                     	;# 
   214     0008                     	;# 
   215     0009                     	;# 
   216     000A                     	;# 
   217     000B                     	;# 
   218     000C                     	;# 
   219     000D                     	;# 
   220     000E                     	;# 
   221     000E                     	;# 
   222     000F                     	;# 
   223     0010                     	;# 
   224     0011                     	;# 
   225     0012                     	;# 
   226     0013                     	;# 
   227     0014                     	;# 
   228     0015                     	;# 
   229     0015                     	;# 
   230     0016                     	;# 
   231     0017                     	;# 
   232     0018                     	;# 
   233     0019                     	;# 
   234     001A                     	;# 
   235     001B                     	;# 
   236     001B                     	;# 
   237     001C                     	;# 
   238     001D                     	;# 
   239     001E                     	;# 
   240     001F                     	;# 
   241     0081                     	;# 
   242     0085                     	;# 
   243     0086                     	;# 
   244     0087                     	;# 
   245     0088                     	;# 
   246     0089                     	;# 
   247     008C                     	;# 
   248     008D                     	;# 
   249     008E                     	;# 
   250     0091                     	;# 
   251     0092                     	;# 
   252     0093                     	;# 
   253     0094                     	;# 
   254     0098                     	;# 
   255     0099                     	;# 
   256     009C                     	;# 
   257     009D                     	;# 
   258     009E                     	;# 
   259     009F                     	;# 
   260     010C                     	;# 
   261     010D                     	;# 
   262     010E                     	;# 
   263     010F                     	;# 
   264     018C                     	;# 
   265     018D                     	;# 
   266     0000                     	;# 
   267     0001                     	;# 
   268     0002                     	;# 
   269     0003                     	;# 
   270     0004                     	;# 
   271     0005                     	;# 
   272     0006                     	;# 
   273     0007                     	;# 
   274     0008                     	;# 
   275     0009                     	;# 
   276     000A                     	;# 
   277     000B                     	;# 
   278     000C                     	;# 
   279     000D                     	;# 
   280     000E                     	;# 
   281     000E                     	;# 
   282     000F                     	;# 
   283     0010                     	;# 
   284     0011                     	;# 
   285     0012                     	;# 
   286     0013                     	;# 
   287     0014                     	;# 
   288     0015                     	;# 
   289     0015                     	;# 
   290     0016                     	;# 
   291     0017                     	;# 
   292     0018                     	;# 
   293     0019                     	;# 
   294     001A                     	;# 
   295     001B                     	;# 
   296     001B                     	;# 
   297     001C                     	;# 
   298     001D                     	;# 
   299     001E                     	;# 
   300     001F                     	;# 
   301     0081                     	;# 
   302     0085                     	;# 
   303     0086                     	;# 
   304     0087                     	;# 
   305     0088                     	;# 
   306     0089                     	;# 
   307     008C                     	;# 
   308     008D                     	;# 
   309     008E                     	;# 
   310     0091                     	;# 
   311     0092                     	;# 
   312     0093                     	;# 
   313     0094                     	;# 
   314     0098                     	;# 
   315     0099                     	;# 
   316     009C                     	;# 
   317     009D                     	;# 
   318     009E                     	;# 
   319     009F                     	;# 
   320     010C                     	;# 
   321     010D                     	;# 
   322     010E                     	;# 
   323     010F                     	;# 
   324     018C                     	;# 
   325     018D                     	;# 
   326     0000                     	;# 
   327     0001                     	;# 
   328     0002                     	;# 
   329     0003                     	;# 
   330     0004                     	;# 
   331     0005                     	;# 
   332     0006                     	;# 
   333     0007                     	;# 
   334     0008                     	;# 
   335     0009                     	;# 
   336     000A                     	;# 
   337     000B                     	;# 
   338     000C                     	;# 
   339     000D                     	;# 
   340     000E                     	;# 
   341     000E                     	;# 
   342     000F                     	;# 
   343     0010                     	;# 
   344     0011                     	;# 
   345     0012                     	;# 
   346     0013                     	;# 
   347     0014                     	;# 
   348     0015                     	;# 
   349     0015                     	;# 
   350     0016                     	;# 
   351     0017                     	;# 
   352     0018                     	;# 
   353     0019                     	;# 
   354     001A                     	;# 
   355     001B                     	;# 
   356     001B                     	;# 
   357     001C                     	;# 
   358     001D                     	;# 
   359     001E                     	;# 
   360     001F                     	;# 
   361     0081                     	;# 
   362     0085                     	;# 
   363     0086                     	;# 
   364     0087                     	;# 
   365     0088                     	;# 
   366     0089                     	;# 
   367     008C                     	;# 
   368     008D                     	;# 
   369     008E                     	;# 
   370     0091                     	;# 
   371     0092                     	;# 
   372     0093                     	;# 
   373     0094                     	;# 
   374     0098                     	;# 
   375     0099                     	;# 
   376     009C                     	;# 
   377     009D                     	;# 
   378     009E                     	;# 
   379     009F                     	;# 
   380     010C                     	;# 
   381     010D                     	;# 
   382     010E                     	;# 
   383     010F                     	;# 
   384     018C                     	;# 
   385     018D                     	;# 
   386     0000                     	;# 
   387     0001                     	;# 
   388     0002                     	;# 
   389     0003                     	;# 
   390     0004                     	;# 
   391     0005                     	;# 
   392     0006                     	;# 
   393     0007                     	;# 
   394     0008                     	;# 
   395     0009                     	;# 
   396     000A                     	;# 
   397     000B                     	;# 
   398     000C                     	;# 
   399     000D                     	;# 
   400     000E                     	;# 
   401     000E                     	;# 
   402     000F                     	;# 
   403     0010                     	;# 
   404     0011                     	;# 
   405     0012                     	;# 
   406     0013                     	;# 
   407     0014                     	;# 
   408     0015                     	;# 
   409     0015                     	;# 
   410     0016                     	;# 
   411     0017                     	;# 
   412     0018                     	;# 
   413     0019                     	;# 
   414     001A                     	;# 
   415     001B                     	;# 
   416     001B                     	;# 
   417     001C                     	;# 
   418     001D                     	;# 
   419     001E                     	;# 
   420     001F                     	;# 
   421     0081                     	;# 
   422     0085                     	;# 
   423     0086                     	;# 
   424     0087                     	;# 
   425     0088                     	;# 
   426     0089                     	;# 
   427     008C                     	;# 
   428     008D                     	;# 
   429     008E                     	;# 
   430     0091                     	;# 
   431     0092                     	;# 
   432     0093                     	;# 
   433     0094                     	;# 
   434     0098                     	;# 
   435     0099                     	;# 
   436     009C                     	;# 
   437     009D                     	;# 
   438     009E                     	;# 
   439     009F                     	;# 
   440     010C                     	;# 
   441     010D                     	;# 
   442     010E                     	;# 
   443     010F                     	;# 
   444     018C                     	;# 
   445     018D                     	;# 
   446     0000                     	;# 
   447     0001                     	;# 
   448     0002                     	;# 
   449     0003                     	;# 
   450     0004                     	;# 
   451     0005                     	;# 
   452     0006                     	;# 
   453     0007                     	;# 
   454     0008                     	;# 
   455     0009                     	;# 
   456     000A                     	;# 
   457     000B                     	;# 
   458     000C                     	;# 
   459     000D                     	;# 
   460     000E                     	;# 
   461     000E                     	;# 
   462     000F                     	;# 
   463     0010                     	;# 
   464     0011                     	;# 
   465     0012                     	;# 
   466     0013                     	;# 
   467     0014                     	;# 
   468     0015                     	;# 
   469     0015                     	;# 
   470     0016                     	;# 
   471     0017                     	;# 
   472     0018                     	;# 
   473     0019                     	;# 
   474     001A                     	;# 
   475     001B                     	;# 
   476     001B                     	;# 
   477     001C                     	;# 
   478     001D                     	;# 
   479     001E                     	;# 
   480     001F                     	;# 
   481     0081                     	;# 
   482     0085                     	;# 
   483     0086                     	;# 
   484     0087                     	;# 
   485     0088                     	;# 
   486     0089                     	;# 
   487     008C                     	;# 
   488     008D                     	;# 
   489     008E                     	;# 
   490     0091                     	;# 
   491     0092                     	;# 
   492     0093                     	;# 
   493     0094                     	;# 
   494     0098                     	;# 
   495     0099                     	;# 
   496     009C                     	;# 
   497     009D                     	;# 
   498     009E                     	;# 
   499     009F                     	;# 
   500     010C                     	;# 
   501     010D                     	;# 
   502     010E                     	;# 
   503     010F                     	;# 
   504     018C                     	;# 
   505     018D                     	;# 
   506                           
   507                           	psect	idataCOMMON
   508     0003                     __pidataCOMMON:
   509                           
   510                           ;initializer for read_digital_keypad@once
   511     0003  3401               	retlw	1
   512                           
   513                           	psect	idataBANK0
   514     0800                     __pidataBANK0:
   515                           
   516                           ;initializer for read_digital_keypad@long_press
   517     0800  3401               	retlw	1
   518                           
   519                           ;initializer for _reset_flag
   520     0801  3411               	retlw	17
   521                           
   522                           ;initializer for _operational_mode
   523     0802  3401               	retlw	1
   524                           
   525                           	psect	idataBANK1
   526     140E                     __pidataBANK1:
   527                           
   528                           ;initializer for _washing_program
   529     140E  345C               	retlw	low (STR_7| (0+32768))
   530     140F  3491               	retlw	high (STR_7| (0+32768))
   531     1410  3462               	retlw	low (STR_8| (0+32768))
   532     1411  3491               	retlw	high (STR_8| (0+32768))
   533     1412  34F0               	retlw	low (STR_9| (0+32768))
   534     1413  3490               	retlw	high (STR_9| (0+32768))
   535     1414  343D               	retlw	low (STR_10| (0+32768))
   536     1415  3491               	retlw	high (STR_10| (0+32768))
   537     1416  34C4               	retlw	low (STR_11| (0+32768))
   538     1417  3490               	retlw	high (STR_11| (0+32768))
   539     1418  3496               	retlw	low (STR_12| (0+32768))
   540     1419  3490               	retlw	high (STR_12| (0+32768))
   541     141A  3420               	retlw	low (STR_13| (0+32768))
   542     141B  3491               	retlw	high (STR_13| (0+32768))
   543     141C  34DA               	retlw	low (STR_14| (0+32768))
   544     141D  3490               	retlw	high (STR_14| (0+32768))
   545     141E  3404               	retlw	low (STR_15| (0+32768))
   546     141F  3491               	retlw	high (STR_15| (0+32768))
   547     1420  340E               	retlw	low (STR_16| (0+32768))
   548     1421  3491               	retlw	high (STR_16| (0+32768))
   549     1422  34FA               	retlw	low (STR_17| (0+32768))
   550     1423  3490               	retlw	high (STR_17| (0+32768))
   551     1424  34B9               	retlw	low (STR_18| (0+32768))
   552     1425  3490               	retlw	high (STR_18| (0+32768))
   553                           
   554                           ;initializer for _water_level
   555     1426  3472               	retlw	low (STR_19| (0+32768))
   556     1427  3491               	retlw	high (STR_19| (0+32768))
   557     1428  3477               	retlw	low (STR_20| (0+32768))
   558     1429  3491               	retlw	high (STR_20| (0+32768))
   559     142A  3436               	retlw	low (STR_21| (0+32768))
   560     142B  3491               	retlw	high (STR_21| (0+32768))
   561     142C  346D               	retlw	low (STR_22| (0+32768))
   562     142D  3491               	retlw	high (STR_22| (0+32768))
   563     142E  347B               	retlw	low (STR_23| (0+32768))
   564     142F  3491               	retlw	high (STR_23| (0+32768))
   565     0012                     _T2CON	set	18
   566     0011                     _TMR2	set	17
   567     0006                     _PORTB	set	6
   568     0008                     _PORTD	set	8
   569     0030                     _RB0	set	48
   570     0061                     _TMR2IF	set	97
   571     0049                     _RE1	set	73
   572     004A                     _RE2	set	74
   573     0092                     _TMR2ON	set	146
   574     003A                     _RC2	set	58
   575     0039                     _RC1	set	57
   576     005E                     _PEIE	set	94
   577     005F                     _GIE	set	95
   578     0092                     _PR2	set	146
   579     0086                     _TRISB	set	134
   580     0088                     _TRISD	set	136
   581     0461                     _TMR2IE	set	1121
   582     0449                     _TRISE1	set	1097
   583     044A                     _TRISE2	set	1098
   584     043A                     _TRISC2	set	1082
   585     0439                     _TRISC1	set	1081
   586                           
   587                           	psect	strings
   588     117F                     __pstrings:
   589     117F                     stringtab:
   590     117F                     __stringtab:
   591                           
   592                           ;	String table - string pointers are 2 bytes each
   593     117F  1BFF               	btfsc	btemp+1,7
   594     1180  2989               	ljmp	stringcode
   595     1181  1383               	bcf	3,7
   596     1182  187F               	btfsc	btemp+1,0
   597     1183  1783               	bsf	3,7
   598     1184  0800               	movf	0,w
   599     1185  0A84               	incf	4,f
   600     1186  1903               	skipnz
   601     1187  0AFF               	incf	btemp+1,f
   602     1188  0008               	return
   603     1189                     stringcode:
   604     1189  087F               	movf	btemp+1,w
   605     118A  397F               	andlw	127
   606     118B  008A               	movwf	10
   607     118C  0804               	movf	4,w
   608     118D  0A84               	incf	4,f
   609     118E  1903               	skipnz
   610     118F  0AFF               	incf	btemp+1,f
   611     1190  0082               	movwf	2
   612     1191                     __stringbase:
   613     1191                     __end_of__stringtab:
   614                           
   615                           	psect	stringtext
   616     1000                     __pstringtext:
   617     1000                     STR_40:
   618     1000  3450               	retlw	80	;'P'
   619     1001  3472               	retlw	114	;'r'
   620     1002  346F               	retlw	111	;'o'
   621     1003  3467               	retlw	103	;'g'
   622     1004  3472               	retlw	114	;'r'
   623     1005  3461               	retlw	97	;'a'
   624     1006  346D               	retlw	109	;'m'
   625     1007  3420               	retlw	32	;' '
   626     1008  3443               	retlw	67	;'C'
   627     1009  346F               	retlw	111	;'o'
   628     100A  346D               	retlw	109	;'m'
   629     100B  3470               	retlw	112	;'p'
   630     100C  346C               	retlw	108	;'l'
   631     100D  3465               	retlw	101	;'e'
   632     100E  3474               	retlw	116	;'t'
   633     100F  3465               	retlw	101	;'e'
   634     1010  3400               	retlw	0
   635     1011                     STR_42:
   636     1011  3444               	retlw	68	;'D'
   637     1012  344F               	retlw	79	;'O'
   638     1013  344F               	retlw	79	;'O'
   639     1014  3452               	retlw	82	;'R'
   640     1015  3420               	retlw	32	;' '
   641     1016  3449               	retlw	73	;'I'
   642     1017  3453               	retlw	83	;'S'
   643     1018  3420               	retlw	32	;' '
   644     1019  344F               	retlw	79	;'O'
   645     101A  3450               	retlw	80	;'P'
   646     101B  3445               	retlw	69	;'E'
   647     101C  344E               	retlw	78	;'N'
   648     101D  3421               	retlw	33	;'!'
   649     101E  3421               	retlw	33	;'!'
   650     101F  3421               	retlw	33	;'!'
   651     1020  3400               	retlw	0
   652     1021                     STR_32:
   653     1021  3435               	retlw	53	;'5'
   654     1022  343A               	retlw	58	;':'
   655     1023  3453               	retlw	83	;'S'
   656     1024  3454               	retlw	84	;'T'
   657     1025  3441               	retlw	65	;'A'
   658     1026  3452               	retlw	82	;'R'
   659     1027  3454               	retlw	84	;'T'
   660     1028  3420               	retlw	32	;' '
   661     1029  3436               	retlw	54	;'6'
   662     102A  343A               	retlw	58	;':'
   663     102B  3450               	retlw	80	;'P'
   664     102C  3441               	retlw	65	;'A'
   665     102D  3455               	retlw	85	;'U'
   666     102E  3453               	retlw	83	;'S'
   667     102F  3445               	retlw	69	;'E'
   668     1030  3400               	retlw	0
   669     1031                     STR_26:
   670     1031  3457               	retlw	87	;'W'
   671     1032  3461               	retlw	97	;'a'
   672     1033  3473               	retlw	115	;'s'
   673     1034  3468               	retlw	104	;'h'
   674     1035  3469               	retlw	105	;'i'
   675     1036  346E               	retlw	110	;'n'
   676     1037  3467               	retlw	103	;'g'
   677     1038  3420               	retlw	32	;' '
   678     1039  3450               	retlw	80	;'P'
   679     103A  3472               	retlw	114	;'r'
   680     103B  346F               	retlw	111	;'o'
   681     103C  3467               	retlw	103	;'g'
   682     103D  3472               	retlw	114	;'r'
   683     103E  3461               	retlw	97	;'a'
   684     103F  346D               	retlw	109	;'m'
   685     1040  3400               	retlw	0
   686     1041                     STR_3:
   687     1041  3457               	retlw	87	;'W'
   688     1042  3461               	retlw	97	;'a'
   689     1043  3473               	retlw	115	;'s'
   690     1044  3468               	retlw	104	;'h'
   691     1045  3469               	retlw	105	;'i'
   692     1046  346E               	retlw	110	;'n'
   693     1047  3467               	retlw	103	;'g'
   694     1048  3420               	retlw	32	;' '
   695     1049  344D               	retlw	77	;'M'
   696     104A  3461               	retlw	97	;'a'
   697     104B  3463               	retlw	99	;'c'
   698     104C  3468               	retlw	104	;'h'
   699     104D  3469               	retlw	105	;'i'
   700     104E  346E               	retlw	110	;'n'
   701     104F  3465               	retlw	101	;'e'
   702     1050  3400               	retlw	0
   703     1051                     STR_41:
   704     1051  3452               	retlw	82	;'R'
   705     1052  3465               	retlw	101	;'e'
   706     1053  346D               	retlw	109	;'m'
   707     1054  346F               	retlw	111	;'o'
   708     1055  3476               	retlw	118	;'v'
   709     1056  3465               	retlw	101	;'e'
   710     1057  3420               	retlw	32	;' '
   711     1058  3443               	retlw	67	;'C'
   712     1059  346C               	retlw	108	;'l'
   713     105A  346F               	retlw	111	;'o'
   714     105B  3474               	retlw	116	;'t'
   715     105C  3468               	retlw	104	;'h'
   716     105D  3465               	retlw	101	;'e'
   717     105E  3473               	retlw	115	;'s'
   718     105F  3400               	retlw	0
   719     1060                     STR_1:
   720     1060  3450               	retlw	80	;'P'
   721     1061  3472               	retlw	114	;'r'
   722     1062  3465               	retlw	101	;'e'
   723     1063  3473               	retlw	115	;'s'
   724     1064  3473               	retlw	115	;'s'
   725     1065  3420               	retlw	32	;' '
   726     1066  344B               	retlw	75	;'K'
   727     1067  3445               	retlw	69	;'E'
   728     1068  3459               	retlw	89	;'Y'
   729     1069  3420               	retlw	32	;' '
   730     106A  3435               	retlw	53	;'5'
   731     106B  3420               	retlw	32	;' '
   732     106C  3474               	retlw	116	;'t'
   733     106D  346F               	retlw	111	;'o'
   734     106E  3400               	retlw	0
   735     106F                     STR_27:
   736     106F  3457               	retlw	87	;'W'
   737     1070  3461               	retlw	97	;'a'
   738     1071  3474               	retlw	116	;'t'
   739     1072  3465               	retlw	101	;'e'
   740     1073  3472               	retlw	114	;'r'
   741     1074  3420               	retlw	32	;' '
   742     1075  344C               	retlw	76	;'L'
   743     1076  3465               	retlw	101	;'e'
   744     1077  3476               	retlw	118	;'v'
   745     1078  3465               	retlw	101	;'e'
   746     1079  346C               	retlw	108	;'l'
   747     107A  3420               	retlw	32	;' '
   748     107B  343A               	retlw	58	;':'
   749     107C  3400               	retlw	0
   750     107D                     STR_4:
   751     107D  3450               	retlw	80	;'P'
   752     107E  3472               	retlw	114	;'r'
   753     107F  3465               	retlw	101	;'e'
   754     1080  3473               	retlw	115	;'s'
   755     1081  3473               	retlw	115	;'s'
   756     1082  3420               	retlw	32	;' '
   757     1083  3453               	retlw	83	;'S'
   758     1084  3477               	retlw	119	;'w'
   759     1085  3469               	retlw	105	;'i'
   760     1086  3474               	retlw	116	;'t'
   761     1087  3463               	retlw	99	;'c'
   762     1088  3468               	retlw	104	;'h'
   763     1089  3400               	retlw	0
   764     108A                     STR_24:
   765     108A  3450               	retlw	80	;'P'
   766     108B  346F               	retlw	111	;'o'
   767     108C  3477               	retlw	119	;'w'
   768     108D  3465               	retlw	101	;'e'
   769     108E  3472               	retlw	114	;'r'
   770     108F  3469               	retlw	105	;'i'
   771     1090  346E               	retlw	110	;'n'
   772     1091  3467               	retlw	103	;'g'
   773     1092  3420               	retlw	32	;' '
   774     1093  344F               	retlw	79	;'O'
   775     1094  344E               	retlw	78	;'N'
   776     1095  3400               	retlw	0
   777     1096                     STR_12:
   778     1096  3445               	retlw	69	;'E'
   779     1097  3463               	retlw	99	;'c'
   780     1098  346F               	retlw	111	;'o'
   781     1099  3420               	retlw	32	;' '
   782     109A  3463               	retlw	99	;'c'
   783     109B  346F               	retlw	111	;'o'
   784     109C  3474               	retlw	116	;'t'
   785     109D  3474               	retlw	116	;'t'
   786     109E  346F               	retlw	111	;'o'
   787     109F  346E               	retlw	110	;'n'
   788     10A0  3473               	retlw	115	;'s'
   789     10A1  3400               	retlw	0
   790     10A2                     STR_5:
   791     10A2  3453               	retlw	83	;'S'
   792     10A3  3457               	retlw	87	;'W'
   793     10A4  3435               	retlw	53	;'5'
   794     10A5  3420               	retlw	32	;' '
   795     10A6  343A               	retlw	58	;':'
   796     10A7  3420               	retlw	32	;' '
   797     10A8  3453               	retlw	83	;'S'
   798     10A9  3454               	retlw	84	;'T'
   799     10AA  3441               	retlw	65	;'A'
   800     10AB  3452               	retlw	82	;'R'
   801     10AC  3454               	retlw	84	;'T'
   802     10AD  3400               	retlw	0
   803     10AE                     STR_30:
   804     10AE  3446               	retlw	70	;'F'
   805     10AF  3475               	retlw	117	;'u'
   806     10B0  346E               	retlw	110	;'n'
   807     10B1  3463               	retlw	99	;'c'
   808     10B2  3474               	retlw	116	;'t'
   809     10B3  3469               	retlw	105	;'i'
   810     10B4  346F               	retlw	111	;'o'
   811     10B5  346E               	retlw	110	;'n'
   812     10B6  343A               	retlw	58	;':'
   813     10B7  3420               	retlw	32	;' '
   814     10B8  3400               	retlw	0
   815     10B9                     STR_18:
   816     10B9  3441               	retlw	65	;'A'
   817     10BA  3471               	retlw	113	;'q'
   818     10BB  3475               	retlw	117	;'u'
   819     10BC  3461               	retlw	97	;'a'
   820     10BD  3420               	retlw	32	;' '
   821     10BE  3473               	retlw	115	;'s'
   822     10BF  3474               	retlw	116	;'t'
   823     10C0  346F               	retlw	111	;'o'
   824     10C1  3472               	retlw	114	;'r'
   825     10C2  3465               	retlw	101	;'e'
   826     10C3  3400               	retlw	0
   827     10C4                     STR_11:
   828     10C4  3453               	retlw	83	;'S'
   829     10C5  3474               	retlw	116	;'t'
   830     10C6  3461               	retlw	97	;'a'
   831     10C7  3469               	retlw	105	;'i'
   832     10C8  346E               	retlw	110	;'n'
   833     10C9  3420               	retlw	32	;' '
   834     10CA  3477               	retlw	119	;'w'
   835     10CB  3461               	retlw	97	;'a'
   836     10CC  3473               	retlw	115	;'s'
   837     10CD  3468               	retlw	104	;'h'
   838     10CE  3400               	retlw	0
   839     10CF                     STR_44:
   840     10CF  3463               	retlw	99	;'c'
   841     10D0  346C               	retlw	108	;'l'
   842     10D1  346F               	retlw	111	;'o'
   843     10D2  3473               	retlw	115	;'s'
   844     10D3  3465               	retlw	101	;'e'
   845     10D4  3420               	retlw	32	;' '
   846     10D5  3464               	retlw	100	;'d'
   847     10D6  346F               	retlw	111	;'o'
   848     10D7  346F               	retlw	111	;'o'
   849     10D8  3472               	retlw	114	;'r'
   850     10D9  3400               	retlw	0
   851     10DA                     STR_14:
   852     10DA  3442               	retlw	66	;'B'
   853     10DB  3465               	retlw	101	;'e'
   854     10DC  3464               	retlw	100	;'d'
   855     10DD  3420               	retlw	32	;' '
   856     10DE  3473               	retlw	115	;'s'
   857     10DF  3468               	retlw	104	;'h'
   858     10E0  3465               	retlw	101	;'e'
   859     10E1  3465               	retlw	101	;'e'
   860     10E2  3474               	retlw	116	;'t'
   861     10E3  3473               	retlw	115	;'s'
   862     10E4  3400               	retlw	0
   863     10E5                     STR_6:
   864     10E5  3453               	retlw	83	;'S'
   865     10E6  3457               	retlw	87	;'W'
   866     10E7  3436               	retlw	54	;'6'
   867     10E8  3420               	retlw	32	;' '
   868     10E9  343A               	retlw	58	;':'
   869     10EA  3420               	retlw	32	;' '
   870     10EB  3453               	retlw	83	;'S'
   871     10EC  3454               	retlw	84	;'T'
   872     10ED  344F               	retlw	79	;'O'
   873     10EE  3450               	retlw	80	;'P'
   874     10EF  3400               	retlw	0
   875     10F0                     STR_9:
   876     10F0  3444               	retlw	68	;'D'
   877     10F1  3465               	retlw	101	;'e'
   878     10F2  346C               	retlw	108	;'l'
   879     10F3  3469               	retlw	105	;'i'
   880     10F4  3463               	retlw	99	;'c'
   881     10F5  3461               	retlw	97	;'a'
   882     10F6  3474               	retlw	116	;'t'
   883     10F7  3465               	retlw	101	;'e'
   884     10F8  3473               	retlw	115	;'s'
   885     10F9  3400               	retlw	0
   886     10FA                     STR_17:
   887     10FA  3457               	retlw	87	;'W'
   888     10FB  3461               	retlw	97	;'a'
   889     10FC  3473               	retlw	115	;'s'
   890     10FD  3468               	retlw	104	;'h'
   891     10FE  3420               	retlw	32	;' '
   892     10FF  346F               	retlw	111	;'o'
   893     1100  346E               	retlw	110	;'n'
   894     1101  346C               	retlw	108	;'l'
   895     1102  3479               	retlw	121	;'y'
   896     1103  3400               	retlw	0
   897     1104                     STR_15:
   898     1104  3452               	retlw	82	;'R'
   899     1105  3469               	retlw	105	;'i'
   900     1106  346E               	retlw	110	;'n'
   901     1107  3473               	retlw	115	;'s'
   902     1108  3465               	retlw	101	;'e'
   903     1109  342B               	retlw	43	;'+'
   904     110A  3444               	retlw	68	;'D'
   905     110B  3472               	retlw	114	;'r'
   906     110C  3479               	retlw	121	;'y'
   907     110D  3400               	retlw	0
   908     110E                     STR_16:
   909     110E  3444               	retlw	68	;'D'
   910     110F  3472               	retlw	114	;'r'
   911     1110  3479               	retlw	121	;'y'
   912     1111  3420               	retlw	32	;' '
   913     1112  346F               	retlw	111	;'o'
   914     1113  346E               	retlw	110	;'n'
   915     1114  346C               	retlw	108	;'l'
   916     1115  3479               	retlw	121	;'y'
   917     1116  3400               	retlw	0
   918     1117                     STR_2:
   919     1117  3450               	retlw	80	;'P'
   920     1118  346F               	retlw	111	;'o'
   921     1119  3477               	retlw	119	;'w'
   922     111A  3465               	retlw	101	;'e'
   923     111B  3472               	retlw	114	;'r'
   924     111C  3420               	retlw	32	;' '
   925     111D  344F               	retlw	79	;'O'
   926     111E  344E               	retlw	78	;'N'
   927     111F  3400               	retlw	0
   928     1120                     STR_13:
   929     1120  3457               	retlw	87	;'W'
   930     1121  346F               	retlw	111	;'o'
   931     1122  346F               	retlw	111	;'o'
   932     1123  346C               	retlw	108	;'l'
   933     1124  3465               	retlw	101	;'e'
   934     1125  346E               	retlw	110	;'n'
   935     1126  3473               	retlw	115	;'s'
   936     1127  3400               	retlw	0
   937     1128                     STR_31:
   938     1128  3454               	retlw	84	;'T'
   939     1129  3469               	retlw	105	;'i'
   940     112A  346D               	retlw	109	;'m'
   941     112B  3465               	retlw	101	;'e'
   942     112C  343A               	retlw	58	;':'
   943     112D  3420               	retlw	32	;' '
   944     112E  3400               	retlw	0
   945     112F                     STR_43:
   946     112F  3450               	retlw	80	;'P'
   947     1130  346C               	retlw	108	;'l'
   948     1131  3465               	retlw	101	;'e'
   949     1132  3461               	retlw	97	;'a'
   950     1133  3473               	retlw	115	;'s'
   951     1134  3465               	retlw	101	;'e'
   952     1135  3400               	retlw	0
   953     1136                     STR_21:
   954     1136  344D               	retlw	77	;'M'
   955     1137  3465               	retlw	101	;'e'
   956     1138  3464               	retlw	100	;'d'
   957     1139  3469               	retlw	105	;'i'
   958     113A  3475               	retlw	117	;'u'
   959     113B  346D               	retlw	109	;'m'
   960     113C  3400               	retlw	0
   961     113D                     STR_10:
   962     113D  3457               	retlw	87	;'W'
   963     113E  3468               	retlw	104	;'h'
   964     113F  3469               	retlw	105	;'i'
   965     1140  3474               	retlw	116	;'t'
   966     1141  3465               	retlw	101	;'e'
   967     1142  3473               	retlw	115	;'s'
   968     1143  3400               	retlw	0
   969     1144                     STR_35:
   970     1144  3453               	retlw	83	;'S'
   971     1145  3450               	retlw	80	;'P'
   972     1146  3449               	retlw	73	;'I'
   973     1147  344E               	retlw	78	;'N'
   974     1148  3420               	retlw	32	;' '
   975     1149  3400               	retlw	0
   976     114A                     STR_29:
   977     114A  3454               	retlw	84	;'T'
   978     114B  3469               	retlw	105	;'i'
   979     114C  346D               	retlw	109	;'m'
   980     114D  3465               	retlw	101	;'e'
   981     114E  343A               	retlw	58	;':'
   982     114F  3400               	retlw	0
   983     1150                     STR_28:
   984     1150  3450               	retlw	80	;'P'
   985     1151  3472               	retlw	114	;'r'
   986     1152  346F               	retlw	111	;'o'
   987     1153  3467               	retlw	103	;'g'
   988     1154  343A               	retlw	58	;':'
   989     1155  3400               	retlw	0
   990     1156                     STR_34:
   991     1156  3452               	retlw	82	;'R'
   992     1157  3449               	retlw	73	;'I'
   993     1158  344E               	retlw	78	;'N'
   994     1159  3453               	retlw	83	;'S'
   995     115A  3445               	retlw	69	;'E'
   996     115B  3400               	retlw	0
   997     115C                     STR_7:
   998     115C  3444               	retlw	68	;'D'
   999     115D  3461               	retlw	97	;'a'
  1000     115E  3469               	retlw	105	;'i'
  1001     115F  346C               	retlw	108	;'l'
  1002     1160  3479               	retlw	121	;'y'
  1003     1161  3400               	retlw	0
  1004     1162                     STR_8:
  1005     1162  3448               	retlw	72	;'H'
  1006     1163  3465               	retlw	101	;'e'
  1007     1164  3461               	retlw	97	;'a'
  1008     1165  3476               	retlw	118	;'v'
  1009     1166  3479               	retlw	121	;'y'
  1010     1167  3400               	retlw	0
  1011     1168                     STR_33:
  1012     1168  3457               	retlw	87	;'W'
  1013     1169  3441               	retlw	65	;'A'
  1014     116A  3453               	retlw	83	;'S'
  1015     116B  3448               	retlw	72	;'H'
  1016     116C  3400               	retlw	0
  1017     116D                     STR_22:
  1018     116D  3448               	retlw	72	;'H'
  1019     116E  3469               	retlw	105	;'i'
  1020     116F  3467               	retlw	103	;'g'
  1021     1170  3468               	retlw	104	;'h'
  1022     1171  3400               	retlw	0
  1023     1172                     STR_19:
  1024     1172  3441               	retlw	65	;'A'
  1025     1173  3475               	retlw	117	;'u'
  1026     1174  3474               	retlw	116	;'t'
  1027     1175  346F               	retlw	111	;'o'
  1028     1176  3400               	retlw	0
  1029     1177                     STR_20:
  1030     1177  344C               	retlw	76	;'L'
  1031     1178  346F               	retlw	111	;'o'
  1032     1179  3477               	retlw	119	;'w'
  1033     117A  3400               	retlw	0
  1034     117B                     STR_23:
  1035     117B  344D               	retlw	77	;'M'
  1036     117C  3461               	retlw	97	;'a'
  1037     117D  3478               	retlw	120	;'x'
  1038     117E  3400               	retlw	0
  1039     1128                     
  1040                           	psect	cinit
  1041     000F                     start_initialization:	
  1042                           ; #config settings
  1043                           
  1044     000F                     __initialization:
  1045                           
  1046                           ; Initialize objects allocated to BANK1
  1047     000F  1383               	bcf	3,7	;select IRP bank0
  1048     0010  30C2               	movlw	low (__pdataBANK1+34)
  1049     0011  00FD               	movwf	btemp+-1
  1050     0012  3014               	movlw	high __pidataBANK1
  1051     0013  00FE               	movwf	btemp
  1052     0014  300E               	movlw	low __pidataBANK1
  1053     0015  00FF               	movwf	btemp+1
  1054     0016  30A0               	movlw	low __pdataBANK1
  1055     0017  0084               	movwf	4
  1056     0018  120A  118A  27F1  120A  118A  	fcall	init_ram0
  1057                           
  1058                           ; Initialize objects allocated to BANK0
  1059     001D  306D               	movlw	low (__pdataBANK0+3)
  1060     001E  00FD               	movwf	btemp+-1
  1061     001F  3008               	movlw	high __pidataBANK0
  1062     0020  00FE               	movwf	btemp
  1063     0021  3000               	movlw	low __pidataBANK0
  1064     0022  00FF               	movwf	btemp+1
  1065     0023  306A               	movlw	low __pdataBANK0
  1066     0024  0084               	movwf	4
  1067     0025  120A  118A  27F1  120A  118A  	fcall	init_ram0
  1068                           
  1069                           ; Initialize objects allocated to COMMON
  1070     002A  120A  118A  2003  120A  118A  	fcall	__pidataCOMMON	;fetch initializer
  1071     002F  00FB               	movwf	__pdataCOMMON& (0+127)
  1072                           
  1073                           ; Clear objects allocated to BANK1
  1074     0030  1683               	bsf	3,5	;RP0=1, select bank1
  1075     0031  1303               	bcf	3,6	;RP1=0, select bank1
  1076     0032  01C2               	clrf	__pbssBANK1& (0+127)
  1077     0033  01C3               	clrf	(__pbssBANK1+1)& (0+127)
  1078     0034  01C4               	clrf	(__pbssBANK1+2)& (0+127)
  1079     0035  01C5               	clrf	(__pbssBANK1+3)& (0+127)
  1080     0036  01C6               	clrf	(__pbssBANK1+4)& (0+127)
  1081     0037  01C7               	clrf	(__pbssBANK1+5)& (0+127)
  1082     0038  01C8               	clrf	(__pbssBANK1+6)& (0+127)
  1083     0039  01C9               	clrf	(__pbssBANK1+7)& (0+127)
  1084                           
  1085                           ; Clear objects allocated to BANK0
  1086     003A  1283               	bcf	3,5	;RP0=0, select bank0
  1087     003B  1303               	bcf	3,6	;RP1=0, select bank0
  1088     003C  01E3               	clrf	__pbssBANK0& (0+127)
  1089     003D  01E4               	clrf	(__pbssBANK0+1)& (0+127)
  1090     003E  01E5               	clrf	(__pbssBANK0+2)& (0+127)
  1091     003F  01E6               	clrf	(__pbssBANK0+3)& (0+127)
  1092     0040  01E7               	clrf	(__pbssBANK0+4)& (0+127)
  1093     0041  01E8               	clrf	(__pbssBANK0+5)& (0+127)
  1094     0042  01E9               	clrf	(__pbssBANK0+6)& (0+127)
  1095                           
  1096                           ; Clear objects allocated to COMMON
  1097     0043  01F9               	clrf	__pbssCOMMON& (0+127)
  1098     0044  01FA               	clrf	(__pbssCOMMON+1)& (0+127)
  1099     0045                     end_of_initialization:	
  1100                           ;End of C runtime variable initialization code
  1101                           
  1102     0045                     __end_of__initialization:
  1103     0045  0183               	clrf	3
  1104     0046  120A  158A  2A6A   	ljmp	_main	;jump to C main() function
  1105                           
  1106                           	psect	bssCOMMON
  1107     0079                     __pbssCOMMON:
  1108     0079                     _level:
  1109     0079                     	ds	1
  1110     007A                     _program_no:
  1111     007A                     	ds	1
  1112                           
  1113                           	psect	dataCOMMON
  1114     007B                     __pdataCOMMON:
  1115     007B                     read_digital_keypad@once:
  1116     007B                     	ds	1
  1117                           
  1118                           	psect	bssBANK0
  1119     0063                     __pbssBANK0:
  1120     0063                     _time:
  1121     0063                     	ds	2
  1122     0065                     _total_time:
  1123     0065                     	ds	2
  1124     0067                     _sec:
  1125     0067                     	ds	1
  1126     0068                     read_digital_keypad@pre_key:
  1127     0068                     	ds	1
  1128     0069                     _min:
  1129     0069                     	ds	1
  1130                           
  1131                           	psect	dataBANK0
  1132     006A                     __pdataBANK0:
  1133     006A                     read_digital_keypad@long_press:
  1134     006A                     	ds	1
  1135     006B                     _reset_flag:
  1136     006B                     	ds	1
  1137     006C                     _operational_mode:
  1138     006C                     	ds	1
  1139                           
  1140                           	psect	bssBANK1
  1141     00C2                     __pbssBANK1:
  1142     00C2                     _spin_time:
  1143     00C2                     	ds	2
  1144     00C4                     _rinse_time:
  1145     00C4                     	ds	2
  1146     00C6                     _wash_time:
  1147     00C6                     	ds	2
  1148     00C8                     _count:
  1149     00C8                     	ds	2
  1150                           
  1151                           	psect	dataBANK1
  1152     00A0                     __pdataBANK1:
  1153     00A0                     _washing_program:
  1154     00A0                     	ds	24
  1155     00B8                     _water_level:
  1156     00B8                     	ds	10
  1157                           
  1158                           	psect	inittext
  1159     07ED                     init_fetch0:	
  1160                           ;	Called with low address in FSR and high address in W
  1161                           
  1162     07ED  087E               	movf	btemp,w
  1163     07EE  008A               	movwf	10
  1164     07EF  087F               	movf	btemp+1,w
  1165     07F0  0082               	movwf	2
  1166     07F1                     init_ram0:	
  1167                           ;Called with:
  1168                           ;	high address of idata address in btemp 
  1169                           ;	low address of idata address in btemp+1 
  1170                           ;	low address of data in FSR
  1171                           ;	high address + 1 of data in btemp-1
  1172                           
  1173     07F1  120A  118A  27ED  120A  118A  	fcall	init_fetch0
  1174     07F6  0080               	movwf	0
  1175     07F7  0A84               	incf	4,f
  1176     07F8  0804               	movf	4,w
  1177     07F9  067D               	xorwf	btemp+-1,w
  1178     07FA  1903               	btfsc	3,2
  1179     07FB  3400               	retlw	0
  1180     07FC  0AFF               	incf	btemp+1,f
  1181     07FD  1903               	btfsc	3,2
  1182     07FE  0AFE               	incf	btemp,f
  1183     07FF  2FF1               	goto	init_ram0
  1184                           
  1185                           	psect	cstackBANK1
  1186     00CA                     __pcstackBANK1:
  1187     00CA                     main@delay:
  1188                           
  1189                           ; 4 bytes @ 0x0
  1190     00CA                     	ds	4
  1191     00CE                     main@delay_93:
  1192                           
  1193                           ; 2 bytes @ 0x4
  1194     00CE                     	ds	2
  1195     00D0                     main@key:
  1196                           
  1197                           ; 1 bytes @ 0x6
  1198     00D0                     	ds	1
  1199                           
  1200                           	psect	cstackCOMMON
  1201     0070                     __pcstackCOMMON:
  1202     0070                     ?_init_clcd:
  1203     0070                     ?_init_digital_keypad:	
  1204                           ; 1 bytes @ 0x0
  1205                           
  1206     0070                     ?_init_timer2:	
  1207                           ; 1 bytes @ 0x0
  1208                           
  1209     0070                     ?_read_digital_keypad:	
  1210                           ; 1 bytes @ 0x0
  1211                           
  1212     0070                     ?_clear_screen:	
  1213                           ; 1 bytes @ 0x0
  1214                           
  1215     0070                     ?_power_on_screen:	
  1216                           ; 1 bytes @ 0x0
  1217                           
  1218     0070                     ?_set_time:	
  1219                           ; 1 bytes @ 0x0
  1220                           
  1221     0070                     ?_washing_program_display:	
  1222                           ; 1 bytes @ 0x0
  1223                           
  1224     0070                     ?_water_level_screen:	
  1225                           ; 1 bytes @ 0x0
  1226                           
  1227     0070                     ?_run_program:	
  1228                           ; 1 bytes @ 0x0
  1229                           
  1230     0070                     ?_door_status_check:	
  1231                           ; 1 bytes @ 0x0
  1232                           
  1233     0070                     ?_init_config:	
  1234                           ; 1 bytes @ 0x0
  1235                           
  1236     0070                     ?_main:	
  1237                           ; 1 bytes @ 0x0
  1238                           
  1239     0070                     ?_init_display_controller:	
  1240                           ; 1 bytes @ 0x0
  1241                           
  1242     0070                     ?_isr:	
  1243                           ; 1 bytes @ 0x0
  1244                           
  1245     0070                     ??_isr:	
  1246                           ; 1 bytes @ 0x0
  1247                           
  1248     0070                     read_digital_keypad@mode:	
  1249                           ; 1 bytes @ 0x0
  1250                           
  1251                           
  1252                           ; 1 bytes @ 0x0
  1253     0070                     	ds	2
  1254     0072                     ??_init_digital_keypad:
  1255     0072                     ??_init_timer2:	
  1256                           ; 1 bytes @ 0x2
  1257                           
  1258     0072                     ??_read_digital_keypad:	
  1259                           ; 1 bytes @ 0x2
  1260                           
  1261     0072                     ??_set_time:	
  1262                           ; 1 bytes @ 0x2
  1263                           
  1264     0072                     ?_clcd_write:	
  1265                           ; 1 bytes @ 0x2
  1266                           
  1267     0072                     ?__Umul8_16:	
  1268                           ; 1 bytes @ 0x2
  1269                           
  1270     0072                     ?___wmul:	
  1271                           ; 2 bytes @ 0x2
  1272                           
  1273     0072                     ?___awdiv:	
  1274                           ; 2 bytes @ 0x2
  1275                           
  1276     0072                     ?___awmod:	
  1277                           ; 2 bytes @ 0x2
  1278                           
  1279     0072                     ?___xxtofl:	
  1280                           ; 2 bytes @ 0x2
  1281                           
  1282     0072                     clcd_write@mode:	
  1283                           ; 4 bytes @ 0x2
  1284                           
  1285     0072                     read_digital_keypad@key:	
  1286                           ; 1 bytes @ 0x2
  1287                           
  1288     0072                     ___fladd@signs:	
  1289                           ; 1 bytes @ 0x2
  1290                           
  1291     0072                     __Umul8_16@multiplicand:	
  1292                           ; 1 bytes @ 0x2
  1293                           
  1294     0072                     ___wmul@multiplier:	
  1295                           ; 1 bytes @ 0x2
  1296                           
  1297     0072                     ___awdiv@divisor:	
  1298                           ; 2 bytes @ 0x2
  1299                           
  1300     0072                     ___awmod@divisor:	
  1301                           ; 2 bytes @ 0x2
  1302                           
  1303     0072                     ___xxtofl@val:	
  1304                           ; 2 bytes @ 0x2
  1305                           
  1306                           
  1307                           ; 4 bytes @ 0x2
  1308     0072                     	ds	1
  1309     0073                     ??_clcd_write:
  1310     0073                     ___fladd@aexp:	
  1311                           ; 1 bytes @ 0x3
  1312                           
  1313                           
  1314                           ; 1 bytes @ 0x3
  1315     0073                     	ds	1
  1316     0074                     ??__Umul8_16:
  1317     0074                     ___fladd@bexp:	
  1318                           ; 1 bytes @ 0x4
  1319                           
  1320     0074                     ___wmul@multiplicand:	
  1321                           ; 1 bytes @ 0x4
  1322                           
  1323     0074                     ___awdiv@dividend:	
  1324                           ; 2 bytes @ 0x4
  1325                           
  1326     0074                     ___awmod@dividend:	
  1327                           ; 2 bytes @ 0x4
  1328                           
  1329                           
  1330                           ; 2 bytes @ 0x4
  1331     0074                     	ds	1
  1332     0075                     clcd_write@byte:
  1333     0075                     ___fladd@grs:	
  1334                           ; 1 bytes @ 0x5
  1335                           
  1336                           
  1337                           ; 1 bytes @ 0x5
  1338     0075                     	ds	1
  1339     0076                     ??_clear_screen:
  1340     0076                     ??_init_display_controller:	
  1341                           ; 1 bytes @ 0x6
  1342                           
  1343     0076                     ??___wmul:	
  1344                           ; 1 bytes @ 0x6
  1345                           
  1346     0076                     ??___awdiv:	
  1347                           ; 1 bytes @ 0x6
  1348                           
  1349     0076                     ??___awmod:	
  1350                           ; 1 bytes @ 0x6
  1351                           
  1352     0076                     ??___flsub:	
  1353                           ; 1 bytes @ 0x6
  1354                           
  1355     0076                     ___awmod@counter:	
  1356                           ; 1 bytes @ 0x6
  1357                           
  1358     0076                     ___fltol@sign1:	
  1359                           ; 1 bytes @ 0x6
  1360                           
  1361     0076                     ___wmul@product:	
  1362                           ; 1 bytes @ 0x6
  1363                           
  1364                           
  1365                           ; 2 bytes @ 0x6
  1366     0076                     	ds	1
  1367     0077                     ___awmod@sign:
  1368     0077                     ___fltol@exp1:	
  1369                           ; 1 bytes @ 0x7
  1370                           
  1371                           
  1372                           ; 1 bytes @ 0x7
  1373     0077                     	ds	1
  1374     0078                     ??_init_clcd:
  1375     0078                     ??_clcd_print:	
  1376                           ; 1 bytes @ 0x8
  1377                           
  1378     0078                     ??_door_status_check:	
  1379                           ; 1 bytes @ 0x8
  1380                           
  1381     0078                     ??_init_config:	
  1382                           ; 1 bytes @ 0x8
  1383                           
  1384     0078                     ?_clcd_putch:	
  1385                           ; 1 bytes @ 0x8
  1386                           
  1387     0078                     clcd_putch@addr:	
  1388                           ; 1 bytes @ 0x8
  1389                           
  1390                           
  1391                           ; 1 bytes @ 0x8
  1392     0078                     	ds	1
  1393     0079                     ??_clcd_putch:
  1394                           
  1395                           	psect	cstackBANK0
  1396     0020                     __pcstackBANK0:	
  1397                           ; 1 bytes @ 0x9
  1398                           
  1399     0020                     ?_clcd_print:
  1400     0020                     ??___xxtofl:	
  1401                           ; 1 bytes @ 0x0
  1402                           
  1403     0020                     ?___fladd:	
  1404                           ; 1 bytes @ 0x0
  1405                           
  1406     0020                     ___awdiv@counter:	
  1407                           ; 4 bytes @ 0x0
  1408                           
  1409     0020                     clcd_print@str:	
  1410                           ; 1 bytes @ 0x0
  1411                           
  1412     0020                     __Umul8_16@product:	
  1413                           ; 2 bytes @ 0x0
  1414                           
  1415     0020                     ___fladd@b:	
  1416                           ; 2 bytes @ 0x0
  1417                           
  1418                           
  1419                           ; 4 bytes @ 0x0
  1420     0020                     	ds	1
  1421     0021                     ___awdiv@sign:
  1422                           
  1423                           ; 1 bytes @ 0x1
  1424     0021                     	ds	1
  1425     0022                     clcd_print@addr:
  1426     0022                     ___awdiv@quotient:	
  1427                           ; 1 bytes @ 0x2
  1428                           
  1429     0022                     __Umul8_16@word_mpld:	
  1430                           ; 2 bytes @ 0x2
  1431                           
  1432                           
  1433                           ; 2 bytes @ 0x2
  1434     0022                     	ds	2
  1435     0024                     clcd_putch@data:
  1436     0024                     __Umul8_16@multiplier:	
  1437                           ; 1 bytes @ 0x4
  1438                           
  1439     0024                     ___xxtofl@sign:	
  1440                           ; 1 bytes @ 0x4
  1441                           
  1442     0024                     ___fladd@a:	
  1443                           ; 1 bytes @ 0x4
  1444                           
  1445                           
  1446                           ; 4 bytes @ 0x4
  1447     0024                     	ds	1
  1448     0025                     ??_power_on_screen:
  1449     0025                     ??_washing_program_display:	
  1450                           ; 1 bytes @ 0x5
  1451                           
  1452     0025                     ??_water_level_screen:	
  1453                           ; 1 bytes @ 0x5
  1454                           
  1455     0025                     ___xxtofl@exp:	
  1456                           ; 1 bytes @ 0x5
  1457                           
  1458                           
  1459                           ; 1 bytes @ 0x5
  1460     0025                     	ds	1
  1461     0026                     ___xxtofl@arg:
  1462                           
  1463                           ; 4 bytes @ 0x6
  1464     0026                     	ds	1
  1465     0027                     washing_program_display@key:
  1466     0027                     water_level_screen@key:	
  1467                           ; 1 bytes @ 0x7
  1468                           
  1469                           
  1470                           ; 1 bytes @ 0x7
  1471     0027                     	ds	1
  1472     0028                     ??___fladd:
  1473     0028                     power_on_screen@i:	
  1474                           ; 1 bytes @ 0x8
  1475                           
  1476                           
  1477                           ; 1 bytes @ 0x8
  1478     0028                     	ds	1
  1479     0029                     power_on_screen@i_196:
  1480                           
  1481                           ; 1 bytes @ 0x9
  1482     0029                     	ds	1
  1483     002A                     ?___flmul:
  1484     002A                     ___flmul@b:	
  1485                           ; 4 bytes @ 0xA
  1486                           
  1487                           
  1488                           ; 4 bytes @ 0xA
  1489     002A                     	ds	4
  1490     002E                     ___flmul@a:
  1491                           
  1492                           ; 4 bytes @ 0xE
  1493     002E                     	ds	4
  1494     0032                     ??___flmul:
  1495                           
  1496                           ; 1 bytes @ 0x12
  1497     0032                     	ds	5
  1498     0037                     ___flmul@sign:
  1499                           
  1500                           ; 1 bytes @ 0x17
  1501     0037                     	ds	1
  1502     0038                     ___flmul@aexp:
  1503                           
  1504                           ; 1 bytes @ 0x18
  1505     0038                     	ds	1
  1506     0039                     ___flmul@grs:
  1507                           
  1508                           ; 4 bytes @ 0x19
  1509     0039                     	ds	4
  1510     003D                     ___flmul@bexp:
  1511                           
  1512                           ; 1 bytes @ 0x1D
  1513     003D                     	ds	1
  1514     003E                     ___flmul@prod:
  1515                           
  1516                           ; 4 bytes @ 0x1E
  1517     003E                     	ds	4
  1518     0042                     ___flmul@temp:
  1519                           
  1520                           ; 2 bytes @ 0x22
  1521     0042                     	ds	2
  1522     0044                     ?___fltol:
  1523     0044                     ?___flsub:	
  1524                           ; 4 bytes @ 0x24
  1525                           
  1526     0044                     ___fltol@f1:	
  1527                           ; 4 bytes @ 0x24
  1528                           
  1529     0044                     ___flsub@a:	
  1530                           ; 4 bytes @ 0x24
  1531                           
  1532                           
  1533                           ; 4 bytes @ 0x24
  1534     0044                     	ds	4
  1535     0048                     ??___fltol:
  1536     0048                     ___flsub@b:	
  1537                           ; 1 bytes @ 0x28
  1538                           
  1539                           
  1540                           ; 4 bytes @ 0x28
  1541     0048                     	ds	4
  1542     004C                     ?___flge:
  1543     004C                     ___flge@ff1:	
  1544                           ; 1 bit 
  1545                           
  1546                           
  1547                           ; 4 bytes @ 0x2C
  1548     004C                     	ds	4
  1549     0050                     ___flge@ff2:
  1550                           
  1551                           ; 4 bytes @ 0x30
  1552     0050                     	ds	4
  1553     0054                     ??___flge:
  1554                           
  1555                           ; 1 bytes @ 0x34
  1556     0054                     	ds	4
  1557     0058                     ??_run_program:
  1558                           
  1559                           ; 1 bytes @ 0x38
  1560     0058                     	ds	6
  1561     005E                     run_program@key:
  1562                           
  1563                           ; 1 bytes @ 0x3E
  1564     005E                     	ds	1
  1565     005F                     ??_main:
  1566                           
  1567                           ; 1 bytes @ 0x3F
  1568     005F                     	ds	4
  1569                           
  1570                           	psect	maintext
  1571     0A6A                     __pmaintext:	
  1572 ;;
  1573 ;;Main: autosize = 0, tempsize = 4, incstack = 0, save=0
  1574 ;;
  1575 ;; *************** function _main *****************
  1576 ;; Defined at:
  1577 ;;		line 25 in file "main.c"
  1578 ;; Parameters:    Size  Location     Type
  1579 ;;		None
  1580 ;; Auto vars:     Size  Location     Type
  1581 ;;  delay           2    4[BANK1 ] unsigned int 
  1582 ;;  delay           4    0[BANK1 ] unsigned long 
  1583 ;;  key             1    6[BANK1 ] unsigned char 
  1584 ;; Return value:  Size  Location     Type
  1585 ;;                  1    wreg      void 
  1586 ;; Registers used:
  1587 ;;		wreg, fsr0l, fsr0h, status,2, status,0, btemp+1, pclath, cstack
  1588 ;; Tracked objects:
  1589 ;;		On entry : B00/0
  1590 ;;		On exit  : 0/0
  1591 ;;		Unchanged: 0/0
  1592 ;; Data sizes:     COMMON   BANK0   BANK1   BANK3   BANK2
  1593 ;;      Params:         0       0       0       0       0
  1594 ;;      Locals:         0       0       7       0       0
  1595 ;;      Temps:          0       4       0       0       0
  1596 ;;      Totals:         0       4       7       0       0
  1597 ;;Total ram usage:       11 bytes
  1598 ;; Hardware stack levels required when called: 5
  1599 ;; This function calls:
  1600 ;;		_clcd_print
  1601 ;;		_clear_screen
  1602 ;;		_init_config
  1603 ;;		_power_on_screen
  1604 ;;		_read_digital_keypad
  1605 ;;		_run_program
  1606 ;;		_set_time
  1607 ;;		_washing_program_display
  1608 ;;		_water_level_screen
  1609 ;; This function is called by:
  1610 ;;		Startup code after reset
  1611 ;; This function uses a non-reentrant model
  1612 ;;
  1613                           
  1614     0A6A                     _main:	
  1615                           ;psect for function _main
  1616                           
  1617     0A6A                     l5314:	
  1618                           ;incstack = 0
  1619                           ; Regs used in _main: [wreg-fsr0h+status,2+status,0+btemp+1+pclath+cstack]
  1620                           
  1621                           
  1622                           ;main.c: 26:         power_on_screen();
  1623     0A6A  160A  118A  23D4  120A  158A  	fcall	_init_config
  1624     0A6F                     l5316:
  1625                           
  1626                           ;main.c: 27:     while(1);main.c: 28:     {
  1627     0A6F  3060               	movlw	low (STR_1| (0+32768))
  1628     0A70  1283               	bcf	3,5	;RP0=0, select bank0
  1629     0A71  1303               	bcf	3,6	;RP1=0, select bank0
  1630     0A72  00A0               	movwf	clcd_print@str
  1631     0A73  3090               	movlw	high (STR_1| (0+32768))
  1632     0A74  00A1               	movwf	clcd_print@str+1
  1633     0A75  3081               	movlw	129
  1634     0A76  00A2               	movwf	clcd_print@addr
  1635     0A77  160A  118A  24A2  120A  158A  	fcall	_clcd_print
  1636     0A7C                     l5318:
  1637                           
  1638                           ;main.c: 29:        key=read_digital_keypad(1);
  1639     0A7C  3017               	movlw	low (STR_2| (0+32768))
  1640     0A7D  1283               	bcf	3,5	;RP0=0, select bank0
  1641     0A7E  1303               	bcf	3,6	;RP1=0, select bank0
  1642     0A7F  00A0               	movwf	clcd_print@str
  1643     0A80  3091               	movlw	high (STR_2| (0+32768))
  1644     0A81  00A1               	movwf	clcd_print@str+1
  1645     0A82  30C4               	movlw	196
  1646     0A83  00A2               	movwf	clcd_print@addr
  1647     0A84  160A  118A  24A2  120A  158A  	fcall	_clcd_print
  1648     0A89                     l5320:
  1649                           
  1650                           ;main.c: 30: 
  1651     0A89  3041               	movlw	low (STR_3| (0+32768))
  1652     0A8A  1283               	bcf	3,5	;RP0=0, select bank0
  1653     0A8B  1303               	bcf	3,6	;RP1=0, select bank0
  1654     0A8C  00A0               	movwf	clcd_print@str
  1655     0A8D  3090               	movlw	high (STR_3| (0+32768))
  1656     0A8E  00A1               	movwf	clcd_print@str+1
  1657     0A8F  3091               	movlw	145
  1658     0A90  00A2               	movwf	clcd_print@addr
  1659     0A91  160A  118A  24A2  120A  158A  	fcall	_clcd_print
  1660                           
  1661                           ;main.c: 31:        for(unsigned int delay=10000;delay--;);
  1662     0A96  2ADF               	goto	l5326
  1663     0A97                     l5322:
  1664                           
  1665                           ;main.c: 32: ;main.c: 33:        if((key==0x99) && (operational_mode==0x01))
  1666     0A97  3000               	movlw	0
  1667     0A98  1683               	bsf	3,5	;RP0=1, select bank1
  1668     0A99  1303               	bcf	3,6	;RP1=0, select bank1
  1669     0A9A  00CD               	movwf	(main@delay+3)^(0+128)
  1670     0A9B  3000               	movlw	0
  1671     0A9C  00CC               	movwf	(main@delay+2)^(0+128)
  1672     0A9D  3027               	movlw	39
  1673     0A9E  00CB               	movwf	(main@delay+1)^(0+128)
  1674     0A9F  3010               	movlw	16
  1675     0AA0  00CA               	movwf	main@delay^(0+128)
  1676     0AA1                     l5324:
  1677     0AA1  3001               	movlw	1
  1678     0AA2  1283               	bcf	3,5	;RP0=0, select bank0
  1679     0AA3  1303               	bcf	3,6	;RP1=0, select bank0
  1680     0AA4  00DF               	movwf	??_main
  1681     0AA5  3000               	movlw	0
  1682     0AA6  00E0               	movwf	??_main+1
  1683     0AA7  3000               	movlw	0
  1684     0AA8  00E1               	movwf	??_main+2
  1685     0AA9  3000               	movlw	0
  1686     0AAA  00E2               	movwf	??_main+3
  1687     0AAB  085F               	movf	??_main,w
  1688     0AAC  1683               	bsf	3,5	;RP0=1, select bank1
  1689     0AAD  1303               	bcf	3,6	;RP1=0, select bank1
  1690     0AAE  02CA               	subwf	main@delay^(0+128),f
  1691     0AAF  1283               	bcf	3,5	;RP0=0, select bank0
  1692     0AB0  1303               	bcf	3,6	;RP1=0, select bank0
  1693     0AB1  0860               	movf	??_main+1,w
  1694     0AB2  1C03               	skipc
  1695     0AB3  0F60               	incfsz	??_main+1,w
  1696     0AB4  2AB6               	goto	u5645
  1697     0AB5  2AB9               	goto	u5646
  1698     0AB6                     u5645:
  1699     0AB6  1683               	bsf	3,5	;RP0=1, select bank1
  1700     0AB7  1303               	bcf	3,6	;RP1=0, select bank1
  1701     0AB8  02CB               	subwf	(main@delay+1)^(0+128),f
  1702     0AB9                     u5646:
  1703     0AB9  1283               	bcf	3,5	;RP0=0, select bank0
  1704     0ABA  1303               	bcf	3,6	;RP1=0, select bank0
  1705     0ABB  0861               	movf	??_main+2,w
  1706     0ABC  1C03               	skipc
  1707     0ABD  0F61               	incfsz	??_main+2,w
  1708     0ABE  2AC0               	goto	u5647
  1709     0ABF  2AC3               	goto	u5648
  1710     0AC0                     u5647:
  1711     0AC0  1683               	bsf	3,5	;RP0=1, select bank1
  1712     0AC1  1303               	bcf	3,6	;RP1=0, select bank1
  1713     0AC2  02CC               	subwf	(main@delay+2)^(0+128),f
  1714     0AC3                     u5648:
  1715     0AC3  1283               	bcf	3,5	;RP0=0, select bank0
  1716     0AC4  1303               	bcf	3,6	;RP1=0, select bank0
  1717     0AC5  0862               	movf	??_main+3,w
  1718     0AC6  1C03               	skipc
  1719     0AC7  0F62               	incfsz	??_main+3,w
  1720     0AC8  2ACA               	goto	u5649
  1721     0AC9  2ACD               	goto	u5640
  1722     0ACA                     u5649:
  1723     0ACA  1683               	bsf	3,5	;RP0=1, select bank1
  1724     0ACB  1303               	bcf	3,6	;RP1=0, select bank1
  1725     0ACC  02CD               	subwf	(main@delay+3)^(0+128),f
  1726     0ACD                     u5640:
  1727     0ACD  1283               	bcf	3,5	;RP0=0, select bank0
  1728     0ACE  1303               	bcf	3,6	;RP1=0, select bank0
  1729     0ACF  1683               	bsf	3,5	;RP0=1, select bank1
  1730     0AD0  1303               	bcf	3,6	;RP1=0, select bank1
  1731     0AD1  0A4A               	incf	main@delay^(0+128),w
  1732     0AD2  1D03               	skipz
  1733     0AD3  2ADE               	goto	u5651
  1734     0AD4  0A4B               	incf	(main@delay+1)^(0+128),w
  1735     0AD5  1D03               	skipz
  1736     0AD6  2ADE               	goto	u5651
  1737     0AD7  0A4C               	incf	(main@delay+2)^(0+128),w
  1738     0AD8  1D03               	skipz
  1739     0AD9  2ADE               	goto	u5651
  1740     0ADA  0A4D               	incf	(main@delay+3)^(0+128),w
  1741     0ADB  1D03               	btfss	3,2
  1742     0ADC  2ADE               	goto	u5651
  1743     0ADD  2ADF               	goto	u5650
  1744     0ADE                     u5651:
  1745     0ADE  2AA1               	goto	l5324
  1746     0ADF                     u5650:
  1747     0ADF                     l5326:
  1748                           
  1749                           ;main.c: 31:        for(unsigned int delay=10000;delay--;);
  1750     0ADF  3001               	movlw	1
  1751     0AE0  160A  118A  2515  120A  158A  	fcall	_read_digital_keypad
  1752     0AE5  3A2F               	xorlw	47
  1753     0AE6  1D03               	skipz
  1754     0AE7  2AE9               	goto	u5661
  1755     0AE8  2AEA               	goto	u5660
  1756     0AE9                     u5661:
  1757     0AE9  2A97               	goto	l5322
  1758     0AEA                     u5660:
  1759     0AEA                     l5328:
  1760                           
  1761                           ;main.c: 35: 
  1762     0AEA  160A  118A  23AE  120A  158A  	fcall	_clear_screen
  1763     0AEF                     l5330:
  1764                           
  1765                           ;main.c: 36:            operational_mode = 0x02;
  1766     0AEF  160A  118A  26EF  120A  158A  	fcall	_power_on_screen
  1767     0AF4                     l5332:
  1768                           
  1769                           ;main.c: 38:        };main.c: 39:        else if(key==0x99 && operational_mode==0x02)
  1770     0AF4  3001               	movlw	1
  1771     0AF5  160A  118A  2515  120A  158A  	fcall	_read_digital_keypad
  1772     0AFA  1683               	bsf	3,5	;RP0=1, select bank1
  1773     0AFB  1303               	bcf	3,6	;RP1=0, select bank1
  1774     0AFC  00D0               	movwf	main@key^(0+128)
  1775     0AFD                     l5334:
  1776                           
  1777                           ;main.c: 41:            operational_mode = 0x03;
  1778     0AFD  3010               	movlw	16
  1779     0AFE  00CE               	movwf	main@delay_93^(0+128)
  1780     0AFF  3027               	movlw	39
  1781     0B00  00CF               	movwf	(main@delay_93^(0+128)+1)
  1782     0B01                     l5336:
  1783     0B01  3001               	movlw	1
  1784     0B02  02CE               	subwf	main@delay_93^(0+128),f
  1785     0B03  3000               	movlw	0
  1786     0B04  1C03               	skipc
  1787     0B05  03CF               	decf	(main@delay_93+1)^(0+128),f
  1788     0B06  02CF               	subwf	(main@delay_93+1)^(0+128),f
  1789     0B07  0A4E               	incf	main@delay_93^(0+128),w
  1790     0B08  1D03               	skipz
  1791     0B09  2B0E               	goto	u5671
  1792     0B0A  0A4F               	incf	(main@delay_93+1)^(0+128),w
  1793     0B0B  1D03               	btfss	3,2
  1794     0B0C  2B0E               	goto	u5671
  1795     0B0D  2B0F               	goto	u5670
  1796     0B0E                     u5671:
  1797     0B0E  2B01               	goto	l5336
  1798     0B0F                     u5670:
  1799     0B0F                     l5338:
  1800                           
  1801                           ;main.c: 43:            clcd_print("Press Switch",(0x80 + 0));
  1802     0B0F  3099               	movlw	153
  1803     0B10  0650               	xorwf	main@key^(0+128),w
  1804     0B11  1D03               	btfss	3,2
  1805     0B12  2B14               	goto	u5681
  1806     0B13  2B15               	goto	u5680
  1807     0B14                     u5681:
  1808     0B14  2B21               	goto	l5344
  1809     0B15                     u5680:
  1810     0B15                     l5340:
  1811     0B15  1283               	bcf	3,5	;RP0=0, select bank0
  1812     0B16  1303               	bcf	3,6	;RP1=0, select bank0
  1813     0B17  036C               	decf	_operational_mode,w
  1814     0B18  1D03               	btfss	3,2
  1815     0B19  2B1B               	goto	u5691
  1816     0B1A  2B1C               	goto	u5690
  1817     0B1B                     u5691:
  1818     0B1B  2B21               	goto	l5344
  1819     0B1C                     u5690:
  1820     0B1C                     l5342:
  1821                           
  1822                           ;main.c: 44:            clcd_print("SW5 : START",(0xC0 + 0));;main.c: 46:            set
      +                          _time();
  1823     0B1C  3002               	movlw	2
  1824     0B1D  00EC               	movwf	_operational_mode
  1825                           
  1826                           ;main.c: 47:        }
  1827     0B1E  3022               	movlw	34
  1828     0B1F  00EB               	movwf	_reset_flag
  1829                           
  1830                           ;main.c: 48:        else if(key==0x2F&&operational_mode==0x44)
  1831     0B20  2BB2               	goto	l5388
  1832     0B21                     l5344:
  1833     0B21  3099               	movlw	153
  1834     0B22  1683               	bsf	3,5	;RP0=1, select bank1
  1835     0B23  1303               	bcf	3,6	;RP1=0, select bank1
  1836     0B24  0650               	xorwf	main@key^(0+128),w
  1837     0B25  1D03               	btfss	3,2
  1838     0B26  2B28               	goto	u5701
  1839     0B27  2B29               	goto	u5700
  1840     0B28                     u5701:
  1841     0B28  2B65               	goto	l5360
  1842     0B29                     u5700:
  1843     0B29                     l5346:
  1844     0B29  3002               	movlw	2
  1845     0B2A  1283               	bcf	3,5	;RP0=0, select bank0
  1846     0B2B  1303               	bcf	3,6	;RP1=0, select bank0
  1847     0B2C  066C               	xorwf	_operational_mode,w
  1848     0B2D  1D03               	btfss	3,2
  1849     0B2E  2B30               	goto	u5711
  1850     0B2F  2B31               	goto	u5710
  1851     0B30                     u5711:
  1852     0B30  2B65               	goto	l5360
  1853     0B31                     u5710:
  1854     0B31                     l5348:
  1855                           
  1856                           ;main.c: 50:            operational_mode=0x04;;main.c: 51:            TMR2ON=1;
  1857     0B31  3003               	movlw	3
  1858     0B32  00EC               	movwf	_operational_mode
  1859     0B33                     l5350:
  1860                           
  1861                           ;main.c: 52:            RC2=1;
  1862     0B33  160A  118A  23AE  120A  158A  	fcall	_clear_screen
  1863     0B38                     l5352:
  1864                           
  1865                           ;main.c: 53:        }
  1866     0B38  307D               	movlw	low (STR_4| (0+32768))
  1867     0B39  1283               	bcf	3,5	;RP0=0, select bank0
  1868     0B3A  1303               	bcf	3,6	;RP1=0, select bank0
  1869     0B3B  00A0               	movwf	clcd_print@str
  1870     0B3C  3090               	movlw	high (STR_4| (0+32768))
  1871     0B3D  00A1               	movwf	clcd_print@str+1
  1872     0B3E  3080               	movlw	128
  1873     0B3F  00A2               	movwf	clcd_print@addr
  1874     0B40  160A  118A  24A2  120A  158A  	fcall	_clcd_print
  1875     0B45                     l5354:
  1876                           
  1877                           ;main.c: 54: 
  1878     0B45  30A2               	movlw	low (STR_5| (0+32768))
  1879     0B46  1283               	bcf	3,5	;RP0=0, select bank0
  1880     0B47  1303               	bcf	3,6	;RP1=0, select bank0
  1881     0B48  00A0               	movwf	clcd_print@str
  1882     0B49  3090               	movlw	high (STR_5| (0+32768))
  1883     0B4A  00A1               	movwf	clcd_print@str+1
  1884     0B4B  30C0               	movlw	192
  1885     0B4C  00A2               	movwf	clcd_print@addr
  1886     0B4D  160A  118A  24A2  120A  158A  	fcall	_clcd_print
  1887     0B52                     l5356:
  1888                           
  1889                           ;main.c: 55:        switch(operational_mode)
  1890     0B52  30E5               	movlw	low (STR_6| (0+32768))
  1891     0B53  1283               	bcf	3,5	;RP0=0, select bank0
  1892     0B54  1303               	bcf	3,6	;RP1=0, select bank0
  1893     0B55  00A0               	movwf	clcd_print@str
  1894     0B56  3090               	movlw	high (STR_6| (0+32768))
  1895     0B57  00A1               	movwf	clcd_print@str+1
  1896     0B58  3090               	movlw	144
  1897     0B59  00A2               	movwf	clcd_print@addr
  1898     0B5A  160A  118A  24A2  120A  158A  	fcall	_clcd_print
  1899     0B5F                     l5358:
  1900                           
  1901                           ;main.c: 56:        {
  1902     0B5F  120A  158A  23CE  120A  158A  	fcall	_set_time
  1903                           
  1904                           ;main.c: 57:            case 0x01 :
  1905     0B64  2BB2               	goto	l5388
  1906     0B65                     l5360:
  1907     0B65  302F               	movlw	47
  1908     0B66  1683               	bsf	3,5	;RP0=1, select bank1
  1909     0B67  1303               	bcf	3,6	;RP1=0, select bank1
  1910     0B68  0650               	xorwf	main@key^(0+128),w
  1911     0B69  1D03               	btfss	3,2
  1912     0B6A  2B6C               	goto	u5721
  1913     0B6B  2B6D               	goto	u5720
  1914     0B6C                     u5721:
  1915     0B6C  2B7A               	goto	l59
  1916     0B6D                     u5720:
  1917     0B6D                     l5362:
  1918     0B6D  3044               	movlw	68
  1919     0B6E  1283               	bcf	3,5	;RP0=0, select bank0
  1920     0B6F  1303               	bcf	3,6	;RP1=0, select bank0
  1921     0B70  066C               	xorwf	_operational_mode,w
  1922     0B71  1D03               	btfss	3,2
  1923     0B72  2B74               	goto	u5731
  1924     0B73  2B75               	goto	u5730
  1925     0B74                     u5731:
  1926     0B74  2B7A               	goto	l59
  1927     0B75                     u5730:
  1928     0B75                     l5364:
  1929                           
  1930                           ;main.c: 59:                break;;main.c: 60: 
  1931     0B75  3004               	movlw	4
  1932     0B76  00EC               	movwf	_operational_mode
  1933     0B77                     l5366:
  1934                           
  1935                           ;main.c: 61:            case 0x02 :
  1936     0B77  1512               	bsf	18,2	;volatile
  1937     0B78                     l5368:
  1938                           
  1939                           ;main.c: 62:                water_level_screen(key);
  1940     0B78  1507               	bsf	7,2	;volatile
  1941     0B79  2BB2               	goto	l5388
  1942     0B7A                     l59:
  1943                           
  1944                           ;main.c: 65:            case 0x03 :
  1945     0B7A  2BB2               	goto	l5388
  1946     0B7B                     l5370:
  1947                           
  1948                           ;main.c: 68:                    operational_mode=0x04;
  1949     0B7B  1683               	bsf	3,5	;RP0=1, select bank1
  1950     0B7C  1303               	bcf	3,6	;RP1=0, select bank1
  1951     0B7D  0850               	movf	main@key^(0+128),w
  1952     0B7E  120A  158A  2161  120A  158A  	fcall	_washing_program_display
  1953                           
  1954                           ;main.c: 69:                    reset_flag=0x33;
  1955     0B83  2AF4               	goto	l5332
  1956     0B84                     l5372:
  1957                           
  1958                           ;main.c: 72:                {
  1959     0B84  1683               	bsf	3,5	;RP0=1, select bank1
  1960     0B85  1303               	bcf	3,6	;RP1=0, select bank1
  1961     0B86  0850               	movf	main@key^(0+128),w
  1962     0B87  160A  118A  2763  120A  158A  	fcall	_water_level_screen
  1963                           
  1964                           ;main.c: 73:                    operational_mode=0x01;
  1965     0B8C  2AF4               	goto	l5332
  1966     0B8D                     l5374:
  1967                           
  1968                           ;main.c: 76:                break;
  1969     0B8D  302F               	movlw	47
  1970     0B8E  1683               	bsf	3,5	;RP0=1, select bank1
  1971     0B8F  1303               	bcf	3,6	;RP1=0, select bank1
  1972     0B90  0650               	xorwf	main@key^(0+128),w
  1973     0B91  1D03               	btfss	3,2
  1974     0B92  2B94               	goto	u5741
  1975     0B93  2B95               	goto	u5740
  1976     0B94                     u5741:
  1977     0B94  2B9C               	goto	l5378
  1978     0B95                     u5740:
  1979     0B95                     l5376:
  1980                           
  1981                           ;main.c: 77:            case 0x04:;main.c: 78:                run_program(key);
  1982     0B95  3004               	movlw	4
  1983     0B96  1283               	bcf	3,5	;RP0=0, select bank0
  1984     0B97  1303               	bcf	3,6	;RP1=0, select bank0
  1985     0B98  00EC               	movwf	_operational_mode
  1986                           
  1987                           ;main.c: 79:                break;
  1988     0B99  3033               	movlw	51
  1989     0B9A  00EB               	movwf	_reset_flag
  1990                           
  1991                           ;main.c: 80:     }
  1992     0B9B  2AF4               	goto	l5332
  1993     0B9C                     l5378:
  1994     0B9C  301F               	movlw	31
  1995     0B9D  0650               	xorwf	main@key^(0+128),w
  1996     0B9E  1D03               	btfss	3,2
  1997     0B9F  2BA1               	goto	u5751
  1998     0BA0  2BA2               	goto	u5750
  1999     0BA1                     u5751:
  2000     0BA1  2BCA               	goto	l65
  2001     0BA2                     u5750:
  2002     0BA2                     l5380:
  2003                           
  2004                           ;main.c: 82:     return;;main.c: 83: }
  2005     0BA2  1283               	bcf	3,5	;RP0=0, select bank0
  2006     0BA3  1303               	bcf	3,6	;RP1=0, select bank0
  2007     0BA4  01EC               	clrf	_operational_mode
  2008     0BA5  0AEC               	incf	_operational_mode,f
  2009     0BA6                     l5382:
  2010     0BA6  3011               	movlw	17
  2011     0BA7  00EB               	movwf	_reset_flag
  2012     0BA8  2AF4               	goto	l5332
  2013     0BA9                     l5384:
  2014     0BA9  1683               	bsf	3,5	;RP0=1, select bank1
  2015     0BAA  1303               	bcf	3,6	;RP1=0, select bank1
  2016     0BAB  0850               	movf	main@key^(0+128),w
  2017     0BAC  120A  118A  2049  120A  158A  	fcall	_run_program
  2018     0BB1  2AF4               	goto	l5332
  2019     0BB2                     l5388:
  2020     0BB2  1283               	bcf	3,5	;RP0=0, select bank0
  2021     0BB3  1303               	bcf	3,6	;RP1=0, select bank0
  2022     0BB4  086C               	movf	_operational_mode,w
  2023     0BB5  00DF               	movwf	??_main
  2024     0BB6  01E0               	clrf	??_main+1
  2025                           
  2026                           ; Switch on 2 bytes has been partitioned into a top level switch of size 1, and 1 sub-sw
      +                          itches
  2027                           ; Switch size 1, requested type "simple"
  2028                           ; Number of cases is 1, Range of values is 0 to 0
  2029                           ; switch strategies available:
  2030                           ; Name         Instructions Cycles
  2031                           ; simple_byte            4     3 (average)
  2032                           ; direct_byte           11     8 (fixed)
  2033                           ; jumptable            260     6 (fixed)
  2034                           ;	Chosen strategy is simple_byte
  2035     0BB7  0860               	movf	??_main+1,w
  2036     0BB8  3A00               	xorlw	0	; case 0
  2037     0BB9  1903               	skipnz
  2038     0BBA  2BBC               	goto	l5674
  2039     0BBB  2AF4               	goto	l5332
  2040     0BBC                     l5674:
  2041                           
  2042                           ; Switch size 1, requested type "simple"
  2043                           ; Number of cases is 4, Range of values is 1 to 4
  2044                           ; switch strategies available:
  2045                           ; Name         Instructions Cycles
  2046                           ; simple_byte           13     7 (average)
  2047                           ; direct_byte           23    11 (fixed)
  2048                           ; jumptable            263     9 (fixed)
  2049                           ;	Chosen strategy is simple_byte
  2050     0BBC  085F               	movf	??_main,w
  2051     0BBD  3A01               	xorlw	1	; case 1
  2052     0BBE  1903               	skipnz
  2053     0BBF  2B7B               	goto	l5370
  2054     0BC0  3A03               	xorlw	3	; case 2
  2055     0BC1  1903               	skipnz
  2056     0BC2  2B84               	goto	l5372
  2057     0BC3  3A01               	xorlw	1	; case 3
  2058     0BC4  1903               	skipnz
  2059     0BC5  2B8D               	goto	l5374
  2060     0BC6  3A07               	xorlw	7	; case 4
  2061     0BC7  1903               	skipnz
  2062     0BC8  2BA9               	goto	l5384
  2063     0BC9  2AF4               	goto	l5332
  2064     0BCA                     l65:
  2065     0BCA  2AF4               	goto	l5332
  2066     0BCB  120A  118A  280C   	ljmp	start
  2067     0BCE                     __end_of_main:
  2068                           
  2069                           	psect	text1
  2070     1763                     __ptext1:	
  2071 ;; *************** function _water_level_screen *****************
  2072 ;; Defined at:
  2073 ;;		line 66 in file "washing_machine_function_def.c"
  2074 ;; Parameters:    Size  Location     Type
  2075 ;;  key             1    wreg     unsigned char 
  2076 ;; Auto vars:     Size  Location     Type
  2077 ;;  key             1    7[BANK0 ] unsigned char 
  2078 ;; Return value:  Size  Location     Type
  2079 ;;                  1    wreg      void 
  2080 ;; Registers used:
  2081 ;;		wreg, fsr0l, fsr0h, status,2, status,0, btemp+1, pclath, cstack
  2082 ;; Tracked objects:
  2083 ;;		On entry : 0/0
  2084 ;;		On exit  : 0/0
  2085 ;;		Unchanged: 0/0
  2086 ;; Data sizes:     COMMON   BANK0   BANK1   BANK3   BANK2
  2087 ;;      Params:         0       0       0       0       0
  2088 ;;      Locals:         0       1       0       0       0
  2089 ;;      Temps:          0       2       0       0       0
  2090 ;;      Totals:         0       3       0       0       0
  2091 ;;Total ram usage:        3 bytes
  2092 ;; Hardware stack levels used: 1
  2093 ;; Hardware stack levels required when called: 3
  2094 ;; This function calls:
  2095 ;;		___awmod
  2096 ;;		_clcd_print
  2097 ;;		_clcd_putch
  2098 ;;		_clear_screen
  2099 ;; This function is called by:
  2100 ;;		_main
  2101 ;; This function uses a non-reentrant model
  2102 ;;
  2103                           
  2104     1763                     _water_level_screen:	
  2105                           ;psect for function _water_level_screen
  2106                           
  2107                           
  2108                           ;incstack = 0
  2109                           ; Regs used in _water_level_screen: [wreg-fsr0h+status,2+status,0+btemp+1+pclath+cstack]
  2110                           ;water_level_screen@key stored from wreg
  2111     1763  1283               	bcf	3,5	;RP0=0, select bank0
  2112     1764  1303               	bcf	3,6	;RP1=0, select bank0
  2113     1765  00A7               	movwf	water_level_screen@key
  2114     1766                     l4660:
  2115                           
  2116                           ;washing_machine_function_def.c: 66: void water_level_screen(unsigned char key);washing_
      +                          machine_function_def.c: 67: {;washing_machine_function_def.c: 68:     if(reset_flag==0x2
      +                          2)
  2117     1766  3022               	movlw	34
  2118     1767  066B               	xorwf	_reset_flag,w
  2119     1768  1D03               	btfss	3,2
  2120     1769  2F6B               	goto	u5191
  2121     176A  2F6C               	goto	u5190
  2122     176B                     u5191:
  2123     176B  2F75               	goto	l4666
  2124     176C                     u5190:
  2125     176C                     l4662:
  2126                           
  2127                           ;washing_machine_function_def.c: 69:     {;washing_machine_function_def.c: 70:         c
      +                          lear_screen();
  2128     176C  160A  118A  23AE  160A  118A  	fcall	_clear_screen
  2129     1771                     l4664:
  2130                           
  2131                           ;washing_machine_function_def.c: 71:         reset_flag=0xFF;
  2132     1771  30FF               	movlw	255
  2133     1772  1283               	bcf	3,5	;RP0=0, select bank0
  2134     1773  1303               	bcf	3,6	;RP1=0, select bank0
  2135     1774  00EB               	movwf	_reset_flag
  2136     1775                     l4666:
  2137                           
  2138                           ;washing_machine_function_def.c: 73:     if(key==0x37)
  2139     1775  3037               	movlw	55
  2140     1776  0627               	xorwf	water_level_screen@key,w
  2141     1777  1D03               	btfss	3,2
  2142     1778  2F7A               	goto	u5201
  2143     1779  2F7B               	goto	u5200
  2144     177A                     u5201:
  2145     177A  2F8B               	goto	l4676
  2146     177B                     u5200:
  2147     177B                     l4668:
  2148                           
  2149                           ;washing_machine_function_def.c: 74:     {;washing_machine_function_def.c: 75:         c
      +                          lear_screen();
  2150     177B  160A  118A  23AE  160A  118A  	fcall	_clear_screen
  2151     1780                     l4670:
  2152                           
  2153                           ;washing_machine_function_def.c: 76:         level++;
  2154     1780  3001               	movlw	1
  2155     1781  00FF               	movwf	btemp+1
  2156     1782  087F               	movf	btemp+1,w
  2157     1783  07F9               	addwf	_level,f
  2158     1784                     l4672:
  2159                           
  2160                           ;washing_machine_function_def.c: 77:         if(level==5)
  2161     1784  3005               	movlw	5
  2162     1785  0679               	xorwf	_level,w
  2163     1786  1D03               	btfss	3,2
  2164     1787  2F89               	goto	u5211
  2165     1788  2F8A               	goto	u5210
  2166     1789                     u5211:
  2167     1789  2F8B               	goto	l4676
  2168     178A                     u5210:
  2169     178A                     l4674:
  2170                           
  2171                           ;washing_machine_function_def.c: 78:         {;washing_machine_function_def.c: 79:      
      +                                 level=0;
  2172     178A  01F9               	clrf	_level
  2173     178B                     l4676:
  2174                           
  2175                           ;washing_machine_function_def.c: 83:     clcd_print("Water Level :",(0x80 + 0));
  2176     178B  306F               	movlw	low (STR_27| (0+32768))
  2177     178C  1283               	bcf	3,5	;RP0=0, select bank0
  2178     178D  1303               	bcf	3,6	;RP1=0, select bank0
  2179     178E  00A0               	movwf	clcd_print@str
  2180     178F  3090               	movlw	high (STR_27| (0+32768))
  2181     1790  00A1               	movwf	clcd_print@str+1
  2182     1791  3080               	movlw	128
  2183     1792  00A2               	movwf	clcd_print@addr
  2184     1793  160A  118A  24A2  160A  118A  	fcall	_clcd_print
  2185     1798                     l4678:
  2186                           
  2187                           ;washing_machine_function_def.c: 84:     clcd_putch('*',(0xC0 + 0));
  2188     1798  30C0               	movlw	192
  2189     1799  00F8               	movwf	clcd_putch@addr
  2190     179A  302A               	movlw	42
  2191     179B  160A  118A  23BF  160A  118A  	fcall	_clcd_putch
  2192     17A0                     l4680:
  2193                           
  2194                           ;washing_machine_function_def.c: 85:     clcd_print(water_level[level],(0xC0 + 2));
  2195     17A0  0879               	movf	_level,w
  2196     17A1  1283               	bcf	3,5	;RP0=0, select bank0
  2197     17A2  1303               	bcf	3,6	;RP1=0, select bank0
  2198     17A3  00A5               	movwf	??_water_level_screen
  2199     17A4  0725               	addwf	??_water_level_screen,w
  2200     17A5  3EB8               	addlw	(low (_water_level| 0))& (0+255)
  2201     17A6  0084               	movwf	4
  2202     17A7  1383               	bcf	3,7	;select IRP bank1
  2203     17A8  0800               	movf	0,w
  2204     17A9  00A0               	movwf	clcd_print@str
  2205     17AA  0A84               	incf	4,f
  2206     17AB  0800               	movf	0,w
  2207     17AC  0384               	decf	4,f
  2208     17AD  00A1               	movwf	clcd_print@str+1
  2209     17AE  30C2               	movlw	194
  2210     17AF  00A2               	movwf	clcd_print@addr
  2211     17B0  160A  118A  24A2  160A  118A  	fcall	_clcd_print
  2212     17B5                     l4682:
  2213                           
  2214                           ;washing_machine_function_def.c: 86:     clcd_print(water_level[(level+1)%5],(0x90+2));
  2215     17B5  3005               	movlw	5
  2216     17B6  00F2               	movwf	___awmod@divisor
  2217     17B7  3000               	movlw	0
  2218     17B8  00F3               	movwf	___awmod@divisor+1
  2219     17B9  0879               	movf	_level,w
  2220     17BA  3E01               	addlw	1
  2221     17BB  00F4               	movwf	___awmod@dividend
  2222     17BC  3000               	movlw	0
  2223     17BD  1803               	skipnc
  2224     17BE  3001               	movlw	1
  2225     17BF  00F5               	movwf	___awmod@dividend+1
  2226     17C0  160A  118A  25C2  160A  118A  	fcall	___awmod
  2227     17C5  0872               	movf	?___awmod,w
  2228     17C6  1283               	bcf	3,5	;RP0=0, select bank0
  2229     17C7  1303               	bcf	3,6	;RP1=0, select bank0
  2230     17C8  00A5               	movwf	??_water_level_screen
  2231     17C9  0725               	addwf	??_water_level_screen,w
  2232     17CA  3EB8               	addlw	(low (_water_level| 0))& (0+255)
  2233     17CB  0084               	movwf	4
  2234     17CC  1383               	bcf	3,7	;select IRP bank1
  2235     17CD  0800               	movf	0,w
  2236     17CE  00A0               	movwf	clcd_print@str
  2237     17CF  0A84               	incf	4,f
  2238     17D0  0800               	movf	0,w
  2239     17D1  0384               	decf	4,f
  2240     17D2  00A1               	movwf	clcd_print@str+1
  2241     17D3  3092               	movlw	146
  2242     17D4  00A2               	movwf	clcd_print@addr
  2243     17D5  160A  118A  24A2  160A  118A  	fcall	_clcd_print
  2244     17DA                     l4684:
  2245                           
  2246                           ;washing_machine_function_def.c: 87:     clcd_print(water_level[(level+2)%5],(0xD0+2));
  2247     17DA  3005               	movlw	5
  2248     17DB  00F2               	movwf	___awmod@divisor
  2249     17DC  3000               	movlw	0
  2250     17DD  00F3               	movwf	___awmod@divisor+1
  2251     17DE  0879               	movf	_level,w
  2252     17DF  3E02               	addlw	2
  2253     17E0  00F4               	movwf	___awmod@dividend
  2254     17E1  3000               	movlw	0
  2255     17E2  1803               	skipnc
  2256     17E3  3001               	movlw	1
  2257     17E4  00F5               	movwf	___awmod@dividend+1
  2258     17E5  160A  118A  25C2  160A  118A  	fcall	___awmod
  2259     17EA  0872               	movf	?___awmod,w
  2260     17EB  1283               	bcf	3,5	;RP0=0, select bank0
  2261     17EC  1303               	bcf	3,6	;RP1=0, select bank0
  2262     17ED  00A5               	movwf	??_water_level_screen
  2263     17EE  0725               	addwf	??_water_level_screen,w
  2264     17EF  3EB8               	addlw	(low (_water_level| 0))& (0+255)
  2265     17F0  0084               	movwf	4
  2266     17F1  1383               	bcf	3,7	;select IRP bank1
  2267     17F2  0800               	movf	0,w
  2268     17F3  00A0               	movwf	clcd_print@str
  2269     17F4  0A84               	incf	4,f
  2270     17F5  0800               	movf	0,w
  2271     17F6  0384               	decf	4,f
  2272     17F7  00A1               	movwf	clcd_print@str+1
  2273     17F8  30D2               	movlw	210
  2274     17F9  00A2               	movwf	clcd_print@addr
  2275     17FA  160A  118A  24A2  160A  118A  	fcall	_clcd_print
  2276     17FF                     l238:
  2277     17FF  0008               	return
  2278     1800                     __end_of_water_level_screen:
  2279                           
  2280                           	psect	text2
  2281     0961                     __ptext2:	
  2282 ;; *************** function _washing_program_display *****************
  2283 ;; Defined at:
  2284 ;;		line 38 in file "washing_machine_function_def.c"
  2285 ;; Parameters:    Size  Location     Type
  2286 ;;  key             1    wreg     unsigned char 
  2287 ;; Auto vars:     Size  Location     Type
  2288 ;;  key             1    7[BANK0 ] unsigned char 
  2289 ;; Return value:  Size  Location     Type
  2290 ;;                  1    wreg      void 
  2291 ;; Registers used:
  2292 ;;		wreg, fsr0l, fsr0h, status,2, status,0, btemp+1, pclath, cstack
  2293 ;; Tracked objects:
  2294 ;;		On entry : 0/0
  2295 ;;		On exit  : 0/0
  2296 ;;		Unchanged: 0/0
  2297 ;; Data sizes:     COMMON   BANK0   BANK1   BANK3   BANK2
  2298 ;;      Params:         0       0       0       0       0
  2299 ;;      Locals:         0       1       0       0       0
  2300 ;;      Temps:          0       2       0       0       0
  2301 ;;      Totals:         0       3       0       0       0
  2302 ;;Total ram usage:        3 bytes
  2303 ;; Hardware stack levels used: 1
  2304 ;; Hardware stack levels required when called: 3
  2305 ;; This function calls:
  2306 ;;		_clcd_print
  2307 ;;		_clcd_putch
  2308 ;;		_clear_screen
  2309 ;; This function is called by:
  2310 ;;		_main
  2311 ;; This function uses a non-reentrant model
  2312 ;;
  2313                           
  2314     0961                     _washing_program_display:	
  2315                           ;psect for function _washing_program_display
  2316                           
  2317                           
  2318                           ;incstack = 0
  2319                           ; Regs used in _washing_program_display: [wreg-fsr0h+status,2+status,0+btemp+1+pclath+cs
      +                          tack]
  2320                           ;washing_program_display@key stored from wreg
  2321     0961  1283               	bcf	3,5	;RP0=0, select bank0
  2322     0962  1303               	bcf	3,6	;RP1=0, select bank0
  2323     0963  00A7               	movwf	washing_program_display@key
  2324     0964                     l4628:
  2325                           
  2326                           ;washing_machine_function_def.c: 39:     if (reset_flag == 0x11) {
  2327     0964  3011               	movlw	17
  2328     0965  066B               	xorwf	_reset_flag,w
  2329     0966  1D03               	btfss	3,2
  2330     0967  2969               	goto	u5131
  2331     0968  296A               	goto	u5130
  2332     0969                     u5131:
  2333     0969  2973               	goto	l4634
  2334     096A                     u5130:
  2335     096A                     l4630:
  2336                           
  2337                           ;washing_machine_function_def.c: 40:         clear_screen();
  2338     096A  160A  118A  23AE  120A  158A  	fcall	_clear_screen
  2339     096F                     l4632:
  2340                           
  2341                           ;washing_machine_function_def.c: 41:         reset_flag = 0xFF;
  2342     096F  30FF               	movlw	255
  2343     0970  1283               	bcf	3,5	;RP0=0, select bank0
  2344     0971  1303               	bcf	3,6	;RP1=0, select bank0
  2345     0972  00EB               	movwf	_reset_flag
  2346     0973                     l4634:
  2347                           
  2348                           ;washing_machine_function_def.c: 43:     if (key == 0x37) {
  2349     0973  3037               	movlw	55
  2350     0974  0627               	xorwf	washing_program_display@key,w
  2351     0975  1D03               	btfss	3,2
  2352     0976  2978               	goto	u5141
  2353     0977  2979               	goto	u5140
  2354     0978                     u5141:
  2355     0978  2989               	goto	l4644
  2356     0979                     u5140:
  2357     0979                     l4636:
  2358                           
  2359                           ;washing_machine_function_def.c: 44:         clear_screen();
  2360     0979  160A  118A  23AE  120A  158A  	fcall	_clear_screen
  2361     097E                     l4638:
  2362                           
  2363                           ;washing_machine_function_def.c: 45:         program_no++;
  2364     097E  3001               	movlw	1
  2365     097F  00FF               	movwf	btemp+1
  2366     0980  087F               	movf	btemp+1,w
  2367     0981  07FA               	addwf	_program_no,f
  2368     0982                     l4640:
  2369                           
  2370                           ;washing_machine_function_def.c: 46:         if (program_no == 12) {
  2371     0982  300C               	movlw	12
  2372     0983  067A               	xorwf	_program_no,w
  2373     0984  1D03               	btfss	3,2
  2374     0985  2987               	goto	u5151
  2375     0986  2988               	goto	u5150
  2376     0987                     u5151:
  2377     0987  2989               	goto	l4644
  2378     0988                     u5150:
  2379     0988                     l4642:
  2380                           
  2381                           ;washing_machine_function_def.c: 47:             program_no = 0;
  2382     0988  01FA               	clrf	_program_no
  2383     0989                     l4644:
  2384                           
  2385                           ;washing_machine_function_def.c: 50:     clcd_print("Washing Program", (0x80 + 0));
  2386     0989  3031               	movlw	low (STR_26| (0+32768))
  2387     098A  1283               	bcf	3,5	;RP0=0, select bank0
  2388     098B  1303               	bcf	3,6	;RP1=0, select bank0
  2389     098C  00A0               	movwf	clcd_print@str
  2390     098D  3090               	movlw	high (STR_26| (0+32768))
  2391     098E  00A1               	movwf	clcd_print@str+1
  2392     098F  3080               	movlw	128
  2393     0990  00A2               	movwf	clcd_print@addr
  2394     0991  160A  118A  24A2  120A  158A  	fcall	_clcd_print
  2395     0996                     l4646:
  2396                           
  2397                           ;washing_machine_function_def.c: 51:     clcd_putch('*', (0xC0 + 0));
  2398     0996  30C0               	movlw	192
  2399     0997  00F8               	movwf	clcd_putch@addr
  2400     0998  302A               	movlw	42
  2401     0999  160A  118A  23BF  120A  158A  	fcall	_clcd_putch
  2402     099E                     l4648:
  2403                           
  2404                           ;washing_machine_function_def.c: 52:     if (program_no <= 9) {
  2405     099E  300A               	movlw	10
  2406     099F  027A               	subwf	_program_no,w
  2407     09A0  1803               	skipnc
  2408     09A1  29A3               	goto	u5161
  2409     09A2  29A4               	goto	u5160
  2410     09A3                     u5161:
  2411     09A3  29E4               	goto	l4652
  2412     09A4                     u5160:
  2413     09A4                     l4650:
  2414                           
  2415                           ;washing_machine_function_def.c: 53:         clcd_print(washing_program[program_no], (0x
      +                          C0 + 1));
  2416     09A4  087A               	movf	_program_no,w
  2417     09A5  1283               	bcf	3,5	;RP0=0, select bank0
  2418     09A6  1303               	bcf	3,6	;RP1=0, select bank0
  2419     09A7  00A5               	movwf	??_washing_program_display
  2420     09A8  0725               	addwf	??_washing_program_display,w
  2421     09A9  3EA0               	addlw	(low (_washing_program| 0))& (0+255)
  2422     09AA  0084               	movwf	4
  2423     09AB  1383               	bcf	3,7	;select IRP bank1
  2424     09AC  0800               	movf	0,w
  2425     09AD  00A0               	movwf	clcd_print@str
  2426     09AE  0A84               	incf	4,f
  2427     09AF  0800               	movf	0,w
  2428     09B0  0384               	decf	4,f
  2429     09B1  00A1               	movwf	clcd_print@str+1
  2430     09B2  30C1               	movlw	193
  2431     09B3  00A2               	movwf	clcd_print@addr
  2432     09B4  160A  118A  24A2  120A  158A  	fcall	_clcd_print
  2433                           
  2434                           ;washing_machine_function_def.c: 54:         clcd_print(washing_program[program_no + 1],
      +                           (0x90+1));
  2435     09B9  087A               	movf	_program_no,w
  2436     09BA  1283               	bcf	3,5	;RP0=0, select bank0
  2437     09BB  1303               	bcf	3,6	;RP1=0, select bank0
  2438     09BC  00A5               	movwf	??_washing_program_display
  2439     09BD  0725               	addwf	??_washing_program_display,w
  2440     09BE  3EA2               	addlw	(low ((_washing_program| 0+2)))& (0+255)
  2441     09BF  0084               	movwf	4
  2442     09C0  1383               	bcf	3,7	;select IRP bank1
  2443     09C1  0800               	movf	0,w
  2444     09C2  00A0               	movwf	clcd_print@str
  2445     09C3  0A84               	incf	4,f
  2446     09C4  0800               	movf	0,w
  2447     09C5  0384               	decf	4,f
  2448     09C6  00A1               	movwf	clcd_print@str+1
  2449     09C7  3091               	movlw	145
  2450     09C8  00A2               	movwf	clcd_print@addr
  2451     09C9  160A  118A  24A2  120A  158A  	fcall	_clcd_print
  2452                           
  2453                           ;washing_machine_function_def.c: 55:         clcd_print(washing_program[program_no + 2],
      +                           (0xD0+1));
  2454     09CE  087A               	movf	_program_no,w
  2455     09CF  1283               	bcf	3,5	;RP0=0, select bank0
  2456     09D0  1303               	bcf	3,6	;RP1=0, select bank0
  2457     09D1  00A5               	movwf	??_washing_program_display
  2458     09D2  0725               	addwf	??_washing_program_display,w
  2459     09D3  3EA4               	addlw	(low ((_washing_program| 0+4)))& (0+255)
  2460     09D4  0084               	movwf	4
  2461     09D5  1383               	bcf	3,7	;select IRP bank1
  2462     09D6  0800               	movf	0,w
  2463     09D7  00A0               	movwf	clcd_print@str
  2464     09D8  0A84               	incf	4,f
  2465     09D9  0800               	movf	0,w
  2466     09DA  0384               	decf	4,f
  2467     09DB  00A1               	movwf	clcd_print@str+1
  2468     09DC  30D1               	movlw	209
  2469     09DD  00A2               	movwf	clcd_print@addr
  2470     09DE  160A  118A  24A2  120A  158A  	fcall	_clcd_print
  2471                           
  2472                           ;washing_machine_function_def.c: 56:     } else if (program_no == 10) {
  2473     09E3  2A69               	goto	l232
  2474     09E4                     l4652:
  2475     09E4  300A               	movlw	10
  2476     09E5  067A               	xorwf	_program_no,w
  2477     09E6  1D03               	btfss	3,2
  2478     09E7  29E9               	goto	u5171
  2479     09E8  29EA               	goto	u5170
  2480     09E9                     u5171:
  2481     09E9  2A28               	goto	l4656
  2482     09EA                     u5170:
  2483     09EA                     l4654:
  2484                           
  2485                           ;washing_machine_function_def.c: 57:         clcd_print(washing_program[program_no], (0x
      +                          C0 + 1));
  2486     09EA  087A               	movf	_program_no,w
  2487     09EB  1283               	bcf	3,5	;RP0=0, select bank0
  2488     09EC  1303               	bcf	3,6	;RP1=0, select bank0
  2489     09ED  00A5               	movwf	??_washing_program_display
  2490     09EE  0725               	addwf	??_washing_program_display,w
  2491     09EF  3EA0               	addlw	(low (_washing_program| 0))& (0+255)
  2492     09F0  0084               	movwf	4
  2493     09F1  1383               	bcf	3,7	;select IRP bank1
  2494     09F2  0800               	movf	0,w
  2495     09F3  00A0               	movwf	clcd_print@str
  2496     09F4  0A84               	incf	4,f
  2497     09F5  0800               	movf	0,w
  2498     09F6  0384               	decf	4,f
  2499     09F7  00A1               	movwf	clcd_print@str+1
  2500     09F8  30C1               	movlw	193
  2501     09F9  00A2               	movwf	clcd_print@addr
  2502     09FA  160A  118A  24A2  120A  158A  	fcall	_clcd_print
  2503                           
  2504                           ;washing_machine_function_def.c: 58:         clcd_print(washing_program[program_no + 1],
      +                           (0x90+1));
  2505     09FF  087A               	movf	_program_no,w
  2506     0A00  1283               	bcf	3,5	;RP0=0, select bank0
  2507     0A01  1303               	bcf	3,6	;RP1=0, select bank0
  2508     0A02  00A5               	movwf	??_washing_program_display
  2509     0A03  0725               	addwf	??_washing_program_display,w
  2510     0A04  3EA2               	addlw	(low ((_washing_program| 0+2)))& (0+255)
  2511     0A05  0084               	movwf	4
  2512     0A06  1383               	bcf	3,7	;select IRP bank1
  2513     0A07  0800               	movf	0,w
  2514     0A08  00A0               	movwf	clcd_print@str
  2515     0A09  0A84               	incf	4,f
  2516     0A0A  0800               	movf	0,w
  2517     0A0B  0384               	decf	4,f
  2518     0A0C  00A1               	movwf	clcd_print@str+1
  2519     0A0D  3091               	movlw	145
  2520     0A0E  00A2               	movwf	clcd_print@addr
  2521     0A0F  160A  118A  24A2  120A  158A  	fcall	_clcd_print
  2522                           
  2523                           ;washing_machine_function_def.c: 59:         clcd_print(washing_program[0], (0xD0+1));
  2524     0A14  1683               	bsf	3,5	;RP0=1, select bank1
  2525     0A15  1303               	bcf	3,6	;RP1=0, select bank1
  2526     0A16  0820               	movf	_washing_program^(0+128),w
  2527     0A17  1283               	bcf	3,5	;RP0=0, select bank0
  2528     0A18  1303               	bcf	3,6	;RP1=0, select bank0
  2529     0A19  00A0               	movwf	clcd_print@str
  2530     0A1A  1683               	bsf	3,5	;RP0=1, select bank1
  2531     0A1B  1303               	bcf	3,6	;RP1=0, select bank1
  2532     0A1C  0821               	movf	(_washing_program+1)^(0+128),w
  2533     0A1D  1283               	bcf	3,5	;RP0=0, select bank0
  2534     0A1E  1303               	bcf	3,6	;RP1=0, select bank0
  2535     0A1F  00A1               	movwf	clcd_print@str+1
  2536     0A20  30D1               	movlw	209
  2537     0A21  00A2               	movwf	clcd_print@addr
  2538     0A22  160A  118A  24A2  120A  158A  	fcall	_clcd_print
  2539                           
  2540                           ;washing_machine_function_def.c: 60:     } else if (program_no == 11) {
  2541     0A27  2A69               	goto	l232
  2542     0A28                     l4656:
  2543     0A28  300B               	movlw	11
  2544     0A29  067A               	xorwf	_program_no,w
  2545     0A2A  1D03               	btfss	3,2
  2546     0A2B  2A2D               	goto	u5181
  2547     0A2C  2A2E               	goto	u5180
  2548     0A2D                     u5181:
  2549     0A2D  2A69               	goto	l232
  2550     0A2E                     u5180:
  2551     0A2E                     l4658:
  2552                           
  2553                           ;washing_machine_function_def.c: 61:         clcd_print(washing_program[program_no], (0x
      +                          C0 + 1));
  2554     0A2E  087A               	movf	_program_no,w
  2555     0A2F  1283               	bcf	3,5	;RP0=0, select bank0
  2556     0A30  1303               	bcf	3,6	;RP1=0, select bank0
  2557     0A31  00A5               	movwf	??_washing_program_display
  2558     0A32  0725               	addwf	??_washing_program_display,w
  2559     0A33  3EA0               	addlw	(low (_washing_program| 0))& (0+255)
  2560     0A34  0084               	movwf	4
  2561     0A35  1383               	bcf	3,7	;select IRP bank1
  2562     0A36  0800               	movf	0,w
  2563     0A37  00A0               	movwf	clcd_print@str
  2564     0A38  0A84               	incf	4,f
  2565     0A39  0800               	movf	0,w
  2566     0A3A  0384               	decf	4,f
  2567     0A3B  00A1               	movwf	clcd_print@str+1
  2568     0A3C  30C1               	movlw	193
  2569     0A3D  00A2               	movwf	clcd_print@addr
  2570     0A3E  160A  118A  24A2  120A  158A  	fcall	_clcd_print
  2571                           
  2572                           ;washing_machine_function_def.c: 62:         clcd_print(washing_program[0], (0x90+1));
  2573     0A43  1683               	bsf	3,5	;RP0=1, select bank1
  2574     0A44  1303               	bcf	3,6	;RP1=0, select bank1
  2575     0A45  0820               	movf	_washing_program^(0+128),w
  2576     0A46  1283               	bcf	3,5	;RP0=0, select bank0
  2577     0A47  1303               	bcf	3,6	;RP1=0, select bank0
  2578     0A48  00A0               	movwf	clcd_print@str
  2579     0A49  1683               	bsf	3,5	;RP0=1, select bank1
  2580     0A4A  1303               	bcf	3,6	;RP1=0, select bank1
  2581     0A4B  0821               	movf	(_washing_program+1)^(0+128),w
  2582     0A4C  1283               	bcf	3,5	;RP0=0, select bank0
  2583     0A4D  1303               	bcf	3,6	;RP1=0, select bank0
  2584     0A4E  00A1               	movwf	clcd_print@str+1
  2585     0A4F  3091               	movlw	145
  2586     0A50  00A2               	movwf	clcd_print@addr
  2587     0A51  160A  118A  24A2  120A  158A  	fcall	_clcd_print
  2588                           
  2589                           ;washing_machine_function_def.c: 63:         clcd_print(washing_program[1], (0xD0+1));
  2590     0A56  1683               	bsf	3,5	;RP0=1, select bank1
  2591     0A57  1303               	bcf	3,6	;RP1=0, select bank1
  2592     0A58  0822               	movf	(low ((_washing_program| 0+2)))^(0+128),w
  2593     0A59  1283               	bcf	3,5	;RP0=0, select bank0
  2594     0A5A  1303               	bcf	3,6	;RP1=0, select bank0
  2595     0A5B  00A0               	movwf	clcd_print@str
  2596     0A5C  1683               	bsf	3,5	;RP0=1, select bank1
  2597     0A5D  1303               	bcf	3,6	;RP1=0, select bank1
  2598     0A5E  0823               	movf	((low ((_washing_program| 0+2))+1))^(0+128),w
  2599     0A5F  1283               	bcf	3,5	;RP0=0, select bank0
  2600     0A60  1303               	bcf	3,6	;RP1=0, select bank0
  2601     0A61  00A1               	movwf	clcd_print@str+1
  2602     0A62  30D1               	movlw	209
  2603     0A63  00A2               	movwf	clcd_print@addr
  2604     0A64  160A  118A  24A2  120A  158A  	fcall	_clcd_print
  2605     0A69                     l232:
  2606     0A69  0008               	return
  2607     0A6A                     __end_of_washing_program_display:
  2608                           
  2609                           	psect	text3
  2610     0BCE                     __ptext3:	
  2611 ;; *************** function _set_time *****************
  2612 ;; Defined at:
  2613 ;;		line 219 in file "washing_machine_function_def.c"
  2614 ;; Parameters:    Size  Location     Type
  2615 ;;		None
  2616 ;; Auto vars:     Size  Location     Type
  2617 ;;		None
  2618 ;; Return value:  Size  Location     Type
  2619 ;;                  1    wreg      void 
  2620 ;; Registers used:
  2621 ;;		wreg, fsr0l, fsr0h, status,2, status,0
  2622 ;; Tracked objects:
  2623 ;;		On entry : 0/0
  2624 ;;		On exit  : 0/0
  2625 ;;		Unchanged: 0/0
  2626 ;; Data sizes:     COMMON   BANK0   BANK1   BANK3   BANK2
  2627 ;;      Params:         0       0       0       0       0
  2628 ;;      Locals:         0       0       0       0       0
  2629 ;;      Temps:          2       0       0       0       0
  2630 ;;      Totals:         2       0       0       0       0
  2631 ;;Total ram usage:        2 bytes
  2632 ;; Hardware stack levels used: 1
  2633 ;; Hardware stack levels required when called: 1
  2634 ;; This function calls:
  2635 ;;		Nothing
  2636 ;; This function is called by:
  2637 ;;		_main
  2638 ;; This function uses a non-reentrant model
  2639 ;;
  2640                           
  2641     0BCE                     _set_time:	
  2642                           ;psect for function _set_time
  2643                           
  2644     0BCE                     l4424:	
  2645                           ;incstack = 0
  2646                           ; Regs used in _set_time: [wreg-fsr0h+status,2+status,0]
  2647                           
  2648                           
  2649                           ;washing_machine_function_def.c: 221:     switch(program_no)
  2650     0BCE  2D71               	goto	l4574
  2651     0BCF                     l4426:
  2652                           
  2653                           ;washing_machine_function_def.c: 227:                     min=0;
  2654     0BCF  1283               	bcf	3,5	;RP0=0, select bank0
  2655     0BD0  1303               	bcf	3,6	;RP1=0, select bank0
  2656     0BD1  01E9               	clrf	_min
  2657     0BD2                     l4428:
  2658                           
  2659                           ;washing_machine_function_def.c: 228:                     sec=41;
  2660     0BD2  3029               	movlw	41
  2661     0BD3  00E7               	movwf	_sec
  2662                           
  2663                           ;washing_machine_function_def.c: 229:                     break;
  2664     0BD4  2D9F               	goto	l364
  2665     0BD5                     l4430:
  2666                           
  2667                           ;washing_machine_function_def.c: 231:                     min=0;
  2668     0BD5  1283               	bcf	3,5	;RP0=0, select bank0
  2669     0BD6  1303               	bcf	3,6	;RP1=0, select bank0
  2670     0BD7  01E9               	clrf	_min
  2671     0BD8                     l4432:
  2672                           
  2673                           ;washing_machine_function_def.c: 232:                     sec=33;
  2674     0BD8  3021               	movlw	33
  2675     0BD9  00E7               	movwf	_sec
  2676                           
  2677                           ;washing_machine_function_def.c: 233:                     break;
  2678     0BDA  2D9F               	goto	l364
  2679     0BDB                     l4438:
  2680                           
  2681                           ;washing_machine_function_def.c: 239:                     min=0;
  2682     0BDB  1283               	bcf	3,5	;RP0=0, select bank0
  2683     0BDC  1303               	bcf	3,6	;RP1=0, select bank0
  2684     0BDD  01E9               	clrf	_min
  2685     0BDE                     l4440:
  2686                           
  2687                           ;washing_machine_function_def.c: 240:                     sec=45;
  2688     0BDE  302D               	movlw	45
  2689     0BDF  00E7               	movwf	_sec
  2690                           
  2691                           ;washing_machine_function_def.c: 241:                     break;
  2692     0BE0  2D9F               	goto	l364
  2693     0BE1                     l4448:
  2694     0BE1  0879               	movf	_level,w
  2695     0BE2  00F2               	movwf	??_set_time
  2696     0BE3  01F3               	clrf	??_set_time+1
  2697                           
  2698                           ; Switch on 2 bytes has been partitioned into a top level switch of size 1, and 1 sub-sw
      +                          itches
  2699                           ; Switch size 1, requested type "simple"
  2700                           ; Number of cases is 1, Range of values is 0 to 0
  2701                           ; switch strategies available:
  2702                           ; Name         Instructions Cycles
  2703                           ; simple_byte            4     3 (average)
  2704                           ; direct_byte           11     8 (fixed)
  2705                           ; jumptable            260     6 (fixed)
  2706                           ;	Chosen strategy is simple_byte
  2707     0BE4  0873               	movf	??_set_time+1,w
  2708     0BE5  3A00               	xorlw	0	; case 0
  2709     0BE6  1903               	skipnz
  2710     0BE7  2BE9               	goto	l5676
  2711     0BE8  2D9F               	goto	l364
  2712     0BE9                     l5676:
  2713                           
  2714                           ; Switch size 1, requested type "simple"
  2715                           ; Number of cases is 5, Range of values is 0 to 4
  2716                           ; switch strategies available:
  2717                           ; Name         Instructions Cycles
  2718                           ; simple_byte           16     9 (average)
  2719                           ; direct_byte           23     8 (fixed)
  2720                           ; jumptable            260     6 (fixed)
  2721                           ;	Chosen strategy is simple_byte
  2722     0BE9  0872               	movf	??_set_time,w
  2723     0BEA  3A00               	xorlw	0	; case 0
  2724     0BEB  1903               	skipnz
  2725     0BEC  2BCF               	goto	l4426
  2726     0BED  3A01               	xorlw	1	; case 1
  2727     0BEE  1903               	skipnz
  2728     0BEF  2BD5               	goto	l4430
  2729     0BF0  3A03               	xorlw	3	; case 2
  2730     0BF1  1903               	skipnz
  2731     0BF2  2BCF               	goto	l4426
  2732     0BF3  3A01               	xorlw	1	; case 3
  2733     0BF4  1903               	skipnz
  2734     0BF5  2BDB               	goto	l4438
  2735     0BF6  3A07               	xorlw	7	; case 4
  2736     0BF7  1903               	skipnz
  2737     0BF8  2BDB               	goto	l4438
  2738     0BF9  2D9F               	goto	l364
  2739     0BFA                     l4450:
  2740                           
  2741                           ;washing_machine_function_def.c: 252:                     min=0;
  2742     0BFA  1283               	bcf	3,5	;RP0=0, select bank0
  2743     0BFB  1303               	bcf	3,6	;RP1=0, select bank0
  2744     0BFC  01E9               	clrf	_min
  2745     0BFD                     l4452:
  2746                           
  2747                           ;washing_machine_function_def.c: 253:                     sec=50;
  2748     0BFD  3032               	movlw	50
  2749     0BFE  00E7               	movwf	_sec
  2750                           
  2751                           ;washing_machine_function_def.c: 254:                     break;
  2752     0BFF  2D9F               	goto	l364
  2753     0C00                     l4454:
  2754                           
  2755                           ;washing_machine_function_def.c: 256:                     min=0;
  2756     0C00  1283               	bcf	3,5	;RP0=0, select bank0
  2757     0C01  1303               	bcf	3,6	;RP1=0, select bank0
  2758     0C02  01E9               	clrf	_min
  2759     0C03                     l4456:
  2760                           
  2761                           ;washing_machine_function_def.c: 257:                     sec=43;
  2762     0C03  302B               	movlw	43
  2763     0C04  00E7               	movwf	_sec
  2764                           
  2765                           ;washing_machine_function_def.c: 258:                     break;
  2766     0C05  2D9F               	goto	l364
  2767     0C06                     l4462:
  2768                           
  2769                           ;washing_machine_function_def.c: 265:                     min=0;
  2770     0C06  1283               	bcf	3,5	;RP0=0, select bank0
  2771     0C07  1303               	bcf	3,6	;RP1=0, select bank0
  2772     0C08  01E9               	clrf	_min
  2773     0C09                     l4464:
  2774                           
  2775                           ;washing_machine_function_def.c: 266:                     sec=57;
  2776     0C09  3039               	movlw	57
  2777     0C0A  00E7               	movwf	_sec
  2778                           
  2779                           ;washing_machine_function_def.c: 267:                     break;
  2780     0C0B  2D9F               	goto	l364
  2781     0C0C                     l4468:
  2782     0C0C  0879               	movf	_level,w
  2783     0C0D  00F2               	movwf	??_set_time
  2784     0C0E  01F3               	clrf	??_set_time+1
  2785                           
  2786                           ; Switch on 2 bytes has been partitioned into a top level switch of size 1, and 1 sub-sw
      +                          itches
  2787                           ; Switch size 1, requested type "simple"
  2788                           ; Number of cases is 1, Range of values is 0 to 0
  2789                           ; switch strategies available:
  2790                           ; Name         Instructions Cycles
  2791                           ; simple_byte            4     3 (average)
  2792                           ; direct_byte           11     8 (fixed)
  2793                           ; jumptable            260     6 (fixed)
  2794                           ;	Chosen strategy is simple_byte
  2795     0C0F  0873               	movf	??_set_time+1,w
  2796     0C10  3A00               	xorlw	0	; case 0
  2797     0C11  1903               	skipnz
  2798     0C12  2C14               	goto	l5678
  2799     0C13  2D9F               	goto	l364
  2800     0C14                     l5678:
  2801                           
  2802                           ; Switch size 1, requested type "simple"
  2803                           ; Number of cases is 5, Range of values is 0 to 4
  2804                           ; switch strategies available:
  2805                           ; Name         Instructions Cycles
  2806                           ; simple_byte           16     9 (average)
  2807                           ; direct_byte           23     8 (fixed)
  2808                           ; jumptable            260     6 (fixed)
  2809                           ;	Chosen strategy is simple_byte
  2810     0C14  0872               	movf	??_set_time,w
  2811     0C15  3A00               	xorlw	0	; case 0
  2812     0C16  1903               	skipnz
  2813     0C17  2BFA               	goto	l4450
  2814     0C18  3A01               	xorlw	1	; case 1
  2815     0C19  1903               	skipnz
  2816     0C1A  2C00               	goto	l4454
  2817     0C1B  3A03               	xorlw	3	; case 2
  2818     0C1C  1903               	skipnz
  2819     0C1D  2BFA               	goto	l4450
  2820     0C1E  3A01               	xorlw	1	; case 3
  2821     0C1F  1903               	skipnz
  2822     0C20  2C06               	goto	l4462
  2823     0C21  3A07               	xorlw	7	; case 4
  2824     0C22  1903               	skipnz
  2825     0C23  2C06               	goto	l4462
  2826     0C24  2D9F               	goto	l364
  2827     0C25                     l4470:
  2828                           
  2829                           ;washing_machine_function_def.c: 276:                     min=0;
  2830     0C25  1283               	bcf	3,5	;RP0=0, select bank0
  2831     0C26  1303               	bcf	3,6	;RP1=0, select bank0
  2832     0C27  01E9               	clrf	_min
  2833     0C28                     l4472:
  2834                           
  2835                           ;washing_machine_function_def.c: 277:                     sec=26;
  2836     0C28  301A               	movlw	26
  2837     0C29  00E7               	movwf	_sec
  2838                           
  2839                           ;washing_machine_function_def.c: 278:                     break;
  2840     0C2A  2D9F               	goto	l364
  2841     0C2B                     l4474:
  2842                           
  2843                           ;washing_machine_function_def.c: 281:                     min=0;
  2844     0C2B  1283               	bcf	3,5	;RP0=0, select bank0
  2845     0C2C  1303               	bcf	3,6	;RP1=0, select bank0
  2846     0C2D  01E9               	clrf	_min
  2847     0C2E                     l4476:
  2848                           
  2849                           ;washing_machine_function_def.c: 282:                     sec=31;
  2850     0C2E  301F               	movlw	31
  2851     0C2F  00E7               	movwf	_sec
  2852                           
  2853                           ;washing_machine_function_def.c: 283:                     break;
  2854     0C30  2D9F               	goto	l364
  2855     0C31                     l4480:
  2856     0C31  0879               	movf	_level,w
  2857     0C32  00F2               	movwf	??_set_time
  2858     0C33  01F3               	clrf	??_set_time+1
  2859                           
  2860                           ; Switch on 2 bytes has been partitioned into a top level switch of size 1, and 1 sub-sw
      +                          itches
  2861                           ; Switch size 1, requested type "simple"
  2862                           ; Number of cases is 1, Range of values is 0 to 0
  2863                           ; switch strategies available:
  2864                           ; Name         Instructions Cycles
  2865                           ; simple_byte            4     3 (average)
  2866                           ; direct_byte           11     8 (fixed)
  2867                           ; jumptable            260     6 (fixed)
  2868                           ;	Chosen strategy is simple_byte
  2869     0C34  0873               	movf	??_set_time+1,w
  2870     0C35  3A00               	xorlw	0	; case 0
  2871     0C36  1903               	skipnz
  2872     0C37  2C39               	goto	l5680
  2873     0C38  2D9F               	goto	l364
  2874     0C39                     l5680:
  2875                           
  2876                           ; Switch size 1, requested type "simple"
  2877                           ; Number of cases is 5, Range of values is 0 to 4
  2878                           ; switch strategies available:
  2879                           ; Name         Instructions Cycles
  2880                           ; simple_byte           16     9 (average)
  2881                           ; direct_byte           23     8 (fixed)
  2882                           ; jumptable            260     6 (fixed)
  2883                           ;	Chosen strategy is simple_byte
  2884     0C39  0872               	movf	??_set_time,w
  2885     0C3A  3A00               	xorlw	0	; case 0
  2886     0C3B  1903               	skipnz
  2887     0C3C  2C25               	goto	l4470
  2888     0C3D  3A01               	xorlw	1	; case 1
  2889     0C3E  1903               	skipnz
  2890     0C3F  2C25               	goto	l4470
  2891     0C40  3A03               	xorlw	3	; case 2
  2892     0C41  1903               	skipnz
  2893     0C42  2C25               	goto	l4470
  2894     0C43  3A01               	xorlw	1	; case 3
  2895     0C44  1903               	skipnz
  2896     0C45  2C2B               	goto	l4474
  2897     0C46  3A07               	xorlw	7	; case 4
  2898     0C47  1903               	skipnz
  2899     0C48  2C2B               	goto	l4474
  2900     0C49  2D9F               	goto	l364
  2901     0C4A                     l296:	
  2902                           ;washing_machine_function_def.c: 291:                 case 2:
  2903                           
  2904     0C4A                     l298:	
  2905                           ;washing_machine_function_def.c: 293:                 case 4:
  2906                           
  2907                           
  2908                           ;washing_machine_function_def.c: 294:                     min=1;
  2909     0C4A  1283               	bcf	3,5	;RP0=0, select bank0
  2910     0C4B  1303               	bcf	3,6	;RP1=0, select bank0
  2911     0C4C  01E9               	clrf	_min
  2912     0C4D  0AE9               	incf	_min,f
  2913     0C4E                     l4482:
  2914                           
  2915                           ;washing_machine_function_def.c: 295:                     sec=16;
  2916     0C4E  3010               	movlw	16
  2917     0C4F  00E7               	movwf	_sec
  2918                           
  2919                           ;washing_machine_function_def.c: 296:                     break;
  2920     0C50  2D9F               	goto	l364
  2921     0C51                     l4486:
  2922     0C51  0879               	movf	_level,w
  2923     0C52  00F2               	movwf	??_set_time
  2924     0C53  01F3               	clrf	??_set_time+1
  2925                           
  2926                           ; Switch on 2 bytes has been partitioned into a top level switch of size 1, and 1 sub-sw
      +                          itches
  2927                           ; Switch size 1, requested type "simple"
  2928                           ; Number of cases is 1, Range of values is 0 to 0
  2929                           ; switch strategies available:
  2930                           ; Name         Instructions Cycles
  2931                           ; simple_byte            4     3 (average)
  2932                           ; direct_byte           11     8 (fixed)
  2933                           ; jumptable            260     6 (fixed)
  2934                           ;	Chosen strategy is simple_byte
  2935     0C54  0873               	movf	??_set_time+1,w
  2936     0C55  3A00               	xorlw	0	; case 0
  2937     0C56  1903               	skipnz
  2938     0C57  2C59               	goto	l5682
  2939     0C58  2D9F               	goto	l364
  2940     0C59                     l5682:
  2941                           
  2942                           ; Switch size 1, requested type "simple"
  2943                           ; Number of cases is 5, Range of values is 0 to 4
  2944                           ; switch strategies available:
  2945                           ; Name         Instructions Cycles
  2946                           ; simple_byte           16     9 (average)
  2947                           ; direct_byte           23     8 (fixed)
  2948                           ; jumptable            260     6 (fixed)
  2949                           ;	Chosen strategy is simple_byte
  2950     0C59  0872               	movf	??_set_time,w
  2951     0C5A  3A00               	xorlw	0	; case 0
  2952     0C5B  1903               	skipnz
  2953     0C5C  2C4A               	goto	l296
  2954     0C5D  3A01               	xorlw	1	; case 1
  2955     0C5E  1903               	skipnz
  2956     0C5F  2C4A               	goto	l298
  2957     0C60  3A03               	xorlw	3	; case 2
  2958     0C61  1903               	skipnz
  2959     0C62  2C4A               	goto	l298
  2960     0C63  3A01               	xorlw	1	; case 3
  2961     0C64  1903               	skipnz
  2962     0C65  2C4A               	goto	l298
  2963     0C66  3A07               	xorlw	7	; case 4
  2964     0C67  1903               	skipnz
  2965     0C68  2C4A               	goto	l298
  2966     0C69  2D9F               	goto	l364
  2967     0C6A                     l304:	
  2968                           ;washing_machine_function_def.c: 305:                 case 2:
  2969                           
  2970     0C6A                     l306:	
  2971                           ;washing_machine_function_def.c: 307:                 case 4:
  2972                           
  2973                           
  2974                           ;washing_machine_function_def.c: 308:                     min=1;
  2975     0C6A  1283               	bcf	3,5	;RP0=0, select bank0
  2976     0C6B  1303               	bcf	3,6	;RP1=0, select bank0
  2977     0C6C  01E9               	clrf	_min
  2978     0C6D  0AE9               	incf	_min,f
  2979     0C6E                     l4488:
  2980                           
  2981                           ;washing_machine_function_def.c: 309:                     sec=36;
  2982     0C6E  3024               	movlw	36
  2983     0C6F  00E7               	movwf	_sec
  2984                           
  2985                           ;washing_machine_function_def.c: 310:                     break;
  2986     0C70  2D9F               	goto	l364
  2987     0C71                     l4492:
  2988     0C71  0879               	movf	_level,w
  2989     0C72  00F2               	movwf	??_set_time
  2990     0C73  01F3               	clrf	??_set_time+1
  2991                           
  2992                           ; Switch on 2 bytes has been partitioned into a top level switch of size 1, and 1 sub-sw
      +                          itches
  2993                           ; Switch size 1, requested type "simple"
  2994                           ; Number of cases is 1, Range of values is 0 to 0
  2995                           ; switch strategies available:
  2996                           ; Name         Instructions Cycles
  2997                           ; simple_byte            4     3 (average)
  2998                           ; direct_byte           11     8 (fixed)
  2999                           ; jumptable            260     6 (fixed)
  3000                           ;	Chosen strategy is simple_byte
  3001     0C74  0873               	movf	??_set_time+1,w
  3002     0C75  3A00               	xorlw	0	; case 0
  3003     0C76  1903               	skipnz
  3004     0C77  2C79               	goto	l5684
  3005     0C78  2D9F               	goto	l364
  3006     0C79                     l5684:
  3007                           
  3008                           ; Switch size 1, requested type "simple"
  3009                           ; Number of cases is 5, Range of values is 0 to 4
  3010                           ; switch strategies available:
  3011                           ; Name         Instructions Cycles
  3012                           ; simple_byte           16     9 (average)
  3013                           ; direct_byte           23     8 (fixed)
  3014                           ; jumptable            260     6 (fixed)
  3015                           ;	Chosen strategy is simple_byte
  3016     0C79  0872               	movf	??_set_time,w
  3017     0C7A  3A00               	xorlw	0	; case 0
  3018     0C7B  1903               	skipnz
  3019     0C7C  2C6A               	goto	l304
  3020     0C7D  3A01               	xorlw	1	; case 1
  3021     0C7E  1903               	skipnz
  3022     0C7F  2C6A               	goto	l306
  3023     0C80  3A03               	xorlw	3	; case 2
  3024     0C81  1903               	skipnz
  3025     0C82  2C6A               	goto	l306
  3026     0C83  3A01               	xorlw	1	; case 3
  3027     0C84  1903               	skipnz
  3028     0C85  2C6A               	goto	l306
  3029     0C86  3A07               	xorlw	7	; case 4
  3030     0C87  1903               	skipnz
  3031     0C88  2C6A               	goto	l306
  3032     0C89  2D9F               	goto	l364
  3033     0C8A                     l4498:
  3034                           
  3035                           ;washing_machine_function_def.c: 324:                     min=0;
  3036     0C8A  1283               	bcf	3,5	;RP0=0, select bank0
  3037     0C8B  1303               	bcf	3,6	;RP1=0, select bank0
  3038     0C8C  01E9               	clrf	_min
  3039     0C8D  2C6E               	goto	l4488
  3040     0C8E                     l4504:
  3041     0C8E  0879               	movf	_level,w
  3042     0C8F  00F2               	movwf	??_set_time
  3043     0C90  01F3               	clrf	??_set_time+1
  3044                           
  3045                           ; Switch on 2 bytes has been partitioned into a top level switch of size 1, and 1 sub-sw
      +                          itches
  3046                           ; Switch size 1, requested type "simple"
  3047                           ; Number of cases is 1, Range of values is 0 to 0
  3048                           ; switch strategies available:
  3049                           ; Name         Instructions Cycles
  3050                           ; simple_byte            4     3 (average)
  3051                           ; direct_byte           11     8 (fixed)
  3052                           ; jumptable            260     6 (fixed)
  3053                           ;	Chosen strategy is simple_byte
  3054     0C91  0873               	movf	??_set_time+1,w
  3055     0C92  3A00               	xorlw	0	; case 0
  3056     0C93  1903               	skipnz
  3057     0C94  2C96               	goto	l5686
  3058     0C95  2D9F               	goto	l364
  3059     0C96                     l5686:
  3060                           
  3061                           ; Switch size 1, requested type "simple"
  3062                           ; Number of cases is 5, Range of values is 0 to 4
  3063                           ; switch strategies available:
  3064                           ; Name         Instructions Cycles
  3065                           ; simple_byte           16     9 (average)
  3066                           ; direct_byte           23     8 (fixed)
  3067                           ; jumptable            260     6 (fixed)
  3068                           ;	Chosen strategy is simple_byte
  3069     0C96  0872               	movf	??_set_time,w
  3070     0C97  3A00               	xorlw	0	; case 0
  3071     0C98  1903               	skipnz
  3072     0C99  2C2B               	goto	l4474
  3073     0C9A  3A01               	xorlw	1	; case 1
  3074     0C9B  1903               	skipnz
  3075     0C9C  2C2B               	goto	l4474
  3076     0C9D  3A03               	xorlw	3	; case 2
  3077     0C9E  1903               	skipnz
  3078     0C9F  2C2B               	goto	l4474
  3079     0CA0  3A01               	xorlw	1	; case 3
  3080     0CA1  1903               	skipnz
  3081     0CA2  2C8A               	goto	l4498
  3082     0CA3  3A07               	xorlw	7	; case 4
  3083     0CA4  1903               	skipnz
  3084     0CA5  2C8A               	goto	l4498
  3085     0CA6  2D9F               	goto	l364
  3086     0CA7                     l321:	
  3087                           ;washing_machine_function_def.c: 335:                 case 3:
  3088                           
  3089     0CA7                     l4506:
  3090                           
  3091                           ;washing_machine_function_def.c: 337:                     min=0;
  3092     0CA7  1283               	bcf	3,5	;RP0=0, select bank0
  3093     0CA8  1303               	bcf	3,6	;RP1=0, select bank0
  3094     0CA9  01E9               	clrf	_min
  3095     0CAA                     l4508:
  3096                           
  3097                           ;washing_machine_function_def.c: 338:                     sec=29;
  3098     0CAA  301D               	movlw	29
  3099     0CAB  00E7               	movwf	_sec
  3100                           
  3101                           ;washing_machine_function_def.c: 339:                     break;
  3102     0CAC  2D9F               	goto	l364
  3103     0CAD                     l4512:
  3104     0CAD  0879               	movf	_level,w
  3105     0CAE  00F2               	movwf	??_set_time
  3106     0CAF  01F3               	clrf	??_set_time+1
  3107                           
  3108                           ; Switch on 2 bytes has been partitioned into a top level switch of size 1, and 1 sub-sw
      +                          itches
  3109                           ; Switch size 1, requested type "simple"
  3110                           ; Number of cases is 1, Range of values is 0 to 0
  3111                           ; switch strategies available:
  3112                           ; Name         Instructions Cycles
  3113                           ; simple_byte            4     3 (average)
  3114                           ; direct_byte           11     8 (fixed)
  3115                           ; jumptable            260     6 (fixed)
  3116                           ;	Chosen strategy is simple_byte
  3117     0CB0  0873               	movf	??_set_time+1,w
  3118     0CB1  3A00               	xorlw	0	; case 0
  3119     0CB2  1903               	skipnz
  3120     0CB3  2CB5               	goto	l5688
  3121     0CB4  2D9F               	goto	l364
  3122     0CB5                     l5688:
  3123                           
  3124                           ; Switch size 1, requested type "simple"
  3125                           ; Number of cases is 5, Range of values is 0 to 4
  3126                           ; switch strategies available:
  3127                           ; Name         Instructions Cycles
  3128                           ; simple_byte           16     9 (average)
  3129                           ; direct_byte           23     8 (fixed)
  3130                           ; jumptable            260     6 (fixed)
  3131                           ;	Chosen strategy is simple_byte
  3132     0CB5  0872               	movf	??_set_time,w
  3133     0CB6  3A00               	xorlw	0	; case 0
  3134     0CB7  1903               	skipnz
  3135     0CB8  2CA7               	goto	l321
  3136     0CB9  3A01               	xorlw	1	; case 1
  3137     0CBA  1903               	skipnz
  3138     0CBB  2CA7               	goto	l4506
  3139     0CBC  3A03               	xorlw	3	; case 2
  3140     0CBD  1903               	skipnz
  3141     0CBE  2CA7               	goto	l4506
  3142     0CBF  3A01               	xorlw	1	; case 3
  3143     0CC0  1903               	skipnz
  3144     0CC1  2CA7               	goto	l4506
  3145     0CC2  3A07               	xorlw	7	; case 4
  3146     0CC3  1903               	skipnz
  3147     0CC4  2CA7               	goto	l4506
  3148     0CC5  2D9F               	goto	l364
  3149     0CC6                     l4514:
  3150                           
  3151                           ;washing_machine_function_def.c: 346:                     sec=46;
  3152     0CC6  302E               	movlw	46
  3153     0CC7  1283               	bcf	3,5	;RP0=0, select bank0
  3154     0CC8  1303               	bcf	3,6	;RP1=0, select bank0
  3155     0CC9  00E7               	movwf	_sec
  3156     0CCA                     l4516:
  3157                           
  3158                           ;washing_machine_function_def.c: 347:                     min=0;
  3159     0CCA  01E9               	clrf	_min
  3160                           
  3161                           ;washing_machine_function_def.c: 348:                     break;
  3162     0CCB  2D9F               	goto	l364
  3163     0CCC                     l4518:
  3164                           
  3165                           ;washing_machine_function_def.c: 351:                     min=0;
  3166     0CCC  1283               	bcf	3,5	;RP0=0, select bank0
  3167     0CCD  1303               	bcf	3,6	;RP1=0, select bank0
  3168     0CCE  01E9               	clrf	_min
  3169     0CCF                     l4520:
  3170                           
  3171                           ;washing_machine_function_def.c: 352:                     sec=53;
  3172     0CCF  3035               	movlw	53
  3173     0CD0  00E7               	movwf	_sec
  3174                           
  3175                           ;washing_machine_function_def.c: 353:                     break;
  3176     0CD1  2D9F               	goto	l364
  3177     0CD2                     l331:	
  3178                           ;washing_machine_function_def.c: 355:                 case 4:
  3179                           
  3180                           
  3181                           ;washing_machine_function_def.c: 356:                     min=1;
  3182     0CD2  1283               	bcf	3,5	;RP0=0, select bank0
  3183     0CD3  1303               	bcf	3,6	;RP1=0, select bank0
  3184     0CD4  01E9               	clrf	_min
  3185     0CD5  0AE9               	incf	_min,f
  3186     0CD6                     l4522:
  3187                           
  3188                           ;washing_machine_function_def.c: 357:                     sec=0;
  3189     0CD6  01E7               	clrf	_sec
  3190                           
  3191                           ;washing_machine_function_def.c: 358:                     break;
  3192     0CD7  2D9F               	goto	l364
  3193     0CD8                     l4526:
  3194     0CD8  0879               	movf	_level,w
  3195     0CD9  00F2               	movwf	??_set_time
  3196     0CDA  01F3               	clrf	??_set_time+1
  3197                           
  3198                           ; Switch on 2 bytes has been partitioned into a top level switch of size 1, and 1 sub-sw
      +                          itches
  3199                           ; Switch size 1, requested type "simple"
  3200                           ; Number of cases is 1, Range of values is 0 to 0
  3201                           ; switch strategies available:
  3202                           ; Name         Instructions Cycles
  3203                           ; simple_byte            4     3 (average)
  3204                           ; direct_byte           11     8 (fixed)
  3205                           ; jumptable            260     6 (fixed)
  3206                           ;	Chosen strategy is simple_byte
  3207     0CDB  0873               	movf	??_set_time+1,w
  3208     0CDC  3A00               	xorlw	0	; case 0
  3209     0CDD  1903               	skipnz
  3210     0CDE  2CE0               	goto	l5690
  3211     0CDF  2D9F               	goto	l364
  3212     0CE0                     l5690:
  3213                           
  3214                           ; Switch size 1, requested type "simple"
  3215                           ; Number of cases is 5, Range of values is 0 to 4
  3216                           ; switch strategies available:
  3217                           ; Name         Instructions Cycles
  3218                           ; simple_byte           16     9 (average)
  3219                           ; direct_byte           23     8 (fixed)
  3220                           ; jumptable            260     6 (fixed)
  3221                           ;	Chosen strategy is simple_byte
  3222     0CE0  0872               	movf	??_set_time,w
  3223     0CE1  3A00               	xorlw	0	; case 0
  3224     0CE2  1903               	skipnz
  3225     0CE3  2CCC               	goto	l4518
  3226     0CE4  3A01               	xorlw	1	; case 1
  3227     0CE5  1903               	skipnz
  3228     0CE6  2CC6               	goto	l4514
  3229     0CE7  3A03               	xorlw	3	; case 2
  3230     0CE8  1903               	skipnz
  3231     0CE9  2CCC               	goto	l4518
  3232     0CEA  3A01               	xorlw	1	; case 3
  3233     0CEB  1903               	skipnz
  3234     0CEC  2CD2               	goto	l331
  3235     0CED  3A07               	xorlw	7	; case 4
  3236     0CEE  1903               	skipnz
  3237     0CEF  2CD2               	goto	l331
  3238     0CF0  2D9F               	goto	l364
  3239     0CF1                     l4528:
  3240                           
  3241                           ;washing_machine_function_def.c: 365:                     min=0;
  3242     0CF1  1283               	bcf	3,5	;RP0=0, select bank0
  3243     0CF2  1303               	bcf	3,6	;RP1=0, select bank0
  3244     0CF3  01E9               	clrf	_min
  3245     0CF4                     l4530:
  3246                           
  3247                           ;washing_machine_function_def.c: 366:                     sec=18;
  3248     0CF4  3012               	movlw	18
  3249     0CF5  00E7               	movwf	_sec
  3250                           
  3251                           ;washing_machine_function_def.c: 367:                     break;
  3252     0CF6  2D9F               	goto	l364
  3253     0CF7                     l338:	
  3254                           ;washing_machine_function_def.c: 370:                 case 3:
  3255                           
  3256     0CF7                     l4532:
  3257                           
  3258                           ;washing_machine_function_def.c: 372:                     min=0;
  3259     0CF7  1283               	bcf	3,5	;RP0=0, select bank0
  3260     0CF8  1303               	bcf	3,6	;RP1=0, select bank0
  3261     0CF9  01E9               	clrf	_min
  3262     0CFA                     l4534:
  3263                           
  3264                           ;washing_machine_function_def.c: 373:                     sec=20;
  3265     0CFA  3014               	movlw	20
  3266     0CFB  00E7               	movwf	_sec
  3267                           
  3268                           ;washing_machine_function_def.c: 374:                     break;
  3269     0CFC  2D9F               	goto	l364
  3270     0CFD                     l4538:
  3271     0CFD  0879               	movf	_level,w
  3272     0CFE  00F2               	movwf	??_set_time
  3273     0CFF  01F3               	clrf	??_set_time+1
  3274                           
  3275                           ; Switch on 2 bytes has been partitioned into a top level switch of size 1, and 1 sub-sw
      +                          itches
  3276                           ; Switch size 1, requested type "simple"
  3277                           ; Number of cases is 1, Range of values is 0 to 0
  3278                           ; switch strategies available:
  3279                           ; Name         Instructions Cycles
  3280                           ; simple_byte            4     3 (average)
  3281                           ; direct_byte           11     8 (fixed)
  3282                           ; jumptable            260     6 (fixed)
  3283                           ;	Chosen strategy is simple_byte
  3284     0D00  0873               	movf	??_set_time+1,w
  3285     0D01  3A00               	xorlw	0	; case 0
  3286     0D02  1903               	skipnz
  3287     0D03  2D05               	goto	l5692
  3288     0D04  2D9F               	goto	l364
  3289     0D05                     l5692:
  3290                           
  3291                           ; Switch size 1, requested type "simple"
  3292                           ; Number of cases is 5, Range of values is 0 to 4
  3293                           ; switch strategies available:
  3294                           ; Name         Instructions Cycles
  3295                           ; simple_byte           16     9 (average)
  3296                           ; direct_byte           23     8 (fixed)
  3297                           ; jumptable            260     6 (fixed)
  3298                           ;	Chosen strategy is simple_byte
  3299     0D05  0872               	movf	??_set_time,w
  3300     0D06  3A00               	xorlw	0	; case 0
  3301     0D07  1903               	skipnz
  3302     0D08  2CF7               	goto	l338
  3303     0D09  3A01               	xorlw	1	; case 1
  3304     0D0A  1903               	skipnz
  3305     0D0B  2CF1               	goto	l4528
  3306     0D0C  3A03               	xorlw	3	; case 2
  3307     0D0D  1903               	skipnz
  3308     0D0E  2CF7               	goto	l4532
  3309     0D0F  3A01               	xorlw	1	; case 3
  3310     0D10  1903               	skipnz
  3311     0D11  2CF7               	goto	l4532
  3312     0D12  3A07               	xorlw	7	; case 4
  3313     0D13  1903               	skipnz
  3314     0D14  2CF7               	goto	l4532
  3315     0D15  2D9F               	goto	l364
  3316     0D16                     l345:	
  3317                           ;washing_machine_function_def.c: 383:                 case 3:
  3318                           
  3319     0D16                     l4540:
  3320                           
  3321                           ;washing_machine_function_def.c: 385:                     min=0;
  3322     0D16  1283               	bcf	3,5	;RP0=0, select bank0
  3323     0D17  1303               	bcf	3,6	;RP1=0, select bank0
  3324     0D18  01E9               	clrf	_min
  3325     0D19                     l4542:
  3326                           
  3327                           ;washing_machine_function_def.c: 386:                     sec=6;
  3328     0D19  3006               	movlw	6
  3329     0D1A  00E7               	movwf	_sec
  3330                           
  3331                           ;washing_machine_function_def.c: 387:                     break;
  3332     0D1B  2D9F               	goto	l364
  3333     0D1C                     l4546:
  3334     0D1C  0879               	movf	_level,w
  3335     0D1D  00F2               	movwf	??_set_time
  3336     0D1E  01F3               	clrf	??_set_time+1
  3337                           
  3338                           ; Switch on 2 bytes has been partitioned into a top level switch of size 1, and 1 sub-sw
      +                          itches
  3339                           ; Switch size 1, requested type "simple"
  3340                           ; Number of cases is 1, Range of values is 0 to 0
  3341                           ; switch strategies available:
  3342                           ; Name         Instructions Cycles
  3343                           ; simple_byte            4     3 (average)
  3344                           ; direct_byte           11     8 (fixed)
  3345                           ; jumptable            260     6 (fixed)
  3346                           ;	Chosen strategy is simple_byte
  3347     0D1F  0873               	movf	??_set_time+1,w
  3348     0D20  3A00               	xorlw	0	; case 0
  3349     0D21  1903               	skipnz
  3350     0D22  2D24               	goto	l5694
  3351     0D23  2D9F               	goto	l364
  3352     0D24                     l5694:
  3353                           
  3354                           ; Switch size 1, requested type "simple"
  3355                           ; Number of cases is 5, Range of values is 0 to 4
  3356                           ; switch strategies available:
  3357                           ; Name         Instructions Cycles
  3358                           ; simple_byte           16     9 (average)
  3359                           ; direct_byte           23     8 (fixed)
  3360                           ; jumptable            260     6 (fixed)
  3361                           ;	Chosen strategy is simple_byte
  3362     0D24  0872               	movf	??_set_time,w
  3363     0D25  3A00               	xorlw	0	; case 0
  3364     0D26  1903               	skipnz
  3365     0D27  2D16               	goto	l345
  3366     0D28  3A01               	xorlw	1	; case 1
  3367     0D29  1903               	skipnz
  3368     0D2A  2D16               	goto	l4540
  3369     0D2B  3A03               	xorlw	3	; case 2
  3370     0D2C  1903               	skipnz
  3371     0D2D  2D16               	goto	l4540
  3372     0D2E  3A01               	xorlw	1	; case 3
  3373     0D2F  1903               	skipnz
  3374     0D30  2D16               	goto	l4540
  3375     0D31  3A07               	xorlw	7	; case 4
  3376     0D32  1903               	skipnz
  3377     0D33  2D16               	goto	l4540
  3378     0D34  2D9F               	goto	l364
  3379     0D35                     l4548:
  3380                           
  3381                           ;washing_machine_function_def.c: 394:                     min=0;
  3382     0D35  1283               	bcf	3,5	;RP0=0, select bank0
  3383     0D36  1303               	bcf	3,6	;RP1=0, select bank0
  3384     0D37  01E9               	clrf	_min
  3385     0D38  2C4E               	goto	l4482
  3386     0D39                     l4552:
  3387                           
  3388                           ;washing_machine_function_def.c: 399:                     sec=21;
  3389     0D39  3015               	movlw	21
  3390     0D3A  1283               	bcf	3,5	;RP0=0, select bank0
  3391     0D3B  1303               	bcf	3,6	;RP1=0, select bank0
  3392     0D3C  00E7               	movwf	_sec
  3393     0D3D  2CCA               	goto	l4516
  3394     0D3E                     l4562:
  3395     0D3E  0879               	movf	_level,w
  3396     0D3F  00F2               	movwf	??_set_time
  3397     0D40  01F3               	clrf	??_set_time+1
  3398                           
  3399                           ; Switch on 2 bytes has been partitioned into a top level switch of size 1, and 1 sub-sw
      +                          itches
  3400                           ; Switch size 1, requested type "simple"
  3401                           ; Number of cases is 1, Range of values is 0 to 0
  3402                           ; switch strategies available:
  3403                           ; Name         Instructions Cycles
  3404                           ; simple_byte            4     3 (average)
  3405                           ; direct_byte           11     8 (fixed)
  3406                           ; jumptable            260     6 (fixed)
  3407                           ;	Chosen strategy is simple_byte
  3408     0D41  0873               	movf	??_set_time+1,w
  3409     0D42  3A00               	xorlw	0	; case 0
  3410     0D43  1903               	skipnz
  3411     0D44  2D46               	goto	l5696
  3412     0D45  2D9F               	goto	l364
  3413     0D46                     l5696:
  3414                           
  3415                           ; Switch size 1, requested type "simple"
  3416                           ; Number of cases is 5, Range of values is 0 to 4
  3417                           ; switch strategies available:
  3418                           ; Name         Instructions Cycles
  3419                           ; simple_byte           16     9 (average)
  3420                           ; direct_byte           23     8 (fixed)
  3421                           ; jumptable            260     6 (fixed)
  3422                           ;	Chosen strategy is simple_byte
  3423     0D46  0872               	movf	??_set_time,w
  3424     0D47  3A00               	xorlw	0	; case 0
  3425     0D48  1903               	skipnz
  3426     0D49  2D39               	goto	l4552
  3427     0D4A  3A01               	xorlw	1	; case 1
  3428     0D4B  1903               	skipnz
  3429     0D4C  2D35               	goto	l4548
  3430     0D4D  3A03               	xorlw	3	; case 2
  3431     0D4E  1903               	skipnz
  3432     0D4F  2D39               	goto	l4552
  3433     0D50  3A01               	xorlw	1	; case 3
  3434     0D51  1903               	skipnz
  3435     0D52  2C25               	goto	l4470
  3436     0D53  3A07               	xorlw	7	; case 4
  3437     0D54  1903               	skipnz
  3438     0D55  2C25               	goto	l4470
  3439     0D56  2D9F               	goto	l364
  3440     0D57                     l361:	
  3441                           ;washing_machine_function_def.c: 415:                 case 3:
  3442                           
  3443     0D57  2BFA               	goto	l4450
  3444     0D58                     l4570:
  3445     0D58  0879               	movf	_level,w
  3446     0D59  00F2               	movwf	??_set_time
  3447     0D5A  01F3               	clrf	??_set_time+1
  3448                           
  3449                           ; Switch on 2 bytes has been partitioned into a top level switch of size 1, and 1 sub-sw
      +                          itches
  3450                           ; Switch size 1, requested type "simple"
  3451                           ; Number of cases is 1, Range of values is 0 to 0
  3452                           ; switch strategies available:
  3453                           ; Name         Instructions Cycles
  3454                           ; simple_byte            4     3 (average)
  3455                           ; direct_byte           11     8 (fixed)
  3456                           ; jumptable            260     6 (fixed)
  3457                           ;	Chosen strategy is simple_byte
  3458     0D5B  0873               	movf	??_set_time+1,w
  3459     0D5C  3A00               	xorlw	0	; case 0
  3460     0D5D  1903               	skipnz
  3461     0D5E  2D60               	goto	l5698
  3462     0D5F  2D9F               	goto	l364
  3463     0D60                     l5698:
  3464                           
  3465                           ; Switch size 1, requested type "simple"
  3466                           ; Number of cases is 5, Range of values is 0 to 4
  3467                           ; switch strategies available:
  3468                           ; Name         Instructions Cycles
  3469                           ; simple_byte           16     9 (average)
  3470                           ; direct_byte           23     8 (fixed)
  3471                           ; jumptable            260     6 (fixed)
  3472                           ;	Chosen strategy is simple_byte
  3473     0D60  0872               	movf	??_set_time,w
  3474     0D61  3A00               	xorlw	0	; case 0
  3475     0D62  1903               	skipnz
  3476     0D63  2D57               	goto	l361
  3477     0D64  3A01               	xorlw	1	; case 1
  3478     0D65  1903               	skipnz
  3479     0D66  2BFA               	goto	l4450
  3480     0D67  3A03               	xorlw	3	; case 2
  3481     0D68  1903               	skipnz
  3482     0D69  2BFA               	goto	l4450
  3483     0D6A  3A01               	xorlw	1	; case 3
  3484     0D6B  1903               	skipnz
  3485     0D6C  2BFA               	goto	l4450
  3486     0D6D  3A07               	xorlw	7	; case 4
  3487     0D6E  1903               	skipnz
  3488     0D6F  2BFA               	goto	l4450
  3489     0D70  2D9F               	goto	l364
  3490     0D71                     l4574:
  3491     0D71  087A               	movf	_program_no,w
  3492     0D72  00F2               	movwf	??_set_time
  3493     0D73  01F3               	clrf	??_set_time+1
  3494                           
  3495                           ; Switch on 2 bytes has been partitioned into a top level switch of size 1, and 1 sub-sw
      +                          itches
  3496                           ; Switch size 1, requested type "simple"
  3497                           ; Number of cases is 1, Range of values is 0 to 0
  3498                           ; switch strategies available:
  3499                           ; Name         Instructions Cycles
  3500                           ; simple_byte            4     3 (average)
  3501                           ; direct_byte           11     8 (fixed)
  3502                           ; jumptable            260     6 (fixed)
  3503                           ;	Chosen strategy is simple_byte
  3504     0D74  0873               	movf	??_set_time+1,w
  3505     0D75  3A00               	xorlw	0	; case 0
  3506     0D76  1903               	skipnz
  3507     0D77  2D79               	goto	l5700
  3508     0D78  2D9F               	goto	l364
  3509     0D79                     l5700:
  3510                           
  3511                           ; Switch size 1, requested type "simple"
  3512                           ; Number of cases is 12, Range of values is 0 to 11
  3513                           ; switch strategies available:
  3514                           ; Name         Instructions Cycles
  3515                           ; simple_byte           37    19 (average)
  3516                           ; direct_byte           44     8 (fixed)
  3517                           ; jumptable            260     6 (fixed)
  3518                           ;	Chosen strategy is simple_byte
  3519     0D79  0872               	movf	??_set_time,w
  3520     0D7A  3A00               	xorlw	0	; case 0
  3521     0D7B  1903               	skipnz
  3522     0D7C  2BE1               	goto	l4448
  3523     0D7D  3A01               	xorlw	1	; case 1
  3524     0D7E  1903               	skipnz
  3525     0D7F  2C0C               	goto	l4468
  3526     0D80  3A03               	xorlw	3	; case 2
  3527     0D81  1903               	skipnz
  3528     0D82  2C31               	goto	l4480
  3529     0D83  3A01               	xorlw	1	; case 3
  3530     0D84  1903               	skipnz
  3531     0D85  2C51               	goto	l4486
  3532     0D86  3A07               	xorlw	7	; case 4
  3533     0D87  1903               	skipnz
  3534     0D88  2C71               	goto	l4492
  3535     0D89  3A01               	xorlw	1	; case 5
  3536     0D8A  1903               	skipnz
  3537     0D8B  2C8E               	goto	l4504
  3538     0D8C  3A03               	xorlw	3	; case 6
  3539     0D8D  1903               	skipnz
  3540     0D8E  2CAD               	goto	l4512
  3541     0D8F  3A01               	xorlw	1	; case 7
  3542     0D90  1903               	skipnz
  3543     0D91  2CD8               	goto	l4526
  3544     0D92  3A0F               	xorlw	15	; case 8
  3545     0D93  1903               	skipnz
  3546     0D94  2CFD               	goto	l4538
  3547     0D95  3A01               	xorlw	1	; case 9
  3548     0D96  1903               	skipnz
  3549     0D97  2D1C               	goto	l4546
  3550     0D98  3A03               	xorlw	3	; case 10
  3551     0D99  1903               	skipnz
  3552     0D9A  2D3E               	goto	l4562
  3553     0D9B  3A01               	xorlw	1	; case 11
  3554     0D9C  1903               	skipnz
  3555     0D9D  2D58               	goto	l4570
  3556     0D9E  2D9F               	goto	l364
  3557     0D9F                     l364:
  3558     0D9F  0008               	return
  3559     0DA0                     __end_of_set_time:
  3560                           
  3561                           	psect	text4
  3562     0049                     __ptext4:	
  3563 ;; *************** function _run_program *****************
  3564 ;; Defined at:
  3565 ;;		line 90 in file "washing_machine_function_def.c"
  3566 ;; Parameters:    Size  Location     Type
  3567 ;;  key             1    wreg     unsigned char 
  3568 ;; Auto vars:     Size  Location     Type
  3569 ;;  key             1   62[BANK0 ] unsigned char 
  3570 ;; Return value:  Size  Location     Type
  3571 ;;                  1    wreg      void 
  3572 ;; Registers used:
  3573 ;;		wreg, fsr0l, fsr0h, status,2, status,0, btemp+1, pclath, cstack
  3574 ;; Tracked objects:
  3575 ;;		On entry : 0/0
  3576 ;;		On exit  : 0/0
  3577 ;;		Unchanged: 0/0
  3578 ;; Data sizes:     COMMON   BANK0   BANK1   BANK3   BANK2
  3579 ;;      Params:         0       0       0       0       0
  3580 ;;      Locals:         0       1       0       0       0
  3581 ;;      Temps:          0       6       0       0       0
  3582 ;;      Totals:         0       7       0       0       0
  3583 ;;Total ram usage:        7 bytes
  3584 ;; Hardware stack levels used: 1
  3585 ;; Hardware stack levels required when called: 4
  3586 ;; This function calls:
  3587 ;;		___awdiv
  3588 ;;		___awmod
  3589 ;;		___flge
  3590 ;;		___flmul
  3591 ;;		___flsub
  3592 ;;		___fltol
  3593 ;;		___wmul
  3594 ;;		___xxtofl
  3595 ;;		_clcd_print
  3596 ;;		_clcd_putch
  3597 ;;		_clear_screen
  3598 ;;		_door_status_check
  3599 ;; This function is called by:
  3600 ;;		_main
  3601 ;; This function uses a non-reentrant model
  3602 ;;
  3603                           
  3604     0049                     _run_program:	
  3605                           ;psect for function _run_program
  3606                           
  3607                           
  3608                           ;incstack = 0
  3609                           ; Regs used in _run_program: [wreg-fsr0h+status,2+status,0+btemp+1+pclath+cstack]
  3610                           ;run_program@key stored from wreg
  3611     0049  1283               	bcf	3,5	;RP0=0, select bank0
  3612     004A  1303               	bcf	3,6	;RP1=0, select bank0
  3613     004B  00DE               	movwf	run_program@key
  3614     004C                     l5202:
  3615                           
  3616                           ;washing_machine_function_def.c: 90: void run_program(unsigned char key);washing_machine
      +                          _function_def.c: 91: {;washing_machine_function_def.c: 92:     door_status_check();
  3617     004C  160A  118A  2684  120A  118A  	fcall	_door_status_check
  3618     0051                     l5204:
  3619                           
  3620                           ;washing_machine_function_def.c: 94:     if(reset_flag==0x33)
  3621     0051  3033               	movlw	51
  3622     0052  1283               	bcf	3,5	;RP0=0, select bank0
  3623     0053  1303               	bcf	3,6	;RP1=0, select bank0
  3624     0054  066B               	xorwf	_reset_flag,w
  3625     0055  1D03               	btfss	3,2
  3626     0056  2858               	goto	u5541
  3627     0057  2859               	goto	u5540
  3628     0058                     u5541:
  3629     0058  2A2B               	goto	l5248
  3630     0059                     u5540:
  3631     0059                     l5206:
  3632                           
  3633                           ;washing_machine_function_def.c: 95:     {;washing_machine_function_def.c: 96:         c
      +                          lear_screen();
  3634     0059  160A  118A  23AE  120A  118A  	fcall	_clear_screen
  3635     005E                     l5208:
  3636                           
  3637                           ;washing_machine_function_def.c: 97:         clcd_print("Prog:",(0x80 + 0));
  3638     005E  3050               	movlw	low (STR_28| (0+32768))
  3639     005F  1283               	bcf	3,5	;RP0=0, select bank0
  3640     0060  1303               	bcf	3,6	;RP1=0, select bank0
  3641     0061  00A0               	movwf	clcd_print@str
  3642     0062  3091               	movlw	high (STR_28| (0+32768))
  3643     0063  00A1               	movwf	clcd_print@str+1
  3644     0064  3080               	movlw	128
  3645     0065  00A2               	movwf	clcd_print@addr
  3646     0066  160A  118A  24A2  120A  118A  	fcall	_clcd_print
  3647     006B                     l5210:
  3648                           
  3649                           ;washing_machine_function_def.c: 98:         clcd_print(washing_program[program_no],(0x8
      +                          0 + 6));
  3650     006B  087A               	movf	_program_no,w
  3651     006C  1283               	bcf	3,5	;RP0=0, select bank0
  3652     006D  1303               	bcf	3,6	;RP1=0, select bank0
  3653     006E  00D8               	movwf	??_run_program
  3654     006F  0758               	addwf	??_run_program,w
  3655     0070  3EA0               	addlw	(low (_washing_program| 0))& (0+255)
  3656     0071  0084               	movwf	4
  3657     0072  1383               	bcf	3,7	;select IRP bank1
  3658     0073  0800               	movf	0,w
  3659     0074  00A0               	movwf	clcd_print@str
  3660     0075  0A84               	incf	4,f
  3661     0076  0800               	movf	0,w
  3662     0077  0384               	decf	4,f
  3663     0078  00A1               	movwf	clcd_print@str+1
  3664     0079  3086               	movlw	134
  3665     007A  00A2               	movwf	clcd_print@addr
  3666     007B  160A  118A  24A2  120A  118A  	fcall	_clcd_print
  3667     0080                     l5212:
  3668                           
  3669                           ;washing_machine_function_def.c: 99:         clcd_print("Time:",(0xC0 + 0));
  3670     0080  304A               	movlw	low (STR_29| (0+32768))
  3671     0081  1283               	bcf	3,5	;RP0=0, select bank0
  3672     0082  1303               	bcf	3,6	;RP1=0, select bank0
  3673     0083  00A0               	movwf	clcd_print@str
  3674     0084  3091               	movlw	high (STR_29| (0+32768))
  3675     0085  00A1               	movwf	clcd_print@str+1
  3676     0086  30C0               	movlw	192
  3677     0087  00A2               	movwf	clcd_print@addr
  3678     0088  160A  118A  24A2  120A  118A  	fcall	_clcd_print
  3679     008D                     l5214:
  3680                           
  3681                           ;washing_machine_function_def.c: 102:         clcd_putch(min/10 + '0',(0xC0 + 6));
  3682     008D  30C6               	movlw	198
  3683     008E  00F8               	movwf	clcd_putch@addr
  3684     008F  300A               	movlw	10
  3685     0090  00F2               	movwf	___awdiv@divisor
  3686     0091  3000               	movlw	0
  3687     0092  00F3               	movwf	___awdiv@divisor+1
  3688     0093  1283               	bcf	3,5	;RP0=0, select bank0
  3689     0094  1303               	bcf	3,6	;RP1=0, select bank0
  3690     0095  0869               	movf	_min,w
  3691     0096  00D8               	movwf	??_run_program
  3692     0097  01D9               	clrf	??_run_program+1
  3693     0098  0858               	movf	??_run_program,w
  3694     0099  00F4               	movwf	___awdiv@dividend
  3695     009A  0859               	movf	??_run_program+1,w
  3696     009B  00F5               	movwf	___awdiv@dividend+1
  3697     009C  160A  118A  261B  120A  118A  	fcall	___awdiv
  3698     00A1  0872               	movf	?___awdiv,w
  3699     00A2  3E30               	addlw	48
  3700     00A3  160A  118A  23BF  120A  118A  	fcall	_clcd_putch
  3701     00A8                     l5216:
  3702                           
  3703                           ;washing_machine_function_def.c: 103:         clcd_putch(min%10 + '0',(0xC0 + 7));
  3704     00A8  30C7               	movlw	199
  3705     00A9  00F8               	movwf	clcd_putch@addr
  3706     00AA  300A               	movlw	10
  3707     00AB  00F2               	movwf	___awmod@divisor
  3708     00AC  3000               	movlw	0
  3709     00AD  00F3               	movwf	___awmod@divisor+1
  3710     00AE  1283               	bcf	3,5	;RP0=0, select bank0
  3711     00AF  1303               	bcf	3,6	;RP1=0, select bank0
  3712     00B0  0869               	movf	_min,w
  3713     00B1  00D8               	movwf	??_run_program
  3714     00B2  01D9               	clrf	??_run_program+1
  3715     00B3  0858               	movf	??_run_program,w
  3716     00B4  00F4               	movwf	___awmod@dividend
  3717     00B5  0859               	movf	??_run_program+1,w
  3718     00B6  00F5               	movwf	___awmod@dividend+1
  3719     00B7  160A  118A  25C2  120A  118A  	fcall	___awmod
  3720     00BC  0872               	movf	?___awmod,w
  3721     00BD  3E30               	addlw	48
  3722     00BE  160A  118A  23BF  120A  118A  	fcall	_clcd_putch
  3723     00C3                     l5218:
  3724                           
  3725                           ;washing_machine_function_def.c: 104:         clcd_putch(':',(0xC0 + 8));
  3726     00C3  30C8               	movlw	200
  3727     00C4  00F8               	movwf	clcd_putch@addr
  3728     00C5  303A               	movlw	58
  3729     00C6  160A  118A  23BF  120A  118A  	fcall	_clcd_putch
  3730     00CB                     l5220:
  3731                           
  3732                           ;washing_machine_function_def.c: 106:         clcd_putch(sec/10 + '0',(0xC0 + 9));
  3733     00CB  30C9               	movlw	201
  3734     00CC  00F8               	movwf	clcd_putch@addr
  3735     00CD  300A               	movlw	10
  3736     00CE  00F2               	movwf	___awdiv@divisor
  3737     00CF  3000               	movlw	0
  3738     00D0  00F3               	movwf	___awdiv@divisor+1
  3739     00D1  1283               	bcf	3,5	;RP0=0, select bank0
  3740     00D2  1303               	bcf	3,6	;RP1=0, select bank0
  3741     00D3  0867               	movf	_sec,w
  3742     00D4  00D8               	movwf	??_run_program
  3743     00D5  01D9               	clrf	??_run_program+1
  3744     00D6  0858               	movf	??_run_program,w
  3745     00D7  00F4               	movwf	___awdiv@dividend
  3746     00D8  0859               	movf	??_run_program+1,w
  3747     00D9  00F5               	movwf	___awdiv@dividend+1
  3748     00DA  160A  118A  261B  120A  118A  	fcall	___awdiv
  3749     00DF  0872               	movf	?___awdiv,w
  3750     00E0  3E30               	addlw	48
  3751     00E1  160A  118A  23BF  120A  118A  	fcall	_clcd_putch
  3752     00E6                     l5222:
  3753                           
  3754                           ;washing_machine_function_def.c: 107:         clcd_putch(sec%10 + '0',(0xC0 + 10));
  3755     00E6  30CA               	movlw	202
  3756     00E7  00F8               	movwf	clcd_putch@addr
  3757     00E8  300A               	movlw	10
  3758     00E9  00F2               	movwf	___awmod@divisor
  3759     00EA  3000               	movlw	0
  3760     00EB  00F3               	movwf	___awmod@divisor+1
  3761     00EC  1283               	bcf	3,5	;RP0=0, select bank0
  3762     00ED  1303               	bcf	3,6	;RP1=0, select bank0
  3763     00EE  0867               	movf	_sec,w
  3764     00EF  00D8               	movwf	??_run_program
  3765     00F0  01D9               	clrf	??_run_program+1
  3766     00F1  0858               	movf	??_run_program,w
  3767     00F2  00F4               	movwf	___awmod@dividend
  3768     00F3  0859               	movf	??_run_program+1,w
  3769     00F4  00F5               	movwf	___awmod@dividend+1
  3770     00F5  160A  118A  25C2  120A  118A  	fcall	___awmod
  3771     00FA  0872               	movf	?___awmod,w
  3772     00FB  3E30               	addlw	48
  3773     00FC  160A  118A  23BF  120A  118A  	fcall	_clcd_putch
  3774     0101                     l5224:
  3775                           
  3776                           ;washing_machine_function_def.c: 108:         reset_flag=0xFF;
  3777     0101  30FF               	movlw	255
  3778     0102  1283               	bcf	3,5	;RP0=0, select bank0
  3779     0103  1303               	bcf	3,6	;RP1=0, select bank0
  3780     0104  00EB               	movwf	_reset_flag
  3781     0105                     l5226:
  3782                           
  3783                           ;washing_machine_function_def.c: 110:         _delay((unsigned long)((2000)*(20000000/40
      +                          00.0)));
  3784     0105  3033               	movlw	51
  3785     0106  1283               	bcf	3,5	;RP0=0, select bank0
  3786     0107  1303               	bcf	3,6	;RP1=0, select bank0
  3787     0108  00DA               	movwf	??_run_program+2
  3788     0109  30BB               	movlw	187
  3789     010A  00D9               	movwf	??_run_program+1
  3790     010B  30DF               	movlw	223
  3791     010C  00D8               	movwf	??_run_program
  3792     010D                     u5767:
  3793     010D  0BD8               	decfsz	??_run_program,f
  3794     010E  290D               	goto	u5767
  3795     010F  0BD9               	decfsz	??_run_program+1,f
  3796     0110  290D               	goto	u5767
  3797     0111  0BDA               	decfsz	??_run_program+2,f
  3798     0112  290D               	goto	u5767
  3799     0113                     l5228:
  3800                           
  3801                           ;washing_machine_function_def.c: 111:         clear_screen();
  3802     0113  160A  118A  23AE  120A  118A  	fcall	_clear_screen
  3803     0118                     l5230:
  3804                           
  3805                           ;washing_machine_function_def.c: 113:         clcd_print("Function: ",(0x80 + 0));
  3806     0118  30AE               	movlw	low (STR_30| (0+32768))
  3807     0119  1283               	bcf	3,5	;RP0=0, select bank0
  3808     011A  1303               	bcf	3,6	;RP1=0, select bank0
  3809     011B  00A0               	movwf	clcd_print@str
  3810     011C  3090               	movlw	high (STR_30| (0+32768))
  3811     011D  00A1               	movwf	clcd_print@str+1
  3812     011E  3080               	movlw	128
  3813     011F  00A2               	movwf	clcd_print@addr
  3814     0120  160A  118A  24A2  120A  118A  	fcall	_clcd_print
  3815     0125                     l5232:
  3816                           
  3817                           ;washing_machine_function_def.c: 114:         clcd_print("Time: ",(0xC0 + 0));
  3818     0125  3028               	movlw	low (STR_31| (0+32768))
  3819     0126  1283               	bcf	3,5	;RP0=0, select bank0
  3820     0127  1303               	bcf	3,6	;RP1=0, select bank0
  3821     0128  00A0               	movwf	clcd_print@str
  3822     0129  3091               	movlw	high (STR_31| (0+32768))
  3823     012A  00A1               	movwf	clcd_print@str+1
  3824     012B  30C0               	movlw	192
  3825     012C  00A2               	movwf	clcd_print@addr
  3826     012D  160A  118A  24A2  120A  118A  	fcall	_clcd_print
  3827     0132                     l5234:
  3828                           
  3829                           ;washing_machine_function_def.c: 115:         clcd_print("5:START 6:PAUSE",(0xD0+0));
  3830     0132  3021               	movlw	low (STR_32| (0+32768))
  3831     0133  1283               	bcf	3,5	;RP0=0, select bank0
  3832     0134  1303               	bcf	3,6	;RP1=0, select bank0
  3833     0135  00A0               	movwf	clcd_print@str
  3834     0136  3090               	movlw	high (STR_32| (0+32768))
  3835     0137  00A1               	movwf	clcd_print@str+1
  3836     0138  30D0               	movlw	208
  3837     0139  00A2               	movwf	clcd_print@addr
  3838     013A  160A  118A  24A2  120A  118A  	fcall	_clcd_print
  3839                           
  3840                           ;washing_machine_function_def.c: 117:         total_time = time = 60*min + sec;
  3841     013F  1283               	bcf	3,5	;RP0=0, select bank0
  3842     0140  1303               	bcf	3,6	;RP1=0, select bank0
  3843     0141  0869               	movf	_min,w
  3844     0142  00D8               	movwf	??_run_program
  3845     0143  01D9               	clrf	??_run_program+1
  3846     0144  0858               	movf	??_run_program,w
  3847     0145  00F2               	movwf	___wmul@multiplier
  3848     0146  0859               	movf	??_run_program+1,w
  3849     0147  00F3               	movwf	___wmul@multiplier+1
  3850     0148  303C               	movlw	60
  3851     0149  00F4               	movwf	___wmul@multiplicand
  3852     014A  3000               	movlw	0
  3853     014B  00F5               	movwf	___wmul@multiplicand+1
  3854     014C  160A  118A  2454  120A  118A  	fcall	___wmul
  3855     0151  1283               	bcf	3,5	;RP0=0, select bank0
  3856     0152  1303               	bcf	3,6	;RP1=0, select bank0
  3857     0153  0867               	movf	_sec,w
  3858     0154  0772               	addwf	?___wmul,w
  3859     0155  00E3               	movwf	_time
  3860     0156  3000               	movlw	0
  3861     0157  1803               	skipnc
  3862     0158  3001               	movlw	1
  3863     0159  0773               	addwf	?___wmul+1,w
  3864     015A  00E4               	movwf	_time+1
  3865     015B  0864               	movf	_time+1,w
  3866     015C  00E6               	movwf	_total_time+1
  3867     015D  0863               	movf	_time,w
  3868     015E  00E5               	movwf	_total_time
  3869     015F                     l5236:
  3870                           
  3871                           ;washing_machine_function_def.c: 118:         wash_time = (int)total_time*0.46;
  3872     015F  0865               	movf	_total_time,w
  3873     0160  00F2               	movwf	___xxtofl@val
  3874     0161  0866               	movf	_total_time+1,w
  3875     0162  00F3               	movwf	___xxtofl@val+1
  3876     0163  3000               	movlw	0
  3877     0164  1BF3               	btfsc	___xxtofl@val+1,7
  3878     0165  30FF               	movlw	255
  3879     0166  00F4               	movwf	___xxtofl@val+2
  3880     0167  00F5               	movwf	___xxtofl@val+3
  3881     0168  3001               	movlw	1
  3882     0169  120A  158A  20A7  120A  118A  	fcall	___xxtofl
  3883     016E  0875               	movf	?___xxtofl+3,w
  3884     016F  1283               	bcf	3,5	;RP0=0, select bank0
  3885     0170  1303               	bcf	3,6	;RP1=0, select bank0
  3886     0171  00B1               	movwf	___flmul@a+3
  3887     0172  0874               	movf	?___xxtofl+2,w
  3888     0173  00B0               	movwf	___flmul@a+2
  3889     0174  0873               	movf	?___xxtofl+1,w
  3890     0175  00AF               	movwf	___flmul@a+1
  3891     0176  0872               	movf	?___xxtofl,w
  3892     0177  00AE               	movwf	___flmul@a
  3893     0178  303E               	movlw	62
  3894     0179  00AD               	movwf	___flmul@b+3
  3895     017A  30EB               	movlw	235
  3896     017B  00AC               	movwf	___flmul@b+2
  3897     017C  3085               	movlw	133
  3898     017D  00AB               	movwf	___flmul@b+1
  3899     017E  301F               	movlw	31
  3900     017F  00AA               	movwf	___flmul@b
  3901     0180  120A  118A  2430  120A  118A  	fcall	___flmul
  3902     0185  1283               	bcf	3,5	;RP0=0, select bank0
  3903     0186  1303               	bcf	3,6	;RP1=0, select bank0
  3904     0187  082D               	movf	?___flmul+3,w
  3905     0188  00C7               	movwf	___fltol@f1+3
  3906     0189  082C               	movf	?___flmul+2,w
  3907     018A  00C6               	movwf	___fltol@f1+2
  3908     018B  082B               	movf	?___flmul+1,w
  3909     018C  00C5               	movwf	___fltol@f1+1
  3910     018D  082A               	movf	?___flmul,w
  3911     018E  00C4               	movwf	___fltol@f1
  3912     018F  120A  118A  2775  120A  118A  	fcall	___fltol
  3913     0194  1283               	bcf	3,5	;RP0=0, select bank0
  3914     0195  1303               	bcf	3,6	;RP1=0, select bank0
  3915     0196  0845               	movf	?___fltol+1,w
  3916     0197  1683               	bsf	3,5	;RP0=1, select bank1
  3917     0198  1303               	bcf	3,6	;RP1=0, select bank1
  3918     0199  00C7               	movwf	(_wash_time+1)^(0+128)
  3919     019A  1283               	bcf	3,5	;RP0=0, select bank0
  3920     019B  1303               	bcf	3,6	;RP1=0, select bank0
  3921     019C  0844               	movf	?___fltol,w
  3922     019D  1683               	bsf	3,5	;RP0=1, select bank1
  3923     019E  1303               	bcf	3,6	;RP1=0, select bank1
  3924     019F  00C6               	movwf	_wash_time^(0+128)
  3925     01A0                     l5238:
  3926                           
  3927                           ;washing_machine_function_def.c: 119:         rinse_time = (int)total_time*0.12;
  3928     01A0  1283               	bcf	3,5	;RP0=0, select bank0
  3929     01A1  1303               	bcf	3,6	;RP1=0, select bank0
  3930     01A2  0865               	movf	_total_time,w
  3931     01A3  00F2               	movwf	___xxtofl@val
  3932     01A4  0866               	movf	_total_time+1,w
  3933     01A5  00F3               	movwf	___xxtofl@val+1
  3934     01A6  3000               	movlw	0
  3935     01A7  1BF3               	btfsc	___xxtofl@val+1,7
  3936     01A8  30FF               	movlw	255
  3937     01A9  00F4               	movwf	___xxtofl@val+2
  3938     01AA  00F5               	movwf	___xxtofl@val+3
  3939     01AB  3001               	movlw	1
  3940     01AC  120A  158A  20A7  120A  118A  	fcall	___xxtofl
  3941     01B1  0875               	movf	?___xxtofl+3,w
  3942     01B2  1283               	bcf	3,5	;RP0=0, select bank0
  3943     01B3  1303               	bcf	3,6	;RP1=0, select bank0
  3944     01B4  00B1               	movwf	___flmul@a+3
  3945     01B5  0874               	movf	?___xxtofl+2,w
  3946     01B6  00B0               	movwf	___flmul@a+2
  3947     01B7  0873               	movf	?___xxtofl+1,w
  3948     01B8  00AF               	movwf	___flmul@a+1
  3949     01B9  0872               	movf	?___xxtofl,w
  3950     01BA  00AE               	movwf	___flmul@a
  3951     01BB  303D               	movlw	61
  3952     01BC  00AD               	movwf	___flmul@b+3
  3953     01BD  30F5               	movlw	245
  3954     01BE  00AC               	movwf	___flmul@b+2
  3955     01BF  30C2               	movlw	194
  3956     01C0  00AB               	movwf	___flmul@b+1
  3957     01C1  308F               	movlw	143
  3958     01C2  00AA               	movwf	___flmul@b
  3959     01C3  120A  118A  2430  120A  118A  	fcall	___flmul
  3960     01C8  1283               	bcf	3,5	;RP0=0, select bank0
  3961     01C9  1303               	bcf	3,6	;RP1=0, select bank0
  3962     01CA  082D               	movf	?___flmul+3,w
  3963     01CB  00C7               	movwf	___fltol@f1+3
  3964     01CC  082C               	movf	?___flmul+2,w
  3965     01CD  00C6               	movwf	___fltol@f1+2
  3966     01CE  082B               	movf	?___flmul+1,w
  3967     01CF  00C5               	movwf	___fltol@f1+1
  3968     01D0  082A               	movf	?___flmul,w
  3969     01D1  00C4               	movwf	___fltol@f1
  3970     01D2  120A  118A  2775  120A  118A  	fcall	___fltol
  3971     01D7  1283               	bcf	3,5	;RP0=0, select bank0
  3972     01D8  1303               	bcf	3,6	;RP1=0, select bank0
  3973     01D9  0845               	movf	?___fltol+1,w
  3974     01DA  1683               	bsf	3,5	;RP0=1, select bank1
  3975     01DB  1303               	bcf	3,6	;RP1=0, select bank1
  3976     01DC  00C5               	movwf	(_rinse_time+1)^(0+128)
  3977     01DD  1283               	bcf	3,5	;RP0=0, select bank0
  3978     01DE  1303               	bcf	3,6	;RP1=0, select bank0
  3979     01DF  0844               	movf	?___fltol,w
  3980     01E0  1683               	bsf	3,5	;RP0=1, select bank1
  3981     01E1  1303               	bcf	3,6	;RP1=0, select bank1
  3982     01E2  00C4               	movwf	_rinse_time^(0+128)
  3983     01E3                     l5240:
  3984                           
  3985                           ;washing_machine_function_def.c: 120:         spin_time = (int)total_time*0.42;
  3986     01E3  1283               	bcf	3,5	;RP0=0, select bank0
  3987     01E4  1303               	bcf	3,6	;RP1=0, select bank0
  3988     01E5  0865               	movf	_total_time,w
  3989     01E6  00F2               	movwf	___xxtofl@val
  3990     01E7  0866               	movf	_total_time+1,w
  3991     01E8  00F3               	movwf	___xxtofl@val+1
  3992     01E9  3000               	movlw	0
  3993     01EA  1BF3               	btfsc	___xxtofl@val+1,7
  3994     01EB  30FF               	movlw	255
  3995     01EC  00F4               	movwf	___xxtofl@val+2
  3996     01ED  00F5               	movwf	___xxtofl@val+3
  3997     01EE  3001               	movlw	1
  3998     01EF  120A  158A  20A7  120A  118A  	fcall	___xxtofl
  3999     01F4  0875               	movf	?___xxtofl+3,w
  4000     01F5  1283               	bcf	3,5	;RP0=0, select bank0
  4001     01F6  1303               	bcf	3,6	;RP1=0, select bank0
  4002     01F7  00B1               	movwf	___flmul@a+3
  4003     01F8  0874               	movf	?___xxtofl+2,w
  4004     01F9  00B0               	movwf	___flmul@a+2
  4005     01FA  0873               	movf	?___xxtofl+1,w
  4006     01FB  00AF               	movwf	___flmul@a+1
  4007     01FC  0872               	movf	?___xxtofl,w
  4008     01FD  00AE               	movwf	___flmul@a
  4009     01FE  303E               	movlw	62
  4010     01FF  00AD               	movwf	___flmul@b+3
  4011     0200  30D7               	movlw	215
  4012     0201  00AC               	movwf	___flmul@b+2
  4013     0202  300A               	movlw	10
  4014     0203  00AB               	movwf	___flmul@b+1
  4015     0204  303D               	movlw	61
  4016     0205  00AA               	movwf	___flmul@b
  4017     0206  120A  118A  2430  120A  118A  	fcall	___flmul
  4018     020B  1283               	bcf	3,5	;RP0=0, select bank0
  4019     020C  1303               	bcf	3,6	;RP1=0, select bank0
  4020     020D  082D               	movf	?___flmul+3,w
  4021     020E  00C7               	movwf	___fltol@f1+3
  4022     020F  082C               	movf	?___flmul+2,w
  4023     0210  00C6               	movwf	___fltol@f1+2
  4024     0211  082B               	movf	?___flmul+1,w
  4025     0212  00C5               	movwf	___fltol@f1+1
  4026     0213  082A               	movf	?___flmul,w
  4027     0214  00C4               	movwf	___fltol@f1
  4028     0215  120A  118A  2775  120A  118A  	fcall	___fltol
  4029     021A  1283               	bcf	3,5	;RP0=0, select bank0
  4030     021B  1303               	bcf	3,6	;RP1=0, select bank0
  4031     021C  0845               	movf	?___fltol+1,w
  4032     021D  1683               	bsf	3,5	;RP0=1, select bank1
  4033     021E  1303               	bcf	3,6	;RP1=0, select bank1
  4034     021F  00C3               	movwf	(_spin_time+1)^(0+128)
  4035     0220  1283               	bcf	3,5	;RP0=0, select bank0
  4036     0221  1303               	bcf	3,6	;RP1=0, select bank0
  4037     0222  0844               	movf	?___fltol,w
  4038     0223  1683               	bsf	3,5	;RP0=1, select bank1
  4039     0224  1303               	bcf	3,6	;RP1=0, select bank1
  4040     0225  00C2               	movwf	_spin_time^(0+128)
  4041     0226                     l5242:
  4042                           
  4043                           ;washing_machine_function_def.c: 122:         TMR2=0;
  4044     0226  1283               	bcf	3,5	;RP0=0, select bank0
  4045     0227  1303               	bcf	3,6	;RP1=0, select bank0
  4046     0228  0191               	clrf	17	;volatile
  4047     0229                     l5244:
  4048                           
  4049                           ;washing_machine_function_def.c: 123:         TMR2ON=1;
  4050     0229  1512               	bsf	18,2	;volatile
  4051     022A                     l5246:
  4052                           
  4053                           ;washing_machine_function_def.c: 124:         RC2=1;
  4054     022A  1507               	bsf	7,2	;volatile
  4055     022B                     l5248:
  4056                           
  4057                           ;washing_machine_function_def.c: 126:     if(key==0x1F)
  4058     022B  301F               	movlw	31
  4059     022C  065E               	xorwf	run_program@key,w
  4060     022D  1D03               	btfss	3,2
  4061     022E  2A30               	goto	u5551
  4062     022F  2A31               	goto	u5550
  4063     0230                     u5551:
  4064     0230  2A35               	goto	l5254
  4065     0231                     u5550:
  4066     0231                     l5250:
  4067                           
  4068                           ;washing_machine_function_def.c: 127:     {;washing_machine_function_def.c: 129:        
      +                           TMR2ON=0;
  4069     0231  1112               	bcf	18,2	;volatile
  4070                           
  4071                           ;washing_machine_function_def.c: 130:         RC2=0;
  4072     0232  1107               	bcf	7,2	;volatile
  4073     0233                     l5252:
  4074                           
  4075                           ;washing_machine_function_def.c: 131:         operational_mode= 0x44;
  4076     0233  3044               	movlw	68
  4077     0234  00EC               	movwf	_operational_mode
  4078     0235                     l5254:
  4079                           
  4080                           ;washing_machine_function_def.c: 133:     total_time = 60*min + sec;
  4081     0235  0869               	movf	_min,w
  4082     0236  00D8               	movwf	??_run_program
  4083     0237  01D9               	clrf	??_run_program+1
  4084     0238  0858               	movf	??_run_program,w
  4085     0239  00F2               	movwf	___wmul@multiplier
  4086     023A  0859               	movf	??_run_program+1,w
  4087     023B  00F3               	movwf	___wmul@multiplier+1
  4088     023C  303C               	movlw	60
  4089     023D  00F4               	movwf	___wmul@multiplicand
  4090     023E  3000               	movlw	0
  4091     023F  00F5               	movwf	___wmul@multiplicand+1
  4092     0240  160A  118A  2454  120A  118A  	fcall	___wmul
  4093     0245  1283               	bcf	3,5	;RP0=0, select bank0
  4094     0246  1303               	bcf	3,6	;RP1=0, select bank0
  4095     0247  0867               	movf	_sec,w
  4096     0248  0772               	addwf	?___wmul,w
  4097     0249  00E5               	movwf	_total_time
  4098     024A  3000               	movlw	0
  4099     024B  1803               	skipnc
  4100     024C  3001               	movlw	1
  4101     024D  0773               	addwf	?___wmul+1,w
  4102     024E  00E6               	movwf	_total_time+1
  4103     024F                     l5256:
  4104                           
  4105                           ;washing_machine_function_def.c: 134:     if(program_no<=7)
  4106     024F  3008               	movlw	8
  4107     0250  027A               	subwf	_program_no,w
  4108     0251  1803               	skipnc
  4109     0252  2A54               	goto	u5561
  4110     0253  2A55               	goto	u5560
  4111     0254                     u5561:
  4112     0254  2AC4               	goto	l5268
  4113     0255                     u5560:
  4114     0255                     l5258:
  4115                           
  4116                           ;washing_machine_function_def.c: 135:     {;washing_machine_function_def.c: 136:        
      +                           if(total_time >= time-wash_time)
  4117     0255  1683               	bsf	3,5	;RP0=1, select bank1
  4118     0256  1303               	bcf	3,6	;RP1=0, select bank1
  4119     0257  0846               	movf	_wash_time^(0+128),w
  4120     0258  1283               	bcf	3,5	;RP0=0, select bank0
  4121     0259  1303               	bcf	3,6	;RP1=0, select bank0
  4122     025A  0263               	subwf	_time,w
  4123     025B  00D8               	movwf	??_run_program
  4124     025C  1683               	bsf	3,5	;RP0=1, select bank1
  4125     025D  1303               	bcf	3,6	;RP1=0, select bank1
  4126     025E  0847               	movf	(_wash_time+1)^(0+128),w
  4127     025F  1C03               	skipc
  4128     0260  0A47               	incf	(_wash_time+1)^(0+128),w
  4129     0261  1283               	bcf	3,5	;RP0=0, select bank0
  4130     0262  1303               	bcf	3,6	;RP1=0, select bank0
  4131     0263  0264               	subwf	_time+1,w
  4132     0264  00D9               	movwf	??_run_program+1
  4133     0265  0859               	movf	??_run_program+1,w
  4134     0266  0266               	subwf	_total_time+1,w
  4135     0267  1D03               	skipz
  4136     0268  2A6B               	goto	u5575
  4137     0269  0858               	movf	??_run_program,w
  4138     026A  0265               	subwf	_total_time,w
  4139     026B                     u5575:
  4140     026B  1C03               	skipc
  4141     026C  2A6E               	goto	u5571
  4142     026D  2A6F               	goto	u5570
  4143     026E                     u5571:
  4144     026E  2A7B               	goto	l5262
  4145     026F                     u5570:
  4146     026F                     l5260:
  4147                           
  4148                           ;washing_machine_function_def.c: 137:         {;washing_machine_function_def.c: 138:    
      +                                   clcd_print("WASH",(0x80 + 10));
  4149     026F  3068               	movlw	low (STR_33| (0+32768))
  4150     0270  00A0               	movwf	clcd_print@str
  4151     0271  3091               	movlw	high (STR_33| (0+32768))
  4152     0272  00A1               	movwf	clcd_print@str+1
  4153     0273  308A               	movlw	138
  4154     0274  00A2               	movwf	clcd_print@addr
  4155     0275  160A  118A  24A2  120A  118A  	fcall	_clcd_print
  4156                           
  4157                           ;washing_machine_function_def.c: 139:         }
  4158     027A  2B74               	goto	l5282
  4159     027B                     l5262:
  4160     027B  1683               	bsf	3,5	;RP0=1, select bank1
  4161     027C  1303               	bcf	3,6	;RP1=0, select bank1
  4162     027D  0946               	comf	_wash_time^(0+128),w
  4163     027E  1283               	bcf	3,5	;RP0=0, select bank0
  4164     027F  1303               	bcf	3,6	;RP1=0, select bank0
  4165     0280  00D8               	movwf	??_run_program
  4166     0281  1683               	bsf	3,5	;RP0=1, select bank1
  4167     0282  1303               	bcf	3,6	;RP1=0, select bank1
  4168     0283  0947               	comf	(_wash_time+1)^(0+128),w
  4169     0284  1283               	bcf	3,5	;RP0=0, select bank0
  4170     0285  1303               	bcf	3,6	;RP1=0, select bank0
  4171     0286  00D9               	movwf	??_run_program+1
  4172     0287  0AD8               	incf	??_run_program,f
  4173     0288  1903               	skipnz
  4174     0289  0AD9               	incf	??_run_program+1,f
  4175     028A  1683               	bsf	3,5	;RP0=1, select bank1
  4176     028B  1303               	bcf	3,6	;RP1=0, select bank1
  4177     028C  0842               	movf	_spin_time^(0+128),w
  4178     028D  1283               	bcf	3,5	;RP0=0, select bank0
  4179     028E  1303               	bcf	3,6	;RP1=0, select bank0
  4180     028F  0258               	subwf	??_run_program,w
  4181     0290  00DA               	movwf	??_run_program+2
  4182     0291  1683               	bsf	3,5	;RP0=1, select bank1
  4183     0292  1303               	bcf	3,6	;RP1=0, select bank1
  4184     0293  0843               	movf	(_spin_time+1)^(0+128),w
  4185     0294  1C03               	skipc
  4186     0295  0A43               	incf	(_spin_time+1)^(0+128),w
  4187     0296  1283               	bcf	3,5	;RP0=0, select bank0
  4188     0297  1303               	bcf	3,6	;RP1=0, select bank0
  4189     0298  0259               	subwf	??_run_program+1,w
  4190     0299  00DB               	movwf	??_run_program+3
  4191     029A  0863               	movf	_time,w
  4192     029B  075A               	addwf	??_run_program+2,w
  4193     029C  00DC               	movwf	??_run_program+4
  4194     029D  0864               	movf	_time+1,w
  4195     029E  1803               	skipnc
  4196     029F  0A64               	incf	_time+1,w
  4197     02A0  075B               	addwf	??_run_program+3,w
  4198     02A1  00DD               	movwf	??_run_program+5
  4199     02A2  085D               	movf	??_run_program+5,w
  4200     02A3  0266               	subwf	_total_time+1,w
  4201     02A4  1D03               	skipz
  4202     02A5  2AA8               	goto	u5585
  4203     02A6  085C               	movf	??_run_program+4,w
  4204     02A7  0265               	subwf	_total_time,w
  4205     02A8                     u5585:
  4206     02A8  1C03               	skipc
  4207     02A9  2AAB               	goto	u5581
  4208     02AA  2AAC               	goto	u5580
  4209     02AB                     u5581:
  4210     02AB  2AB8               	goto	l5266
  4211     02AC                     u5580:
  4212     02AC                     l5264:
  4213                           
  4214                           ;washing_machine_function_def.c: 141:         {;washing_machine_function_def.c: 142:    
      +                                   clcd_print("RINSE",(0x80 + 10));
  4215     02AC  3056               	movlw	low (STR_34| (0+32768))
  4216     02AD  00A0               	movwf	clcd_print@str
  4217     02AE  3091               	movlw	high (STR_34| (0+32768))
  4218     02AF  00A1               	movwf	clcd_print@str+1
  4219     02B0  308A               	movlw	138
  4220     02B1  00A2               	movwf	clcd_print@addr
  4221     02B2  160A  118A  24A2  120A  118A  	fcall	_clcd_print
  4222                           
  4223                           ;washing_machine_function_def.c: 143:         }
  4224     02B7  2B74               	goto	l5282
  4225     02B8                     l5266:
  4226                           
  4227                           ;washing_machine_function_def.c: 145:         {clcd_print("SPIN ",(0x80 + 10));
  4228     02B8  3044               	movlw	low (STR_35| (0+32768))
  4229     02B9  00A0               	movwf	clcd_print@str
  4230     02BA  3091               	movlw	high (STR_35| (0+32768))
  4231     02BB  00A1               	movwf	clcd_print@str+1
  4232     02BC  308A               	movlw	138
  4233     02BD  00A2               	movwf	clcd_print@addr
  4234     02BE  160A  118A  24A2  120A  118A  	fcall	_clcd_print
  4235     02C3  2B74               	goto	l5282
  4236     02C4                     l5268:
  4237     02C4  3008               	movlw	8
  4238     02C5  067A               	xorwf	_program_no,w
  4239     02C6  1D03               	btfss	3,2
  4240     02C7  2AC9               	goto	u5591
  4241     02C8  2ACA               	goto	u5590
  4242     02C9                     u5591:
  4243     02C9  2B57               	goto	l5276
  4244     02CA                     u5590:
  4245     02CA                     l5270:
  4246                           
  4247                           ;washing_machine_function_def.c: 150:     {;washing_machine_function_def.c: 151:        
      +                           if(total_time >= (time-(0.40*time)))
  4248     02CA  0865               	movf	_total_time,w
  4249     02CB  00F2               	movwf	___xxtofl@val
  4250     02CC  0866               	movf	_total_time+1,w
  4251     02CD  00F3               	movwf	___xxtofl@val+1
  4252     02CE  01F4               	clrf	___xxtofl@val+2
  4253     02CF  01F5               	clrf	___xxtofl@val+3
  4254     02D0  3000               	movlw	0
  4255     02D1  120A  158A  20A7  120A  118A  	fcall	___xxtofl
  4256     02D6  0875               	movf	?___xxtofl+3,w
  4257     02D7  1283               	bcf	3,5	;RP0=0, select bank0
  4258     02D8  1303               	bcf	3,6	;RP1=0, select bank0
  4259     02D9  00CF               	movwf	___flge@ff1+3
  4260     02DA  0874               	movf	?___xxtofl+2,w
  4261     02DB  00CE               	movwf	___flge@ff1+2
  4262     02DC  0873               	movf	?___xxtofl+1,w
  4263     02DD  00CD               	movwf	___flge@ff1+1
  4264     02DE  0872               	movf	?___xxtofl,w
  4265     02DF  00CC               	movwf	___flge@ff1
  4266     02E0  0863               	movf	_time,w
  4267     02E1  00F2               	movwf	___xxtofl@val
  4268     02E2  0864               	movf	_time+1,w
  4269     02E3  00F3               	movwf	___xxtofl@val+1
  4270     02E4  01F4               	clrf	___xxtofl@val+2
  4271     02E5  01F5               	clrf	___xxtofl@val+3
  4272     02E6  3000               	movlw	0
  4273     02E7  120A  158A  20A7  120A  118A  	fcall	___xxtofl
  4274     02EC  0875               	movf	?___xxtofl+3,w
  4275     02ED  1283               	bcf	3,5	;RP0=0, select bank0
  4276     02EE  1303               	bcf	3,6	;RP1=0, select bank0
  4277     02EF  00CB               	movwf	___flsub@b+3
  4278     02F0  0874               	movf	?___xxtofl+2,w
  4279     02F1  00CA               	movwf	___flsub@b+2
  4280     02F2  0873               	movf	?___xxtofl+1,w
  4281     02F3  00C9               	movwf	___flsub@b+1
  4282     02F4  0872               	movf	?___xxtofl,w
  4283     02F5  00C8               	movwf	___flsub@b
  4284     02F6  0863               	movf	_time,w
  4285     02F7  00F2               	movwf	___xxtofl@val
  4286     02F8  0864               	movf	_time+1,w
  4287     02F9  00F3               	movwf	___xxtofl@val+1
  4288     02FA  01F4               	clrf	___xxtofl@val+2
  4289     02FB  01F5               	clrf	___xxtofl@val+3
  4290     02FC  3000               	movlw	0
  4291     02FD  120A  158A  20A7  120A  118A  	fcall	___xxtofl
  4292     0302  0875               	movf	?___xxtofl+3,w
  4293     0303  1283               	bcf	3,5	;RP0=0, select bank0
  4294     0304  1303               	bcf	3,6	;RP1=0, select bank0
  4295     0305  00B1               	movwf	___flmul@a+3
  4296     0306  0874               	movf	?___xxtofl+2,w
  4297     0307  00B0               	movwf	___flmul@a+2
  4298     0308  0873               	movf	?___xxtofl+1,w
  4299     0309  00AF               	movwf	___flmul@a+1
  4300     030A  0872               	movf	?___xxtofl,w
  4301     030B  00AE               	movwf	___flmul@a
  4302     030C  303E               	movlw	62
  4303     030D  00AD               	movwf	___flmul@b+3
  4304     030E  30CC               	movlw	204
  4305     030F  00AC               	movwf	___flmul@b+2
  4306     0310  30CC               	movlw	204
  4307     0311  00AB               	movwf	___flmul@b+1
  4308     0312  30CD               	movlw	205
  4309     0313  00AA               	movwf	___flmul@b
  4310     0314  120A  118A  2430  120A  118A  	fcall	___flmul
  4311     0319  1283               	bcf	3,5	;RP0=0, select bank0
  4312     031A  1303               	bcf	3,6	;RP1=0, select bank0
  4313     031B  082D               	movf	?___flmul+3,w
  4314     031C  00C7               	movwf	___flsub@a+3
  4315     031D  082C               	movf	?___flmul+2,w
  4316     031E  00C6               	movwf	___flsub@a+2
  4317     031F  082B               	movf	?___flmul+1,w
  4318     0320  00C5               	movwf	___flsub@a+1
  4319     0321  082A               	movf	?___flmul,w
  4320     0322  00C4               	movwf	___flsub@a
  4321     0323  160A  118A  2430  120A  118A  	fcall	___flsub
  4322     0328  1283               	bcf	3,5	;RP0=0, select bank0
  4323     0329  1303               	bcf	3,6	;RP1=0, select bank0
  4324     032A  0847               	movf	?___flsub+3,w
  4325     032B  00D3               	movwf	___flge@ff2+3
  4326     032C  0846               	movf	?___flsub+2,w
  4327     032D  00D2               	movwf	___flge@ff2+2
  4328     032E  0845               	movf	?___flsub+1,w
  4329     032F  00D1               	movwf	___flge@ff2+1
  4330     0330  0844               	movf	?___flsub,w
  4331     0331  00D0               	movwf	___flge@ff2
  4332     0332  120A  158A  2003  120A  118A  	fcall	___flge
  4333     0337  1C03               	btfss	3,0
  4334     0338  2B3A               	goto	u5601
  4335     0339  2B3B               	goto	u5600
  4336     033A                     u5601:
  4337     033A  2B49               	goto	l5274
  4338     033B                     u5600:
  4339     033B                     l5272:
  4340                           
  4341                           ;washing_machine_function_def.c: 153:         {;washing_machine_function_def.c: 154:    
      +                                   clcd_print("RINSE",(0x80 + 10));
  4342     033B  3056               	movlw	low (STR_34| (0+32768))
  4343     033C  1283               	bcf	3,5	;RP0=0, select bank0
  4344     033D  1303               	bcf	3,6	;RP1=0, select bank0
  4345     033E  00A0               	movwf	clcd_print@str
  4346     033F  3091               	movlw	high (STR_34| (0+32768))
  4347     0340  00A1               	movwf	clcd_print@str+1
  4348     0341  308A               	movlw	138
  4349     0342  00A2               	movwf	clcd_print@addr
  4350     0343  160A  118A  24A2  120A  118A  	fcall	_clcd_print
  4351                           
  4352                           ;washing_machine_function_def.c: 155:         }
  4353     0348  2B74               	goto	l5282
  4354     0349                     l5274:
  4355                           
  4356                           ;washing_machine_function_def.c: 157:         {;washing_machine_function_def.c: 158:    
      +                                   clcd_print("SPIN ",(0x80 + 10));
  4357     0349  3044               	movlw	low (STR_35| (0+32768))
  4358     034A  1283               	bcf	3,5	;RP0=0, select bank0
  4359     034B  1303               	bcf	3,6	;RP1=0, select bank0
  4360     034C  00A0               	movwf	clcd_print@str
  4361     034D  3091               	movlw	high (STR_35| (0+32768))
  4362     034E  00A1               	movwf	clcd_print@str+1
  4363     034F  308A               	movlw	138
  4364     0350  00A2               	movwf	clcd_print@addr
  4365     0351  160A  118A  24A2  120A  118A  	fcall	_clcd_print
  4366     0356  2B74               	goto	l5282
  4367     0357                     l5276:
  4368     0357  3009               	movlw	9
  4369     0358  067A               	xorwf	_program_no,w
  4370     0359  1D03               	btfss	3,2
  4371     035A  2B5C               	goto	u5611
  4372     035B  2B5D               	goto	u5610
  4373     035C                     u5611:
  4374     035C  2B69               	goto	l5280
  4375     035D                     u5610:
  4376     035D                     l5278:
  4377                           
  4378                           ;washing_machine_function_def.c: 162:     {;washing_machine_function_def.c: 163:        
      +                          clcd_print("SPIN ",(0x80 + 10));
  4379     035D  3044               	movlw	low (STR_35| (0+32768))
  4380     035E  00A0               	movwf	clcd_print@str
  4381     035F  3091               	movlw	high (STR_35| (0+32768))
  4382     0360  00A1               	movwf	clcd_print@str+1
  4383     0361  308A               	movlw	138
  4384     0362  00A2               	movwf	clcd_print@addr
  4385     0363  160A  118A  24A2  120A  118A  	fcall	_clcd_print
  4386                           
  4387                           ;washing_machine_function_def.c: 164:     }
  4388     0368  2B74               	goto	l5282
  4389     0369                     l5280:
  4390                           
  4391                           ;washing_machine_function_def.c: 166:     {;washing_machine_function_def.c: 167:        
      +                           clcd_print("WASH",(0x80 + 10));
  4392     0369  3068               	movlw	low (STR_33| (0+32768))
  4393     036A  00A0               	movwf	clcd_print@str
  4394     036B  3091               	movlw	high (STR_33| (0+32768))
  4395     036C  00A1               	movwf	clcd_print@str+1
  4396     036D  308A               	movlw	138
  4397     036E  00A2               	movwf	clcd_print@addr
  4398     036F  160A  118A  24A2  120A  118A  	fcall	_clcd_print
  4399     0374                     l5282:
  4400                           
  4401                           ;washing_machine_function_def.c: 170:     clcd_putch(min/10 + '0',(0xC0 + 6));
  4402     0374  30C6               	movlw	198
  4403     0375  00F8               	movwf	clcd_putch@addr
  4404     0376  300A               	movlw	10
  4405     0377  00F2               	movwf	___awdiv@divisor
  4406     0378  3000               	movlw	0
  4407     0379  00F3               	movwf	___awdiv@divisor+1
  4408     037A  1283               	bcf	3,5	;RP0=0, select bank0
  4409     037B  1303               	bcf	3,6	;RP1=0, select bank0
  4410     037C  0869               	movf	_min,w
  4411     037D  00D8               	movwf	??_run_program
  4412     037E  01D9               	clrf	??_run_program+1
  4413     037F  0858               	movf	??_run_program,w
  4414     0380  00F4               	movwf	___awdiv@dividend
  4415     0381  0859               	movf	??_run_program+1,w
  4416     0382  00F5               	movwf	___awdiv@dividend+1
  4417     0383  160A  118A  261B  120A  118A  	fcall	___awdiv
  4418     0388  0872               	movf	?___awdiv,w
  4419     0389  3E30               	addlw	48
  4420     038A  160A  118A  23BF  120A  118A  	fcall	_clcd_putch
  4421     038F                     l5284:
  4422                           
  4423                           ;washing_machine_function_def.c: 171:     clcd_putch(min%10 + '0',(0xC0 + 7));
  4424     038F  30C7               	movlw	199
  4425     0390  00F8               	movwf	clcd_putch@addr
  4426     0391  300A               	movlw	10
  4427     0392  00F2               	movwf	___awmod@divisor
  4428     0393  3000               	movlw	0
  4429     0394  00F3               	movwf	___awmod@divisor+1
  4430     0395  1283               	bcf	3,5	;RP0=0, select bank0
  4431     0396  1303               	bcf	3,6	;RP1=0, select bank0
  4432     0397  0869               	movf	_min,w
  4433     0398  00D8               	movwf	??_run_program
  4434     0399  01D9               	clrf	??_run_program+1
  4435     039A  0858               	movf	??_run_program,w
  4436     039B  00F4               	movwf	___awmod@dividend
  4437     039C  0859               	movf	??_run_program+1,w
  4438     039D  00F5               	movwf	___awmod@dividend+1
  4439     039E  160A  118A  25C2  120A  118A  	fcall	___awmod
  4440     03A3  0872               	movf	?___awmod,w
  4441     03A4  3E30               	addlw	48
  4442     03A5  160A  118A  23BF  120A  118A  	fcall	_clcd_putch
  4443     03AA                     l5286:
  4444                           
  4445                           ;washing_machine_function_def.c: 172:     clcd_putch(':',(0xC0 + 8));
  4446     03AA  30C8               	movlw	200
  4447     03AB  00F8               	movwf	clcd_putch@addr
  4448     03AC  303A               	movlw	58
  4449     03AD  160A  118A  23BF  120A  118A  	fcall	_clcd_putch
  4450     03B2                     l5288:
  4451                           
  4452                           ;washing_machine_function_def.c: 173:     clcd_putch(sec/10 + '0',(0xC0 + 9));
  4453     03B2  30C9               	movlw	201
  4454     03B3  00F8               	movwf	clcd_putch@addr
  4455     03B4  300A               	movlw	10
  4456     03B5  00F2               	movwf	___awdiv@divisor
  4457     03B6  3000               	movlw	0
  4458     03B7  00F3               	movwf	___awdiv@divisor+1
  4459     03B8  1283               	bcf	3,5	;RP0=0, select bank0
  4460     03B9  1303               	bcf	3,6	;RP1=0, select bank0
  4461     03BA  0867               	movf	_sec,w
  4462     03BB  00D8               	movwf	??_run_program
  4463     03BC  01D9               	clrf	??_run_program+1
  4464     03BD  0858               	movf	??_run_program,w
  4465     03BE  00F4               	movwf	___awdiv@dividend
  4466     03BF  0859               	movf	??_run_program+1,w
  4467     03C0  00F5               	movwf	___awdiv@dividend+1
  4468     03C1  160A  118A  261B  120A  118A  	fcall	___awdiv
  4469     03C6  0872               	movf	?___awdiv,w
  4470     03C7  3E30               	addlw	48
  4471     03C8  160A  118A  23BF  120A  118A  	fcall	_clcd_putch
  4472     03CD                     l5290:
  4473                           
  4474                           ;washing_machine_function_def.c: 174:     clcd_putch(sec%10 + '0',(0xC0 + 10));
  4475     03CD  30CA               	movlw	202
  4476     03CE  00F8               	movwf	clcd_putch@addr
  4477     03CF  300A               	movlw	10
  4478     03D0  00F2               	movwf	___awmod@divisor
  4479     03D1  3000               	movlw	0
  4480     03D2  00F3               	movwf	___awmod@divisor+1
  4481     03D3  1283               	bcf	3,5	;RP0=0, select bank0
  4482     03D4  1303               	bcf	3,6	;RP1=0, select bank0
  4483     03D5  0867               	movf	_sec,w
  4484     03D6  00D8               	movwf	??_run_program
  4485     03D7  01D9               	clrf	??_run_program+1
  4486     03D8  0858               	movf	??_run_program,w
  4487     03D9  00F4               	movwf	___awmod@dividend
  4488     03DA  0859               	movf	??_run_program+1,w
  4489     03DB  00F5               	movwf	___awmod@dividend+1
  4490     03DC  160A  118A  25C2  120A  118A  	fcall	___awmod
  4491     03E1  0872               	movf	?___awmod,w
  4492     03E2  3E30               	addlw	48
  4493     03E3  160A  118A  23BF  120A  118A  	fcall	_clcd_putch
  4494     03E8                     l5292:
  4495                           
  4496                           ;washing_machine_function_def.c: 175:     if(min==0&&sec==0)
  4497     03E8  1283               	bcf	3,5	;RP0=0, select bank0
  4498     03E9  1303               	bcf	3,6	;RP1=0, select bank0
  4499     03EA  0869               	movf	_min,w
  4500     03EB  1D03               	btfss	3,2
  4501     03EC  2BEE               	goto	u5621
  4502     03ED  2BEF               	goto	u5620
  4503     03EE                     u5621:
  4504     03EE  2C2F               	goto	l256
  4505     03EF                     u5620:
  4506     03EF                     l5294:
  4507     03EF  0867               	movf	_sec,w
  4508     03F0  1D03               	btfss	3,2
  4509     03F1  2BF3               	goto	u5631
  4510     03F2  2BF4               	goto	u5630
  4511     03F3                     u5631:
  4512     03F3  2C2F               	goto	l256
  4513     03F4                     u5630:
  4514     03F4                     l5296:
  4515                           
  4516                           ;washing_machine_function_def.c: 176:     {;washing_machine_function_def.c: 177:        
      +                           clear_screen();
  4517     03F4  160A  118A  23AE  120A  118A  	fcall	_clear_screen
  4518     03F9                     l5298:
  4519                           
  4520                           ;washing_machine_function_def.c: 178:         RC2=0;
  4521     03F9  1283               	bcf	3,5	;RP0=0, select bank0
  4522     03FA  1303               	bcf	3,6	;RP1=0, select bank0
  4523     03FB  1107               	bcf	7,2	;volatile
  4524     03FC                     l5300:
  4525                           
  4526                           ;washing_machine_function_def.c: 179:         RC1=1;
  4527     03FC  1487               	bsf	7,1	;volatile
  4528     03FD                     l5302:
  4529                           
  4530                           ;washing_machine_function_def.c: 180:         clcd_print("Program Complete",(0x80 + 0));
  4531     03FD  3000               	movlw	low (STR_40| (0+32768))
  4532     03FE  00A0               	movwf	clcd_print@str
  4533     03FF  3090               	movlw	high (STR_40| (0+32768))
  4534     0400  00A1               	movwf	clcd_print@str+1
  4535     0401  3080               	movlw	128
  4536     0402  00A2               	movwf	clcd_print@addr
  4537     0403  160A  118A  24A2  120A  118A  	fcall	_clcd_print
  4538     0408                     l5304:
  4539                           
  4540                           ;washing_machine_function_def.c: 181:         clcd_print("Remove Clothes",(0xC0 + 0));
  4541     0408  3051               	movlw	low (STR_41| (0+32768))
  4542     0409  1283               	bcf	3,5	;RP0=0, select bank0
  4543     040A  1303               	bcf	3,6	;RP1=0, select bank0
  4544     040B  00A0               	movwf	clcd_print@str
  4545     040C  3090               	movlw	high (STR_41| (0+32768))
  4546     040D  00A1               	movwf	clcd_print@str+1
  4547     040E  30C0               	movlw	192
  4548     040F  00A2               	movwf	clcd_print@addr
  4549     0410  160A  118A  24A2  120A  118A  	fcall	_clcd_print
  4550     0415                     l5306:
  4551                           
  4552                           ;washing_machine_function_def.c: 182:         _delay((unsigned long)((3000)*(20000000/40
      +                          00.0)));
  4553     0415  304D               	movlw	77
  4554     0416  1283               	bcf	3,5	;RP0=0, select bank0
  4555     0417  1303               	bcf	3,6	;RP1=0, select bank0
  4556     0418  00DA               	movwf	??_run_program+2
  4557     0419  3019               	movlw	25
  4558     041A  00D9               	movwf	??_run_program+1
  4559     041B  304F               	movlw	79
  4560     041C  00D8               	movwf	??_run_program
  4561     041D                     u5777:
  4562     041D  0BD8               	decfsz	??_run_program,f
  4563     041E  2C1D               	goto	u5777
  4564     041F  0BD9               	decfsz	??_run_program+1,f
  4565     0420  2C1D               	goto	u5777
  4566     0421  0BDA               	decfsz	??_run_program+2,f
  4567     0422  2C1D               	goto	u5777
  4568     0423                     l5308:
  4569                           
  4570                           ;washing_machine_function_def.c: 183:         RC1=0;
  4571     0423  1283               	bcf	3,5	;RP0=0, select bank0
  4572     0424  1303               	bcf	3,6	;RP1=0, select bank0
  4573     0425  1087               	bcf	7,1	;volatile
  4574     0426                     l5310:
  4575                           
  4576                           ;washing_machine_function_def.c: 184:         operational_mode= 0x01;
  4577     0426  01EC               	clrf	_operational_mode
  4578     0427  0AEC               	incf	_operational_mode,f
  4579     0428                     l5312:
  4580                           
  4581                           ;washing_machine_function_def.c: 185:         reset_flag = 0x11;
  4582     0428  3011               	movlw	17
  4583     0429  00EB               	movwf	_reset_flag
  4584                           
  4585                           ;washing_machine_function_def.c: 186:         clear_screen();
  4586     042A  160A  118A  23AE  120A  118A  	fcall	_clear_screen
  4587     042F                     l256:
  4588     042F  0008               	return
  4589     0430                     __end_of_run_program:
  4590                           
  4591                           	psect	text5
  4592     1684                     __ptext5:	
  4593 ;; *************** function _door_status_check *****************
  4594 ;; Defined at:
  4595 ;;		line 190 in file "washing_machine_function_def.c"
  4596 ;; Parameters:    Size  Location     Type
  4597 ;;		None
  4598 ;; Auto vars:     Size  Location     Type
  4599 ;;		None
  4600 ;; Return value:  Size  Location     Type
  4601 ;;                  1    wreg      void 
  4602 ;; Registers used:
  4603 ;;		wreg, fsr0l, fsr0h, status,2, status,0, btemp+1, pclath, cstack
  4604 ;; Tracked objects:
  4605 ;;		On entry : 0/0
  4606 ;;		On exit  : 0/0
  4607 ;;		Unchanged: 0/0
  4608 ;; Data sizes:     COMMON   BANK0   BANK1   BANK3   BANK2
  4609 ;;      Params:         0       0       0       0       0
  4610 ;;      Locals:         0       0       0       0       0
  4611 ;;      Temps:          0       0       0       0       0
  4612 ;;      Totals:         0       0       0       0       0
  4613 ;;Total ram usage:        0 bytes
  4614 ;; Hardware stack levels used: 1
  4615 ;; Hardware stack levels required when called: 3
  4616 ;; This function calls:
  4617 ;;		_clcd_print
  4618 ;;		_clear_screen
  4619 ;; This function is called by:
  4620 ;;		_run_program
  4621 ;; This function uses a non-reentrant model
  4622 ;;
  4623                           
  4624     1684                     _door_status_check:	
  4625                           ;psect for function _door_status_check
  4626                           
  4627     1684                     l3960:	
  4628                           ;incstack = 0
  4629                           ; Regs used in _door_status_check: [wreg-fsr0h+status,2+status,0+btemp+1+pclath+cstack]
  4630                           
  4631                           
  4632                           ;washing_machine_function_def.c: 192:     if(RB0==0)
  4633     1684  1283               	bcf	3,5	;RP0=0, select bank0
  4634     1685  1303               	bcf	3,6	;RP1=0, select bank0
  4635     1686  1806               	btfsc	6,0	;volatile
  4636     1687  2E89               	goto	u4081
  4637     1688  2E8A               	goto	u4080
  4638     1689                     u4081:
  4639     1689  2EEE               	goto	l263
  4640     168A                     u4080:
  4641     168A                     l3962:
  4642                           
  4643                           ;washing_machine_function_def.c: 193:     {;washing_machine_function_def.c: 194:        
      +                           RC2=0;
  4644     168A  1107               	bcf	7,2	;volatile
  4645                           
  4646                           ;washing_machine_function_def.c: 195:         TMR2ON=0;
  4647     168B  1112               	bcf	18,2	;volatile
  4648                           
  4649                           ;washing_machine_function_def.c: 196:         RC1=1;
  4650     168C  1487               	bsf	7,1	;volatile
  4651     168D                     l3964:
  4652                           
  4653                           ;washing_machine_function_def.c: 197:         clear_screen();
  4654     168D  160A  118A  23AE  160A  118A  	fcall	_clear_screen
  4655     1692                     l3966:
  4656                           
  4657                           ;washing_machine_function_def.c: 198:         clcd_print("DOOR IS OPEN!!!",(0x80 + 0));
  4658     1692  3011               	movlw	low (STR_42| (0+32768))
  4659     1693  1283               	bcf	3,5	;RP0=0, select bank0
  4660     1694  1303               	bcf	3,6	;RP1=0, select bank0
  4661     1695  00A0               	movwf	clcd_print@str
  4662     1696  3090               	movlw	high (STR_42| (0+32768))
  4663     1697  00A1               	movwf	clcd_print@str+1
  4664     1698  3080               	movlw	128
  4665     1699  00A2               	movwf	clcd_print@addr
  4666     169A  160A  118A  24A2  160A  118A  	fcall	_clcd_print
  4667     169F                     l3968:
  4668                           
  4669                           ;washing_machine_function_def.c: 199:         clcd_print("Please",(0xC0 + 0));
  4670     169F  302F               	movlw	low (STR_43| (0+32768))
  4671     16A0  1283               	bcf	3,5	;RP0=0, select bank0
  4672     16A1  1303               	bcf	3,6	;RP1=0, select bank0
  4673     16A2  00A0               	movwf	clcd_print@str
  4674     16A3  3091               	movlw	high (STR_43| (0+32768))
  4675     16A4  00A1               	movwf	clcd_print@str+1
  4676     16A5  30C0               	movlw	192
  4677     16A6  00A2               	movwf	clcd_print@addr
  4678     16A7  160A  118A  24A2  160A  118A  	fcall	_clcd_print
  4679     16AC                     l3970:
  4680                           
  4681                           ;washing_machine_function_def.c: 200:         clcd_print("close door",(0x90+0));
  4682     16AC  30CF               	movlw	low (STR_44| (0+32768))
  4683     16AD  1283               	bcf	3,5	;RP0=0, select bank0
  4684     16AE  1303               	bcf	3,6	;RP1=0, select bank0
  4685     16AF  00A0               	movwf	clcd_print@str
  4686     16B0  3090               	movlw	high (STR_44| (0+32768))
  4687     16B1  00A1               	movwf	clcd_print@str+1
  4688     16B2  3090               	movlw	144
  4689     16B3  00A2               	movwf	clcd_print@addr
  4690     16B4  160A  118A  24A2  160A  118A  	fcall	_clcd_print
  4691     16B9                     l260:	
  4692                           ;washing_machine_function_def.c: 203:         {;washing_machine_function_def.c: 205:    
      +                               }
  4693                           
  4694                           
  4695                           ;washing_machine_function_def.c: 202:         while(RB0==0)
  4696     16B9  1283               	bcf	3,5	;RP0=0, select bank0
  4697     16BA  1303               	bcf	3,6	;RP1=0, select bank0
  4698     16BB  1C06               	btfss	6,0	;volatile
  4699     16BC  2EBE               	goto	u4091
  4700     16BD  2EBF               	goto	u4090
  4701     16BE                     u4091:
  4702     16BE  2EB9               	goto	l260
  4703     16BF                     u4090:
  4704     16BF                     l262:
  4705                           
  4706                           ;washing_machine_function_def.c: 206:         RC2=1;
  4707     16BF  1507               	bsf	7,2	;volatile
  4708                           
  4709                           ;washing_machine_function_def.c: 207:         TMR2ON=1;
  4710     16C0  1512               	bsf	18,2	;volatile
  4711                           
  4712                           ;washing_machine_function_def.c: 208:         RC1=0;
  4713     16C1  1087               	bcf	7,1	;volatile
  4714     16C2                     l3972:
  4715                           
  4716                           ;washing_machine_function_def.c: 209:         clear_screen();
  4717     16C2  160A  118A  23AE  160A  118A  	fcall	_clear_screen
  4718     16C7                     l3974:
  4719                           
  4720                           ;washing_machine_function_def.c: 210:         clcd_print("Function: ",(0x80 + 0));
  4721     16C7  30AE               	movlw	low (STR_30| (0+32768))
  4722     16C8  1283               	bcf	3,5	;RP0=0, select bank0
  4723     16C9  1303               	bcf	3,6	;RP1=0, select bank0
  4724     16CA  00A0               	movwf	clcd_print@str
  4725     16CB  3090               	movlw	high (STR_30| (0+32768))
  4726     16CC  00A1               	movwf	clcd_print@str+1
  4727     16CD  3080               	movlw	128
  4728     16CE  00A2               	movwf	clcd_print@addr
  4729     16CF  160A  118A  24A2  160A  118A  	fcall	_clcd_print
  4730     16D4                     l3976:
  4731                           
  4732                           ;washing_machine_function_def.c: 211:         clcd_print("Time: ",(0xC0 + 0));
  4733     16D4  3028               	movlw	low (STR_31| (0+32768))
  4734     16D5  1283               	bcf	3,5	;RP0=0, select bank0
  4735     16D6  1303               	bcf	3,6	;RP1=0, select bank0
  4736     16D7  00A0               	movwf	clcd_print@str
  4737     16D8  3091               	movlw	high (STR_31| (0+32768))
  4738     16D9  00A1               	movwf	clcd_print@str+1
  4739     16DA  30C0               	movlw	192
  4740     16DB  00A2               	movwf	clcd_print@addr
  4741     16DC  160A  118A  24A2  160A  118A  	fcall	_clcd_print
  4742     16E1                     l3978:
  4743                           
  4744                           ;washing_machine_function_def.c: 212:         clcd_print("5:START 6:PAUSE",(0xD0+0));
  4745     16E1  3021               	movlw	low (STR_32| (0+32768))
  4746     16E2  1283               	bcf	3,5	;RP0=0, select bank0
  4747     16E3  1303               	bcf	3,6	;RP1=0, select bank0
  4748     16E4  00A0               	movwf	clcd_print@str
  4749     16E5  3090               	movlw	high (STR_32| (0+32768))
  4750     16E6  00A1               	movwf	clcd_print@str+1
  4751     16E7  30D0               	movlw	208
  4752     16E8  00A2               	movwf	clcd_print@addr
  4753     16E9  160A  118A  24A2  160A  118A  	fcall	_clcd_print
  4754     16EE                     l263:
  4755     16EE  0008               	return
  4756     16EF                     __end_of_door_status_check:
  4757                           
  4758                           	psect	text6
  4759     13AE                     __ptext6:	
  4760 ;; *************** function _clear_screen *****************
  4761 ;; Defined at:
  4762 ;;		line 33 in file "washing_machine_function_def.c"
  4763 ;; Parameters:    Size  Location     Type
  4764 ;;		None
  4765 ;; Auto vars:     Size  Location     Type
  4766 ;;		None
  4767 ;; Return value:  Size  Location     Type
  4768 ;;                  1    wreg      void 
  4769 ;; Registers used:
  4770 ;;		wreg, status,2, status,0, pclath, cstack
  4771 ;; Tracked objects:
  4772 ;;		On entry : 0/0
  4773 ;;		On exit  : 0/0
  4774 ;;		Unchanged: 0/0
  4775 ;; Data sizes:     COMMON   BANK0   BANK1   BANK3   BANK2
  4776 ;;      Params:         0       0       0       0       0
  4777 ;;      Locals:         0       0       0       0       0
  4778 ;;      Temps:          2       0       0       0       0
  4779 ;;      Totals:         2       0       0       0       0
  4780 ;;Total ram usage:        2 bytes
  4781 ;; Hardware stack levels used: 1
  4782 ;; Hardware stack levels required when called: 2
  4783 ;; This function calls:
  4784 ;;		_clcd_write
  4785 ;; This function is called by:
  4786 ;;		_main
  4787 ;;		_washing_program_display
  4788 ;;		_water_level_screen
  4789 ;;		_run_program
  4790 ;;		_door_status_check
  4791 ;; This function uses a non-reentrant model
  4792 ;;
  4793                           
  4794     13AE                     _clear_screen:	
  4795                           ;psect for function _clear_screen
  4796                           
  4797     13AE                     l3700:	
  4798                           ;incstack = 0
  4799                           ; Regs used in _clear_screen: [wreg+status,2+status,0+pclath+cstack]
  4800                           
  4801                           
  4802                           ;washing_machine_function_def.c: 34:     clcd_write(0x01, 0);
  4803     13AE  01F2               	clrf	clcd_write@mode
  4804     13AF  3001               	movlw	1
  4805     13B0  160A  118A  23EE  160A  118A  	fcall	_clcd_write
  4806     13B5                     l3702:
  4807                           
  4808                           ;washing_machine_function_def.c: 35:     _delay((unsigned long)((500)*(20000000/4000000.
      +                          0)));
  4809     13B5  3004               	movlw	4
  4810     13B6  00F7               	movwf	??_clear_screen+1
  4811     13B7  303D               	movlw	61
  4812     13B8  00F6               	movwf	??_clear_screen
  4813     13B9                     u5787:
  4814     13B9  0BF6               	decfsz	??_clear_screen,f
  4815     13BA  2BB9               	goto	u5787
  4816     13BB  0BF7               	decfsz	??_clear_screen+1,f
  4817     13BC  2BB9               	goto	u5787
  4818     13BD  2BBE               	nop2
  4819     13BE                     l221:
  4820     13BE  0008               	return
  4821     13BF                     __end_of_clear_screen:
  4822                           
  4823                           	psect	text7
  4824     08A7                     __ptext7:	
  4825 ;; *************** function ___xxtofl *****************
  4826 ;; Defined at:
  4827 ;;		line 10 in file "C:\Program Files\Microchip\xc8\v2.45\pic\sources\c99\common\xxtofl.c"
  4828 ;; Parameters:    Size  Location     Type
  4829 ;;  sign            1    wreg     unsigned char 
  4830 ;;  val             4    2[COMMON] long 
  4831 ;; Auto vars:     Size  Location     Type
  4832 ;;  sign            1    4[BANK0 ] unsigned char 
  4833 ;;  arg             4    6[BANK0 ] unsigned long 
  4834 ;;  exp             1    5[BANK0 ] unsigned char 
  4835 ;; Return value:  Size  Location     Type
  4836 ;;                  4    2[COMMON] unsigned char 
  4837 ;; Registers used:
  4838 ;;		wreg, status,2, status,0, btemp+1
  4839 ;; Tracked objects:
  4840 ;;		On entry : 0/0
  4841 ;;		On exit  : 0/0
  4842 ;;		Unchanged: 0/0
  4843 ;; Data sizes:     COMMON   BANK0   BANK1   BANK3   BANK2
  4844 ;;      Params:         4       0       0       0       0
  4845 ;;      Locals:         0       6       0       0       0
  4846 ;;      Temps:          0       4       0       0       0
  4847 ;;      Totals:         4      10       0       0       0
  4848 ;;Total ram usage:       14 bytes
  4849 ;; Hardware stack levels used: 1
  4850 ;; Hardware stack levels required when called: 1
  4851 ;; This function calls:
  4852 ;;		Nothing
  4853 ;; This function is called by:
  4854 ;;		_run_program
  4855 ;; This function uses a non-reentrant model
  4856 ;;
  4857                           
  4858     08A7                     ___xxtofl:	
  4859                           ;psect for function ___xxtofl
  4860                           
  4861                           
  4862                           ;incstack = 0
  4863                           ; Regs used in ___xxtofl: [wreg+status,2+status,0+btemp+1]
  4864                           ;___xxtofl@sign stored from wreg
  4865     08A7  1283               	bcf	3,5	;RP0=0, select bank0
  4866     08A8  1303               	bcf	3,6	;RP1=0, select bank0
  4867     08A9  00A4               	movwf	___xxtofl@sign
  4868     08AA                     l4282:
  4869     08AA  0824               	movf	___xxtofl@sign,w
  4870     08AB  1903               	btfsc	3,2
  4871     08AC  28AE               	goto	u4871
  4872     08AD  28AF               	goto	u4870
  4873     08AE                     u4871:
  4874     08AE  28C3               	goto	l4288
  4875     08AF                     u4870:
  4876     08AF                     l4284:
  4877     08AF  1FF5               	btfss	___xxtofl@val+3,7
  4878     08B0  28B2               	goto	u4881
  4879     08B1  28B3               	goto	u4880
  4880     08B2                     u4881:
  4881     08B2  28C3               	goto	l4288
  4882     08B3                     u4880:
  4883     08B3                     l4286:
  4884     08B3  0972               	comf	___xxtofl@val,w
  4885     08B4  00A6               	movwf	___xxtofl@arg
  4886     08B5  0973               	comf	___xxtofl@val+1,w
  4887     08B6  00A7               	movwf	___xxtofl@arg+1
  4888     08B7  0974               	comf	___xxtofl@val+2,w
  4889     08B8  00A8               	movwf	___xxtofl@arg+2
  4890     08B9  0975               	comf	___xxtofl@val+3,w
  4891     08BA  00A9               	movwf	___xxtofl@arg+3
  4892     08BB  0AA6               	incf	___xxtofl@arg,f
  4893     08BC  1903               	skipnz
  4894     08BD  0AA7               	incf	___xxtofl@arg+1,f
  4895     08BE  1903               	skipnz
  4896     08BF  0AA8               	incf	___xxtofl@arg+2,f
  4897     08C0  1903               	skipnz
  4898     08C1  0AA9               	incf	___xxtofl@arg+3,f
  4899     08C2  28CB               	goto	l891
  4900     08C3                     l4288:
  4901     08C3  0875               	movf	___xxtofl@val+3,w
  4902     08C4  00A9               	movwf	___xxtofl@arg+3
  4903     08C5  0874               	movf	___xxtofl@val+2,w
  4904     08C6  00A8               	movwf	___xxtofl@arg+2
  4905     08C7  0873               	movf	___xxtofl@val+1,w
  4906     08C8  00A7               	movwf	___xxtofl@arg+1
  4907     08C9  0872               	movf	___xxtofl@val,w
  4908     08CA  00A6               	movwf	___xxtofl@arg
  4909     08CB                     l891:
  4910     08CB  0875               	movf	___xxtofl@val+3,w
  4911     08CC  0474               	iorwf	___xxtofl@val+2,w
  4912     08CD  0473               	iorwf	___xxtofl@val+1,w
  4913     08CE  0472               	iorwf	___xxtofl@val,w
  4914     08CF  1D03               	skipz
  4915     08D0  28D2               	goto	u4891
  4916     08D1  28D3               	goto	u4890
  4917     08D2                     u4891:
  4918     08D2  28DC               	goto	l4294
  4919     08D3                     u4890:
  4920     08D3                     l4290:
  4921     08D3  3000               	movlw	0
  4922     08D4  00F5               	movwf	?___xxtofl+3
  4923     08D5  3000               	movlw	0
  4924     08D6  00F4               	movwf	?___xxtofl+2
  4925     08D7  3000               	movlw	0
  4926     08D8  00F3               	movwf	?___xxtofl+1
  4927     08D9  3000               	movlw	0
  4928     08DA  00F2               	movwf	?___xxtofl
  4929     08DB  2960               	goto	l893
  4930     08DC                     l4294:
  4931     08DC  3096               	movlw	150
  4932     08DD  00A5               	movwf	___xxtofl@exp
  4933     08DE  28EC               	goto	l4300
  4934     08DF                     l4296:
  4935     08DF  3001               	movlw	1
  4936     08E0  00FF               	movwf	btemp+1
  4937     08E1  087F               	movf	btemp+1,w
  4938     08E2  07A5               	addwf	___xxtofl@exp,f
  4939     08E3                     l4298:
  4940     08E3  3001               	movlw	1
  4941     08E4                     u4905:
  4942     08E4  1003               	clrc
  4943     08E5  0CA9               	rrf	___xxtofl@arg+3,f
  4944     08E6  0CA8               	rrf	___xxtofl@arg+2,f
  4945     08E7  0CA7               	rrf	___xxtofl@arg+1,f
  4946     08E8  0CA6               	rrf	___xxtofl@arg,f
  4947     08E9  3EFF               	addlw	-1
  4948     08EA  1D03               	skipz
  4949     08EB  28E4               	goto	u4905
  4950     08EC                     l4300:
  4951     08EC  30FE               	movlw	254
  4952     08ED  0529               	andwf	___xxtofl@arg+3,w
  4953     08EE  1D03               	btfss	3,2
  4954     08EF  28F1               	goto	u4911
  4955     08F0  28F2               	goto	u4910
  4956     08F1                     u4911:
  4957     08F1  28DF               	goto	l4296
  4958     08F2                     u4910:
  4959     08F2  290E               	goto	l4308
  4960     08F3                     l4302:
  4961     08F3  3001               	movlw	1
  4962     08F4  00FF               	movwf	btemp+1
  4963     08F5  087F               	movf	btemp+1,w
  4964     08F6  07A5               	addwf	___xxtofl@exp,f
  4965     08F7                     l4304:
  4966     08F7  3001               	movlw	1
  4967     08F8  07A6               	addwf	___xxtofl@arg,f
  4968     08F9  3000               	movlw	0
  4969     08FA  1803               	skipnc
  4970     08FB  3001               	movlw	1
  4971     08FC  07A7               	addwf	___xxtofl@arg+1,f
  4972     08FD  3000               	movlw	0
  4973     08FE  1803               	skipnc
  4974     08FF  3001               	movlw	1
  4975     0900  07A8               	addwf	___xxtofl@arg+2,f
  4976     0901  3000               	movlw	0
  4977     0902  1803               	skipnc
  4978     0903  3001               	movlw	1
  4979     0904  07A9               	addwf	___xxtofl@arg+3,f
  4980     0905                     l4306:
  4981     0905  3001               	movlw	1
  4982     0906                     u4925:
  4983     0906  1003               	clrc
  4984     0907  0CA9               	rrf	___xxtofl@arg+3,f
  4985     0908  0CA8               	rrf	___xxtofl@arg+2,f
  4986     0909  0CA7               	rrf	___xxtofl@arg+1,f
  4987     090A  0CA6               	rrf	___xxtofl@arg,f
  4988     090B  3EFF               	addlw	-1
  4989     090C  1D03               	skipz
  4990     090D  2906               	goto	u4925
  4991     090E                     l4308:
  4992     090E  30FF               	movlw	255
  4993     090F  0529               	andwf	___xxtofl@arg+3,w
  4994     0910  1D03               	btfss	3,2
  4995     0911  2913               	goto	u4931
  4996     0912  2914               	goto	u4930
  4997     0913                     u4931:
  4998     0913  28F3               	goto	l4302
  4999     0914                     u4930:
  5000     0914  2920               	goto	l4312
  5001     0915                     l4310:
  5002     0915  3001               	movlw	1
  5003     0916  02A5               	subwf	___xxtofl@exp,f
  5004     0917  3001               	movlw	1
  5005     0918  00A0               	movwf	??___xxtofl
  5006     0919                     u4945:
  5007     0919  1003               	clrc
  5008     091A  0DA6               	rlf	___xxtofl@arg,f
  5009     091B  0DA7               	rlf	___xxtofl@arg+1,f
  5010     091C  0DA8               	rlf	___xxtofl@arg+2,f
  5011     091D  0DA9               	rlf	___xxtofl@arg+3,f
  5012     091E  0BA0               	decfsz	??___xxtofl,f
  5013     091F  2919               	goto	u4945
  5014     0920                     l4312:
  5015     0920  1BA8               	btfsc	___xxtofl@arg+2,7
  5016     0921  2923               	goto	u4951
  5017     0922  2924               	goto	u4950
  5018     0923                     u4951:
  5019     0923  292A               	goto	l904
  5020     0924                     u4950:
  5021     0924                     l4314:
  5022     0924  3002               	movlw	2
  5023     0925  0225               	subwf	___xxtofl@exp,w
  5024     0926  1803               	skipnc
  5025     0927  2929               	goto	u4961
  5026     0928  292A               	goto	u4960
  5027     0929                     u4961:
  5028     0929  2915               	goto	l4310
  5029     092A                     u4960:
  5030     092A                     l904:
  5031     092A  1825               	btfsc	___xxtofl@exp,0
  5032     092B  292D               	goto	u4971
  5033     092C  292E               	goto	u4970
  5034     092D                     u4971:
  5035     092D  2936               	goto	l905
  5036     092E                     u4970:
  5037     092E                     l4316:
  5038     092E  30FF               	movlw	255
  5039     092F  05A6               	andwf	___xxtofl@arg,f
  5040     0930  30FF               	movlw	255
  5041     0931  05A7               	andwf	___xxtofl@arg+1,f
  5042     0932  307F               	movlw	127
  5043     0933  05A8               	andwf	___xxtofl@arg+2,f
  5044     0934  30FF               	movlw	255
  5045     0935  05A9               	andwf	___xxtofl@arg+3,f
  5046     0936                     l905:
  5047     0936  1003               	clrc
  5048     0937  0CA5               	rrf	___xxtofl@exp,f
  5049     0938                     l4318:
  5050     0938  0825               	movf	___xxtofl@exp,w
  5051     0939  00A0               	movwf	??___xxtofl
  5052     093A  01A1               	clrf	??___xxtofl+1
  5053     093B  01A2               	clrf	??___xxtofl+2
  5054     093C  01A3               	clrf	??___xxtofl+3
  5055     093D  3018               	movlw	24
  5056     093E                     u4985:
  5057     093E  1003               	clrc
  5058     093F  0DA0               	rlf	??___xxtofl,f
  5059     0940  0DA1               	rlf	??___xxtofl+1,f
  5060     0941  0DA2               	rlf	??___xxtofl+2,f
  5061     0942  0DA3               	rlf	??___xxtofl+3,f
  5062     0943                     u4980:
  5063     0943  3EFF               	addlw	-1
  5064     0944  1D03               	skipz
  5065     0945  293E               	goto	u4985
  5066     0946  0820               	movf	??___xxtofl,w
  5067     0947  04A6               	iorwf	___xxtofl@arg,f
  5068     0948  0821               	movf	??___xxtofl+1,w
  5069     0949  04A7               	iorwf	___xxtofl@arg+1,f
  5070     094A  0822               	movf	??___xxtofl+2,w
  5071     094B  04A8               	iorwf	___xxtofl@arg+2,f
  5072     094C  0823               	movf	??___xxtofl+3,w
  5073     094D  04A9               	iorwf	___xxtofl@arg+3,f
  5074     094E                     l4320:
  5075     094E  0824               	movf	___xxtofl@sign,w
  5076     094F  1903               	btfsc	3,2
  5077     0950  2952               	goto	u4991
  5078     0951  2953               	goto	u4990
  5079     0952                     u4991:
  5080     0952  2958               	goto	l4326
  5081     0953                     u4990:
  5082     0953                     l4322:
  5083     0953  1FF5               	btfss	___xxtofl@val+3,7
  5084     0954  2956               	goto	u5001
  5085     0955  2957               	goto	u5000
  5086     0956                     u5001:
  5087     0956  2958               	goto	l4326
  5088     0957                     u5000:
  5089     0957                     l4324:
  5090     0957  17A9               	bsf	___xxtofl@arg+3,7
  5091     0958                     l4326:
  5092     0958  0829               	movf	___xxtofl@arg+3,w
  5093     0959  00F5               	movwf	?___xxtofl+3
  5094     095A  0828               	movf	___xxtofl@arg+2,w
  5095     095B  00F4               	movwf	?___xxtofl+2
  5096     095C  0827               	movf	___xxtofl@arg+1,w
  5097     095D  00F3               	movwf	?___xxtofl+1
  5098     095E  0826               	movf	___xxtofl@arg,w
  5099     095F  00F2               	movwf	?___xxtofl
  5100     0960                     l893:
  5101     0960  0008               	return
  5102     0961                     __end_of___xxtofl:
  5103                           
  5104                           	psect	text8
  5105     1454                     __ptext8:	
  5106 ;; *************** function ___wmul *****************
  5107 ;; Defined at:
  5108 ;;		line 15 in file "C:\Program Files\Microchip\xc8\v2.45\pic\sources\c99\common\Umul16.c"
  5109 ;; Parameters:    Size  Location     Type
  5110 ;;  multiplier      2    2[COMMON] unsigned int 
  5111 ;;  multiplicand    2    4[COMMON] unsigned int 
  5112 ;; Auto vars:     Size  Location     Type
  5113 ;;  product         2    6[COMMON] unsigned int 
  5114 ;; Return value:  Size  Location     Type
  5115 ;;                  2    2[COMMON] unsigned int 
  5116 ;; Registers used:
  5117 ;;		wreg, status,2, status,0
  5118 ;; Tracked objects:
  5119 ;;		On entry : 0/0
  5120 ;;		On exit  : 0/0
  5121 ;;		Unchanged: 0/0
  5122 ;; Data sizes:     COMMON   BANK0   BANK1   BANK3   BANK2
  5123 ;;      Params:         4       0       0       0       0
  5124 ;;      Locals:         2       0       0       0       0
  5125 ;;      Temps:          0       0       0       0       0
  5126 ;;      Totals:         6       0       0       0       0
  5127 ;;Total ram usage:        6 bytes
  5128 ;; Hardware stack levels used: 1
  5129 ;; Hardware stack levels required when called: 1
  5130 ;; This function calls:
  5131 ;;		Nothing
  5132 ;; This function is called by:
  5133 ;;		_run_program
  5134 ;; This function uses a non-reentrant model
  5135 ;;
  5136                           
  5137     1454                     ___wmul:	
  5138                           ;psect for function ___wmul
  5139                           
  5140     1454                     l3980:	
  5141                           ;incstack = 0
  5142                           ; Regs used in ___wmul: [wreg+status,2+status,0]
  5143                           
  5144     1454  01F6               	clrf	___wmul@product
  5145     1455  01F7               	clrf	___wmul@product+1
  5146     1456                     l3982:
  5147     1456  1C72               	btfss	___wmul@multiplier,0
  5148     1457  2C59               	goto	u4101
  5149     1458  2C5A               	goto	u4100
  5150     1459                     u4101:
  5151     1459  2C60               	goto	l450
  5152     145A                     u4100:
  5153     145A                     l3984:
  5154     145A  0874               	movf	___wmul@multiplicand,w
  5155     145B  07F6               	addwf	___wmul@product,f
  5156     145C  1803               	skipnc
  5157     145D  0AF7               	incf	___wmul@product+1,f
  5158     145E  0875               	movf	___wmul@multiplicand+1,w
  5159     145F  07F7               	addwf	___wmul@product+1,f
  5160     1460                     l450:
  5161     1460  3001               	movlw	1
  5162     1461                     u4115:
  5163     1461  1003               	clrc
  5164     1462  0DF4               	rlf	___wmul@multiplicand,f
  5165     1463  0DF5               	rlf	___wmul@multiplicand+1,f
  5166     1464  3EFF               	addlw	-1
  5167     1465  1D03               	skipz
  5168     1466  2C61               	goto	u4115
  5169     1467                     l3986:
  5170     1467  3001               	movlw	1
  5171     1468                     u4125:
  5172     1468  1003               	clrc
  5173     1469  0CF3               	rrf	___wmul@multiplier+1,f
  5174     146A  0CF2               	rrf	___wmul@multiplier,f
  5175     146B  3EFF               	addlw	-1
  5176     146C  1D03               	skipz
  5177     146D  2C68               	goto	u4125
  5178     146E                     l3988:
  5179     146E  0872               	movf	___wmul@multiplier,w
  5180     146F  0473               	iorwf	___wmul@multiplier+1,w
  5181     1470  1D03               	btfss	3,2
  5182     1471  2C73               	goto	u4131
  5183     1472  2C74               	goto	u4130
  5184     1473                     u4131:
  5185     1473  2C56               	goto	l3982
  5186     1474                     u4130:
  5187     1474                     l3990:
  5188     1474  0877               	movf	___wmul@product+1,w
  5189     1475  00F3               	movwf	?___wmul+1
  5190     1476  0876               	movf	___wmul@product,w
  5191     1477  00F2               	movwf	?___wmul
  5192     1478                     l452:
  5193     1478  0008               	return
  5194     1479                     __end_of___wmul:
  5195                           
  5196                           	psect	text9
  5197     0775                     __ptext9:	
  5198 ;; *************** function ___fltol *****************
  5199 ;; Defined at:
  5200 ;;		line 43 in file "C:\Program Files\Microchip\xc8\v2.45\pic\sources\c99\common\fltol.c"
  5201 ;; Parameters:    Size  Location     Type
  5202 ;;  f1              4   36[BANK0 ] unsigned int 
  5203 ;; Auto vars:     Size  Location     Type
  5204 ;;  exp1            1    7[COMMON] unsigned char 
  5205 ;;  sign1           1    6[COMMON] unsigned char 
  5206 ;; Return value:  Size  Location     Type
  5207 ;;                  4   36[BANK0 ] long 
  5208 ;; Registers used:
  5209 ;;		wreg, status,2, status,0, btemp+1
  5210 ;; Tracked objects:
  5211 ;;		On entry : 0/0
  5212 ;;		On exit  : 0/0
  5213 ;;		Unchanged: 0/0
  5214 ;; Data sizes:     COMMON   BANK0   BANK1   BANK3   BANK2
  5215 ;;      Params:         0       4       0       0       0
  5216 ;;      Locals:         2       0       0       0       0
  5217 ;;      Temps:          0       4       0       0       0
  5218 ;;      Totals:         2       8       0       0       0
  5219 ;;Total ram usage:       10 bytes
  5220 ;; Hardware stack levels used: 1
  5221 ;; Hardware stack levels required when called: 1
  5222 ;; This function calls:
  5223 ;;		Nothing
  5224 ;; This function is called by:
  5225 ;;		_run_program
  5226 ;; This function uses a non-reentrant model
  5227 ;;
  5228                           
  5229     0775                     ___fltol:	
  5230                           ;psect for function ___fltol
  5231                           
  5232     0775                     l4096:	
  5233                           ;incstack = 0
  5234                           ; Regs used in ___fltol: [wreg+status,2+status,0+btemp+1]
  5235                           
  5236     0775  1003               	clrc
  5237     0776  1283               	bcf	3,5	;RP0=0, select bank0
  5238     0777  1303               	bcf	3,6	;RP1=0, select bank0
  5239     0778  0D46               	rlf	___fltol@f1+2,w
  5240     0779  0D47               	rlf	___fltol@f1+3,w
  5241     077A  00F7               	movwf	___fltol@exp1
  5242     077B  0877               	movf	___fltol@exp1,w
  5243     077C  1D03               	btfss	3,2
  5244     077D  2F7F               	goto	u4401
  5245     077E  2F80               	goto	u4400
  5246     077F                     u4401:
  5247     077F  2F89               	goto	l4102
  5248     0780                     u4400:
  5249     0780                     l4098:
  5250     0780  3000               	movlw	0
  5251     0781  00C7               	movwf	?___fltol+3
  5252     0782  3000               	movlw	0
  5253     0783  00C6               	movwf	?___fltol+2
  5254     0784  3000               	movlw	0
  5255     0785  00C5               	movwf	?___fltol+1
  5256     0786  3000               	movlw	0
  5257     0787  00C4               	movwf	?___fltol
  5258     0788  2FEC               	goto	l644
  5259     0789                     l4102:
  5260     0789  0844               	movf	___fltol@f1,w
  5261     078A  00C8               	movwf	??___fltol
  5262     078B  0845               	movf	___fltol@f1+1,w
  5263     078C  00C9               	movwf	??___fltol+1
  5264     078D  0846               	movf	___fltol@f1+2,w
  5265     078E  00CA               	movwf	??___fltol+2
  5266     078F  0847               	movf	___fltol@f1+3,w
  5267     0790  00CB               	movwf	??___fltol+3
  5268     0791  301F               	movlw	31
  5269     0792                     u4415:
  5270     0792  1003               	clrc
  5271     0793  0CCB               	rrf	??___fltol+3,f
  5272     0794  0CCA               	rrf	??___fltol+2,f
  5273     0795  0CC9               	rrf	??___fltol+1,f
  5274     0796  0CC8               	rrf	??___fltol,f
  5275     0797                     u4410:
  5276     0797  3EFF               	addlw	-1
  5277     0798  1D03               	skipz
  5278     0799  2F92               	goto	u4415
  5279     079A  0848               	movf	??___fltol,w
  5280     079B  00F6               	movwf	___fltol@sign1
  5281     079C                     l4104:
  5282     079C  17C6               	bsf	___fltol@f1+2,7
  5283     079D                     l4106:
  5284     079D  30FF               	movlw	255
  5285     079E  05C4               	andwf	___fltol@f1,f
  5286     079F  30FF               	movlw	255
  5287     07A0  05C5               	andwf	___fltol@f1+1,f
  5288     07A1  30FF               	movlw	255
  5289     07A2  05C6               	andwf	___fltol@f1+2,f
  5290     07A3  3000               	movlw	0
  5291     07A4  05C7               	andwf	___fltol@f1+3,f
  5292     07A5                     l4108:
  5293     07A5  3096               	movlw	150
  5294     07A6  02F7               	subwf	___fltol@exp1,f
  5295     07A7                     l4110:
  5296     07A7  1FF7               	btfss	___fltol@exp1,7
  5297     07A8  2FAA               	goto	u4421
  5298     07A9  2FAB               	goto	u4420
  5299     07AA                     u4421:
  5300     07AA  2FC5               	goto	l4122
  5301     07AB                     u4420:
  5302     07AB                     l4112:
  5303     07AB  0877               	movf	___fltol@exp1,w
  5304     07AC  3A80               	xorlw	128
  5305     07AD  3E97               	addlw	151
  5306     07AE  1803               	skipnc
  5307     07AF  2FB1               	goto	u4431
  5308     07B0  2FB2               	goto	u4430
  5309     07B1                     u4431:
  5310     07B1  2FB3               	goto	l4118
  5311     07B2                     u4430:
  5312     07B2  2F80               	goto	l4098
  5313     07B3                     l4118:
  5314     07B3  3001               	movlw	1
  5315     07B4                     u4445:
  5316     07B4  1003               	clrc
  5317     07B5  0CC7               	rrf	___fltol@f1+3,f
  5318     07B6  0CC6               	rrf	___fltol@f1+2,f
  5319     07B7  0CC5               	rrf	___fltol@f1+1,f
  5320     07B8  0CC4               	rrf	___fltol@f1,f
  5321     07B9  3EFF               	addlw	-1
  5322     07BA  1D03               	skipz
  5323     07BB  2FB4               	goto	u4445
  5324     07BC                     l4120:
  5325     07BC  3001               	movlw	1
  5326     07BD  00FF               	movwf	btemp+1
  5327     07BE  087F               	movf	btemp+1,w
  5328     07BF  07F7               	addwf	___fltol@exp1,f
  5329     07C0  1D03               	btfss	3,2
  5330     07C1  2FC3               	goto	u4451
  5331     07C2  2FC4               	goto	u4450
  5332     07C3                     u4451:
  5333     07C3  2FB3               	goto	l4118
  5334     07C4                     u4450:
  5335     07C4  2FDC               	goto	l4130
  5336     07C5                     l4122:
  5337     07C5  3020               	movlw	32
  5338     07C6  0277               	subwf	___fltol@exp1,w
  5339     07C7  1C03               	skipc
  5340     07C8  2FCA               	goto	u4461
  5341     07C9  2FCB               	goto	u4460
  5342     07CA                     u4461:
  5343     07CA  2FD7               	goto	l651
  5344     07CB                     u4460:
  5345     07CB  2F80               	goto	l4098
  5346     07CC                     l4128:
  5347     07CC  3001               	movlw	1
  5348     07CD  00C8               	movwf	??___fltol
  5349     07CE                     u4475:
  5350     07CE  1003               	clrc
  5351     07CF  0DC4               	rlf	___fltol@f1,f
  5352     07D0  0DC5               	rlf	___fltol@f1+1,f
  5353     07D1  0DC6               	rlf	___fltol@f1+2,f
  5354     07D2  0DC7               	rlf	___fltol@f1+3,f
  5355     07D3  0BC8               	decfsz	??___fltol,f
  5356     07D4  2FCE               	goto	u4475
  5357     07D5  3001               	movlw	1
  5358     07D6  02F7               	subwf	___fltol@exp1,f
  5359     07D7                     l651:
  5360     07D7  0877               	movf	___fltol@exp1,w
  5361     07D8  1D03               	btfss	3,2
  5362     07D9  2FDB               	goto	u4481
  5363     07DA  2FDC               	goto	u4480
  5364     07DB                     u4481:
  5365     07DB  2FCC               	goto	l4128
  5366     07DC                     u4480:
  5367     07DC                     l4130:
  5368     07DC  0876               	movf	___fltol@sign1,w
  5369     07DD  1903               	btfsc	3,2
  5370     07DE  2FE0               	goto	u4491
  5371     07DF  2FE1               	goto	u4490
  5372     07E0                     u4491:
  5373     07E0  2FEC               	goto	l654
  5374     07E1                     u4490:
  5375     07E1                     l4132:
  5376     07E1  09C4               	comf	___fltol@f1,f
  5377     07E2  09C5               	comf	___fltol@f1+1,f
  5378     07E3  09C6               	comf	___fltol@f1+2,f
  5379     07E4  09C7               	comf	___fltol@f1+3,f
  5380     07E5  0AC4               	incf	___fltol@f1,f
  5381     07E6  1903               	skipnz
  5382     07E7  0AC5               	incf	___fltol@f1+1,f
  5383     07E8  1903               	skipnz
  5384     07E9  0AC6               	incf	___fltol@f1+2,f
  5385     07EA  1903               	skipnz
  5386     07EB  0AC7               	incf	___fltol@f1+3,f
  5387     07EC                     l654:
  5388     07EC                     l644:
  5389     07EC  0008               	return
  5390     07ED                     __end_of___fltol:
  5391                           
  5392                           	psect	text10
  5393     1430                     __ptext10:	
  5394 ;; *************** function ___flsub *****************
  5395 ;; Defined at:
  5396 ;;		line 242 in file "C:\Program Files\Microchip\xc8\v2.45\pic\sources\c99\common\sprcadd.c"
  5397 ;; Parameters:    Size  Location     Type
  5398 ;;  a               4   36[BANK0 ] long 
  5399 ;;  b               4   40[BANK0 ] long 
  5400 ;; Auto vars:     Size  Location     Type
  5401 ;;		None
  5402 ;; Return value:  Size  Location     Type
  5403 ;;                  4   36[BANK0 ] long 
  5404 ;; Registers used:
  5405 ;;		wreg, status,2, status,0, btemp+1, pclath, cstack
  5406 ;; Tracked objects:
  5407 ;;		On entry : 0/0
  5408 ;;		On exit  : 0/0
  5409 ;;		Unchanged: 0/0
  5410 ;; Data sizes:     COMMON   BANK0   BANK1   BANK3   BANK2
  5411 ;;      Params:         0       8       0       0       0
  5412 ;;      Locals:         0       0       0       0       0
  5413 ;;      Temps:          0       0       0       0       0
  5414 ;;      Totals:         0       8       0       0       0
  5415 ;;Total ram usage:        8 bytes
  5416 ;; Hardware stack levels used: 1
  5417 ;; Hardware stack levels required when called: 2
  5418 ;; This function calls:
  5419 ;;		___fladd
  5420 ;; This function is called by:
  5421 ;;		_run_program
  5422 ;; This function uses a non-reentrant model
  5423 ;;
  5424                           
  5425     1430                     ___flsub:	
  5426                           ;psect for function ___flsub
  5427                           
  5428     1430                     l4134:	
  5429                           ;incstack = 0
  5430                           ; Regs used in ___flsub: [wreg+status,2+status,0+btemp+1+pclath+cstack]
  5431                           
  5432     1430  3080               	movlw	128
  5433     1431  1283               	bcf	3,5	;RP0=0, select bank0
  5434     1432  1303               	bcf	3,6	;RP1=0, select bank0
  5435     1433  06C7               	xorwf	___flsub@a+3,f
  5436     1434                     l4136:
  5437     1434  084B               	movf	___flsub@b+3,w
  5438     1435  00A3               	movwf	___fladd@b+3
  5439     1436  084A               	movf	___flsub@b+2,w
  5440     1437  00A2               	movwf	___fladd@b+2
  5441     1438  0849               	movf	___flsub@b+1,w
  5442     1439  00A1               	movwf	___fladd@b+1
  5443     143A  0848               	movf	___flsub@b,w
  5444     143B  00A0               	movwf	___fladd@b
  5445     143C  0847               	movf	___flsub@a+3,w
  5446     143D  00A7               	movwf	___fladd@a+3
  5447     143E  0846               	movf	___flsub@a+2,w
  5448     143F  00A6               	movwf	___fladd@a+2
  5449     1440  0845               	movf	___flsub@a+1,w
  5450     1441  00A5               	movwf	___fladd@a+1
  5451     1442  0844               	movf	___flsub@a,w
  5452     1443  00A4               	movwf	___fladd@a
  5453     1444  120A  158A  25A0  160A  118A  	fcall	___fladd
  5454     1449  1283               	bcf	3,5	;RP0=0, select bank0
  5455     144A  1303               	bcf	3,6	;RP1=0, select bank0
  5456     144B  0823               	movf	?___fladd+3,w
  5457     144C  00C7               	movwf	?___flsub+3
  5458     144D  0822               	movf	?___fladd+2,w
  5459     144E  00C6               	movwf	?___flsub+2
  5460     144F  0821               	movf	?___fladd+1,w
  5461     1450  00C5               	movwf	?___flsub+1
  5462     1451  0820               	movf	?___fladd,w
  5463     1452  00C4               	movwf	?___flsub
  5464     1453                     l797:
  5465     1453  0008               	return
  5466     1454                     __end_of___flsub:
  5467                           
  5468                           	psect	text11
  5469     0DA0                     __ptext11:	
  5470 ;; *************** function ___fladd *****************
  5471 ;; Defined at:
  5472 ;;		line 10 in file "C:\Program Files\Microchip\xc8\v2.45\pic\sources\c99\common\sprcadd.c"
  5473 ;; Parameters:    Size  Location     Type
  5474 ;;  b               4    0[BANK0 ] long 
  5475 ;;  a               4    4[BANK0 ] long 
  5476 ;; Auto vars:     Size  Location     Type
  5477 ;;  grs             1    5[COMMON] unsigned char 
  5478 ;;  bexp            1    4[COMMON] unsigned char 
  5479 ;;  aexp            1    3[COMMON] unsigned char 
  5480 ;;  signs           1    2[COMMON] unsigned char 
  5481 ;; Return value:  Size  Location     Type
  5482 ;;                  4    0[BANK0 ] unsigned char 
  5483 ;; Registers used:
  5484 ;;		wreg, status,2, status,0, btemp+1
  5485 ;; Tracked objects:
  5486 ;;		On entry : 0/0
  5487 ;;		On exit  : 0/0
  5488 ;;		Unchanged: 0/0
  5489 ;; Data sizes:     COMMON   BANK0   BANK1   BANK3   BANK2
  5490 ;;      Params:         0       8       0       0       0
  5491 ;;      Locals:         4       0       0       0       0
  5492 ;;      Temps:          0       8       0       0       0
  5493 ;;      Totals:         4      16       0       0       0
  5494 ;;Total ram usage:       20 bytes
  5495 ;; Hardware stack levels used: 1
  5496 ;; Hardware stack levels required when called: 1
  5497 ;; This function calls:
  5498 ;;		Nothing
  5499 ;; This function is called by:
  5500 ;;		___flsub
  5501 ;; This function uses a non-reentrant model
  5502 ;;
  5503                           
  5504     0DA0                     ___fladd:	
  5505                           ;psect for function ___fladd
  5506                           
  5507     0DA0                     l3724:	
  5508                           ;incstack = 0
  5509                           ; Regs used in ___fladd: [wreg+status,2+status,0+btemp+1]
  5510                           
  5511     0DA0  1283               	bcf	3,5	;RP0=0, select bank0
  5512     0DA1  1303               	bcf	3,6	;RP1=0, select bank0
  5513     0DA2  0823               	movf	___fladd@b+3,w
  5514     0DA3  3980               	andlw	128
  5515     0DA4  00F2               	movwf	___fladd@signs
  5516     0DA5                     l3726:
  5517     0DA5  0823               	movf	___fladd@b+3,w
  5518     0DA6  00A8               	movwf	??___fladd
  5519     0DA7  0728               	addwf	??___fladd,w
  5520     0DA8  00F4               	movwf	___fladd@bexp
  5521     0DA9                     l3728:
  5522     0DA9  1FA2               	btfss	___fladd@b+2,7
  5523     0DAA  2DAC               	goto	u3591
  5524     0DAB  2DAD               	goto	u3590
  5525     0DAC                     u3591:
  5526     0DAC  2DAE               	goto	l3732
  5527     0DAD                     u3590:
  5528     0DAD                     l3730:
  5529     0DAD  1474               	bsf	___fladd@bexp,0
  5530     0DAE                     l3732:
  5531     0DAE  0874               	movf	___fladd@bexp,w
  5532     0DAF  1903               	btfsc	3,2
  5533     0DB0  2DB2               	goto	u3601
  5534     0DB1  2DB3               	goto	u3600
  5535     0DB2                     u3601:
  5536     0DB2  2DC3               	goto	l3742
  5537     0DB3                     u3600:
  5538     0DB3                     l3734:
  5539     0DB3  0A74               	incf	___fladd@bexp,w
  5540     0DB4  1D03               	btfss	3,2
  5541     0DB5  2DB7               	goto	u3611
  5542     0DB6  2DB8               	goto	u3610
  5543     0DB7                     u3611:
  5544     0DB7  2DC0               	goto	l3738
  5545     0DB8                     u3610:
  5546     0DB8                     l3736:
  5547     0DB8  3000               	movlw	0
  5548     0DB9  00A3               	movwf	___fladd@b+3
  5549     0DBA  3000               	movlw	0
  5550     0DBB  00A2               	movwf	___fladd@b+2
  5551     0DBC  3000               	movlw	0
  5552     0DBD  00A1               	movwf	___fladd@b+1
  5553     0DBE  3000               	movlw	0
  5554     0DBF  00A0               	movwf	___fladd@b
  5555     0DC0                     l3738:
  5556     0DC0  17A2               	bsf	___fladd@b+2,7
  5557     0DC1                     l3740:
  5558     0DC1  01A3               	clrf	___fladd@b+3
  5559     0DC2  2DCB               	goto	l3744
  5560     0DC3                     l3742:
  5561     0DC3  3000               	movlw	0
  5562     0DC4  00A3               	movwf	___fladd@b+3
  5563     0DC5  3000               	movlw	0
  5564     0DC6  00A2               	movwf	___fladd@b+2
  5565     0DC7  3000               	movlw	0
  5566     0DC8  00A1               	movwf	___fladd@b+1
  5567     0DC9  3000               	movlw	0
  5568     0DCA  00A0               	movwf	___fladd@b
  5569     0DCB                     l3744:
  5570     0DCB  0827               	movf	___fladd@a+3,w
  5571     0DCC  3980               	andlw	128
  5572     0DCD  00F3               	movwf	___fladd@aexp
  5573     0DCE                     l3746:
  5574     0DCE  0873               	movf	___fladd@aexp,w
  5575     0DCF  0672               	xorwf	___fladd@signs,w
  5576     0DD0  1903               	skipnz
  5577     0DD1  2DD3               	goto	u3621
  5578     0DD2  2DD4               	goto	u3620
  5579     0DD3                     u3621:
  5580     0DD3  2DD5               	goto	l3750
  5581     0DD4                     u3620:
  5582     0DD4                     l3748:
  5583     0DD4  1772               	bsf	___fladd@signs,6
  5584     0DD5                     l3750:
  5585     0DD5  0827               	movf	___fladd@a+3,w
  5586     0DD6  00A8               	movwf	??___fladd
  5587     0DD7  0728               	addwf	??___fladd,w
  5588     0DD8  00F3               	movwf	___fladd@aexp
  5589     0DD9                     l3752:
  5590     0DD9  1FA6               	btfss	___fladd@a+2,7
  5591     0DDA  2DDC               	goto	u3631
  5592     0DDB  2DDD               	goto	u3630
  5593     0DDC                     u3631:
  5594     0DDC  2DDE               	goto	l3756
  5595     0DDD                     u3630:
  5596     0DDD                     l3754:
  5597     0DDD  1473               	bsf	___fladd@aexp,0
  5598     0DDE                     l3756:
  5599     0DDE  0873               	movf	___fladd@aexp,w
  5600     0DDF  1903               	btfsc	3,2
  5601     0DE0  2DE2               	goto	u3641
  5602     0DE1  2DE3               	goto	u3640
  5603     0DE2                     u3641:
  5604     0DE2  2DF3               	goto	l3766
  5605     0DE3                     u3640:
  5606     0DE3                     l3758:
  5607     0DE3  0A73               	incf	___fladd@aexp,w
  5608     0DE4  1D03               	btfss	3,2
  5609     0DE5  2DE7               	goto	u3651
  5610     0DE6  2DE8               	goto	u3650
  5611     0DE7                     u3651:
  5612     0DE7  2DF0               	goto	l3762
  5613     0DE8                     u3650:
  5614     0DE8                     l3760:
  5615     0DE8  3000               	movlw	0
  5616     0DE9  00A7               	movwf	___fladd@a+3
  5617     0DEA  3000               	movlw	0
  5618     0DEB  00A6               	movwf	___fladd@a+2
  5619     0DEC  3000               	movlw	0
  5620     0DED  00A5               	movwf	___fladd@a+1
  5621     0DEE  3000               	movlw	0
  5622     0DEF  00A4               	movwf	___fladd@a
  5623     0DF0                     l3762:
  5624     0DF0  17A6               	bsf	___fladd@a+2,7
  5625     0DF1                     l3764:
  5626     0DF1  01A7               	clrf	___fladd@a+3
  5627     0DF2  2DFB               	goto	l751
  5628     0DF3                     l3766:
  5629     0DF3  3000               	movlw	0
  5630     0DF4  00A7               	movwf	___fladd@a+3
  5631     0DF5  3000               	movlw	0
  5632     0DF6  00A6               	movwf	___fladd@a+2
  5633     0DF7  3000               	movlw	0
  5634     0DF8  00A5               	movwf	___fladd@a+1
  5635     0DF9  3000               	movlw	0
  5636     0DFA  00A4               	movwf	___fladd@a
  5637     0DFB                     l751:
  5638     0DFB  0874               	movf	___fladd@bexp,w
  5639     0DFC  0273               	subwf	___fladd@aexp,w
  5640     0DFD  1803               	skipnc
  5641     0DFE  2E00               	goto	u3661
  5642     0DFF  2E01               	goto	u3660
  5643     0E00                     u3661:
  5644     0E00  2E27               	goto	l3802
  5645     0E01                     u3660:
  5646     0E01                     l3768:
  5647     0E01  1F72               	btfss	___fladd@signs,6
  5648     0E02  2E04               	goto	u3671
  5649     0E03  2E05               	goto	u3670
  5650     0E04                     u3671:
  5651     0E04  2E09               	goto	l3772
  5652     0E05                     u3670:
  5653     0E05                     l3770:
  5654     0E05  3080               	movlw	128
  5655     0E06  00FF               	movwf	btemp+1
  5656     0E07  087F               	movf	btemp+1,w
  5657     0E08  06F2               	xorwf	___fladd@signs,f
  5658     0E09                     l3772:
  5659     0E09  0874               	movf	___fladd@bexp,w
  5660     0E0A  00F5               	movwf	___fladd@grs
  5661     0E0B                     l3774:
  5662     0E0B  0873               	movf	___fladd@aexp,w
  5663     0E0C  00F4               	movwf	___fladd@bexp
  5664     0E0D                     l3776:
  5665     0E0D  0875               	movf	___fladd@grs,w
  5666     0E0E  00F3               	movwf	___fladd@aexp
  5667     0E0F                     l3778:
  5668     0E0F  0820               	movf	___fladd@b,w
  5669     0E10  00F5               	movwf	___fladd@grs
  5670     0E11                     l3780:
  5671     0E11  0824               	movf	___fladd@a,w
  5672     0E12  00A0               	movwf	___fladd@b
  5673     0E13                     l3782:
  5674     0E13  0875               	movf	___fladd@grs,w
  5675     0E14  00A4               	movwf	___fladd@a
  5676     0E15                     l3784:
  5677     0E15  0821               	movf	___fladd@b+1,w
  5678     0E16  00F5               	movwf	___fladd@grs
  5679     0E17                     l3786:
  5680     0E17  0825               	movf	___fladd@a+1,w
  5681     0E18  00A1               	movwf	___fladd@b+1
  5682     0E19                     l3788:
  5683     0E19  0875               	movf	___fladd@grs,w
  5684     0E1A  00A5               	movwf	___fladd@a+1
  5685     0E1B                     l3790:
  5686     0E1B  0822               	movf	___fladd@b+2,w
  5687     0E1C  00F5               	movwf	___fladd@grs
  5688     0E1D                     l3792:
  5689     0E1D  0826               	movf	___fladd@a+2,w
  5690     0E1E  00A2               	movwf	___fladd@b+2
  5691     0E1F                     l3794:
  5692     0E1F  0875               	movf	___fladd@grs,w
  5693     0E20  00A6               	movwf	___fladd@a+2
  5694     0E21                     l3796:
  5695     0E21  0823               	movf	___fladd@b+3,w
  5696     0E22  00F5               	movwf	___fladd@grs
  5697     0E23                     l3798:
  5698     0E23  0827               	movf	___fladd@a+3,w
  5699     0E24  00A3               	movwf	___fladd@b+3
  5700     0E25                     l3800:
  5701     0E25  0875               	movf	___fladd@grs,w
  5702     0E26  00A7               	movwf	___fladd@a+3
  5703     0E27                     l3802:
  5704     0E27  01F5               	clrf	___fladd@grs
  5705     0E28                     l3804:
  5706     0E28  0873               	movf	___fladd@aexp,w
  5707     0E29  00A8               	movwf	??___fladd
  5708     0E2A  01A9               	clrf	??___fladd+1
  5709     0E2B  0829               	movf	??___fladd+1,w
  5710     0E2C  00AB               	movwf	??___fladd+3
  5711     0E2D  0874               	movf	___fladd@bexp,w
  5712     0E2E  0228               	subwf	??___fladd,w
  5713     0E2F  00AA               	movwf	??___fladd+2
  5714     0E30  1C03               	skipc
  5715     0E31  03AB               	decf	??___fladd+3,f
  5716     0E32  082B               	movf	??___fladd+3,w
  5717     0E33  3A80               	xorlw	128
  5718     0E34  00FF               	movwf	btemp+1
  5719     0E35  3080               	movlw	128
  5720     0E36  027F               	subwf	btemp+1,w
  5721     0E37  1D03               	skipz
  5722     0E38  2E3B               	goto	u3685
  5723     0E39  301A               	movlw	26
  5724     0E3A  022A               	subwf	??___fladd+2,w
  5725     0E3B                     u3685:
  5726     0E3B  1C03               	skipc
  5727     0E3C  2E3E               	goto	u3681
  5728     0E3D  2E3F               	goto	u3680
  5729     0E3E                     u3681:
  5730     0E3E  2E7A               	goto	l3820
  5731     0E3F                     u3680:
  5732     0E3F                     l3806:
  5733     0E3F  1283               	bcf	3,5	;RP0=0, select bank0
  5734     0E40  1303               	bcf	3,6	;RP1=0, select bank0
  5735     0E41  0823               	movf	___fladd@b+3,w
  5736     0E42  0422               	iorwf	___fladd@b+2,w
  5737     0E43  0421               	iorwf	___fladd@b+1,w
  5738     0E44  0420               	iorwf	___fladd@b,w
  5739     0E45  1D03               	skipz
  5740     0E46  2E48               	goto	u3691
  5741     0E47  2E4A               	goto	u3690
  5742     0E48                     u3691:
  5743     0E48  3001               	movlw	1
  5744     0E49  2E4B               	goto	u3700
  5745     0E4A                     u3690:
  5746     0E4A  3000               	movlw	0
  5747     0E4B                     u3700:
  5748     0E4B  00F5               	movwf	___fladd@grs
  5749     0E4C  3000               	movlw	0
  5750     0E4D  00A3               	movwf	___fladd@b+3
  5751     0E4E  3000               	movlw	0
  5752     0E4F  00A2               	movwf	___fladd@b+2
  5753     0E50  3000               	movlw	0
  5754     0E51  00A1               	movwf	___fladd@b+1
  5755     0E52  3000               	movlw	0
  5756     0E53  00A0               	movwf	___fladd@b
  5757     0E54  0873               	movf	___fladd@aexp,w
  5758     0E55  00F4               	movwf	___fladd@bexp
  5759     0E56  2E80               	goto	l755
  5760     0E57                     l757:
  5761     0E57  1C75               	btfss	___fladd@grs,0
  5762     0E58  2E5A               	goto	u3711
  5763     0E59  2E5B               	goto	u3710
  5764     0E5A                     u3711:
  5765     0E5A  2E64               	goto	l3810
  5766     0E5B                     u3710:
  5767     0E5B                     l3808:
  5768     0E5B  0875               	movf	___fladd@grs,w
  5769     0E5C  1283               	bcf	3,5	;RP0=0, select bank0
  5770     0E5D  1303               	bcf	3,6	;RP1=0, select bank0
  5771     0E5E  00A8               	movwf	??___fladd
  5772     0E5F  1003               	clrc
  5773     0E60  0C28               	rrf	??___fladd,w
  5774     0E61  3801               	iorlw	1
  5775     0E62  00F5               	movwf	___fladd@grs
  5776     0E63  2E66               	goto	l3812
  5777     0E64                     l3810:
  5778     0E64  1003               	clrc
  5779     0E65  0CF5               	rrf	___fladd@grs,f
  5780     0E66                     l3812:
  5781     0E66  1283               	bcf	3,5	;RP0=0, select bank0
  5782     0E67  1303               	bcf	3,6	;RP1=0, select bank0
  5783     0E68  1C20               	btfss	___fladd@b,0
  5784     0E69  2E6B               	goto	u3721
  5785     0E6A  2E6C               	goto	u3720
  5786     0E6B                     u3721:
  5787     0E6B  2E6D               	goto	l3816
  5788     0E6C                     u3720:
  5789     0E6C                     l3814:
  5790     0E6C  17F5               	bsf	___fladd@grs,7
  5791     0E6D                     l3816:
  5792     0E6D  3001               	movlw	1
  5793     0E6E  00A8               	movwf	??___fladd
  5794     0E6F                     u3735:
  5795     0E6F  0D23               	rlf	___fladd@b+3,w
  5796     0E70  0CA3               	rrf	___fladd@b+3,f
  5797     0E71  0CA2               	rrf	___fladd@b+2,f
  5798     0E72  0CA1               	rrf	___fladd@b+1,f
  5799     0E73  0CA0               	rrf	___fladd@b,f
  5800     0E74  0BA8               	decfsz	??___fladd& (0+127),f
  5801     0E75  2E6F               	goto	u3735
  5802     0E76                     l3818:
  5803     0E76  3001               	movlw	1
  5804     0E77  00FF               	movwf	btemp+1
  5805     0E78  087F               	movf	btemp+1,w
  5806     0E79  07F4               	addwf	___fladd@bexp,f
  5807     0E7A                     l3820:
  5808     0E7A  0873               	movf	___fladd@aexp,w
  5809     0E7B  0274               	subwf	___fladd@bexp,w
  5810     0E7C  1C03               	skipc
  5811     0E7D  2E7F               	goto	u3741
  5812     0E7E  2E80               	goto	u3740
  5813     0E7F                     u3741:
  5814     0E7F  2E57               	goto	l757
  5815     0E80                     u3740:
  5816     0E80                     l755:
  5817     0E80  1B72               	btfsc	___fladd@signs,6
  5818     0E81  2E83               	goto	u3751
  5819     0E82  2E84               	goto	u3750
  5820     0E83                     u3751:
  5821     0E83  2ED1               	goto	l3846
  5822     0E84                     u3750:
  5823     0E84                     l3822:
  5824     0E84  0874               	movf	___fladd@bexp,w
  5825     0E85  1D03               	btfss	3,2
  5826     0E86  2E88               	goto	u3761
  5827     0E87  2E89               	goto	u3760
  5828     0E88                     u3761:
  5829     0E88  2E94               	goto	l3828
  5830     0E89                     u3760:
  5831     0E89                     l3824:
  5832     0E89  3000               	movlw	0
  5833     0E8A  1283               	bcf	3,5	;RP0=0, select bank0
  5834     0E8B  1303               	bcf	3,6	;RP1=0, select bank0
  5835     0E8C  00A3               	movwf	?___fladd+3
  5836     0E8D  3000               	movlw	0
  5837     0E8E  00A2               	movwf	?___fladd+2
  5838     0E8F  3000               	movlw	0
  5839     0E90  00A1               	movwf	?___fladd+1
  5840     0E91  3000               	movlw	0
  5841     0E92  00A0               	movwf	?___fladd
  5842     0E93  2FFF               	goto	l764
  5843     0E94                     l3828:
  5844     0E94  1283               	bcf	3,5	;RP0=0, select bank0
  5845     0E95  1303               	bcf	3,6	;RP1=0, select bank0
  5846     0E96  0824               	movf	___fladd@a,w
  5847     0E97  07A0               	addwf	___fladd@b,f
  5848     0E98  0825               	movf	___fladd@a+1,w
  5849     0E99  1103               	clrz
  5850     0E9A  1803               	skipnc
  5851     0E9B  3E01               	addlw	1
  5852     0E9C  1903               	skipnz
  5853     0E9D  2E9F               	goto	u3771
  5854     0E9E  07A1               	addwf	___fladd@b+1,f
  5855     0E9F                     u3771:
  5856     0E9F  0826               	movf	___fladd@a+2,w
  5857     0EA0  1103               	clrz
  5858     0EA1  1803               	skipnc
  5859     0EA2  3E01               	addlw	1
  5860     0EA3  1903               	skipnz
  5861     0EA4  2EA6               	goto	u3772
  5862     0EA5  07A2               	addwf	___fladd@b+2,f
  5863     0EA6                     u3772:
  5864     0EA6  0827               	movf	___fladd@a+3,w
  5865     0EA7  1103               	clrz
  5866     0EA8  1803               	skipnc
  5867     0EA9  3E01               	addlw	1
  5868     0EAA  1903               	skipnz
  5869     0EAB  2EAD               	goto	u3773
  5870     0EAC  07A3               	addwf	___fladd@b+3,f
  5871     0EAD                     u3773:
  5872     0EAD                     l3830:
  5873     0EAD  1C23               	btfss	___fladd@b+3,0
  5874     0EAE  2EB0               	goto	u3781
  5875     0EAF  2EB1               	goto	u3780
  5876     0EB0                     u3781:
  5877     0EB0  2F87               	goto	l3882
  5878     0EB1                     u3780:
  5879     0EB1                     l3832:
  5880     0EB1  1C75               	btfss	___fladd@grs,0
  5881     0EB2  2EB4               	goto	u3791
  5882     0EB3  2EB5               	goto	u3790
  5883     0EB4                     u3791:
  5884     0EB4  2EBC               	goto	l3836
  5885     0EB5                     u3790:
  5886     0EB5                     l3834:
  5887     0EB5  0875               	movf	___fladd@grs,w
  5888     0EB6  00A8               	movwf	??___fladd
  5889     0EB7  1003               	clrc
  5890     0EB8  0C28               	rrf	??___fladd,w
  5891     0EB9  3801               	iorlw	1
  5892     0EBA  00F5               	movwf	___fladd@grs
  5893     0EBB  2EBE               	goto	l3838
  5894     0EBC                     l3836:
  5895     0EBC  1003               	clrc
  5896     0EBD  0CF5               	rrf	___fladd@grs,f
  5897     0EBE                     l3838:
  5898     0EBE  1C20               	btfss	___fladd@b,0
  5899     0EBF  2EC1               	goto	u3801
  5900     0EC0  2EC2               	goto	u3800
  5901     0EC1                     u3801:
  5902     0EC1  2EC3               	goto	l3842
  5903     0EC2                     u3800:
  5904     0EC2                     l3840:
  5905     0EC2  17F5               	bsf	___fladd@grs,7
  5906     0EC3                     l3842:
  5907     0EC3  3001               	movlw	1
  5908     0EC4  00A8               	movwf	??___fladd
  5909     0EC5                     u3815:
  5910     0EC5  0D23               	rlf	___fladd@b+3,w
  5911     0EC6  0CA3               	rrf	___fladd@b+3,f
  5912     0EC7  0CA2               	rrf	___fladd@b+2,f
  5913     0EC8  0CA1               	rrf	___fladd@b+1,f
  5914     0EC9  0CA0               	rrf	___fladd@b,f
  5915     0ECA  0BA8               	decfsz	??___fladd& (0+127),f
  5916     0ECB  2EC5               	goto	u3815
  5917     0ECC                     l3844:
  5918     0ECC  3001               	movlw	1
  5919     0ECD  00FF               	movwf	btemp+1
  5920     0ECE  087F               	movf	btemp+1,w
  5921     0ECF  07F4               	addwf	___fladd@bexp,f
  5922     0ED0  2F87               	goto	l3882
  5923     0ED1                     l3846:
  5924     0ED1  1283               	bcf	3,5	;RP0=0, select bank0
  5925     0ED2  1303               	bcf	3,6	;RP1=0, select bank0
  5926     0ED3  0823               	movf	___fladd@b+3,w
  5927     0ED4  3A80               	xorlw	128
  5928     0ED5  00FF               	movwf	btemp+1
  5929     0ED6  0827               	movf	___fladd@a+3,w
  5930     0ED7  3A80               	xorlw	128
  5931     0ED8  027F               	subwf	btemp+1,w
  5932     0ED9  1D03               	skipz
  5933     0EDA  2EE5               	goto	u3823
  5934     0EDB  0826               	movf	___fladd@a+2,w
  5935     0EDC  0222               	subwf	___fladd@b+2,w
  5936     0EDD  1D03               	skipz
  5937     0EDE  2EE5               	goto	u3823
  5938     0EDF  0825               	movf	___fladd@a+1,w
  5939     0EE0  0221               	subwf	___fladd@b+1,w
  5940     0EE1  1D03               	skipz
  5941     0EE2  2EE5               	goto	u3823
  5942     0EE3  0824               	movf	___fladd@a,w
  5943     0EE4  0220               	subwf	___fladd@b,w
  5944     0EE5                     u3823:
  5945     0EE5  1803               	skipnc
  5946     0EE6  2EE8               	goto	u3821
  5947     0EE7  2EE9               	goto	u3820
  5948     0EE8                     u3821:
  5949     0EE8  2F41               	goto	l3858
  5950     0EE9                     u3820:
  5951     0EE9                     l3848:
  5952     0EE9  30FF               	movlw	255
  5953     0EEA  00A8               	movwf	??___fladd
  5954     0EEB  30FF               	movlw	255
  5955     0EEC  00A9               	movwf	??___fladd+1
  5956     0EED  30FF               	movlw	255
  5957     0EEE  00AA               	movwf	??___fladd+2
  5958     0EEF  30FF               	movlw	255
  5959     0EF0  00AB               	movwf	??___fladd+3
  5960     0EF1  0824               	movf	___fladd@a,w
  5961     0EF2  00AC               	movwf	??___fladd+4
  5962     0EF3  0825               	movf	___fladd@a+1,w
  5963     0EF4  00AD               	movwf	??___fladd+5
  5964     0EF5  0826               	movf	___fladd@a+2,w
  5965     0EF6  00AE               	movwf	??___fladd+6
  5966     0EF7  0827               	movf	___fladd@a+3,w
  5967     0EF8  00AF               	movwf	??___fladd+7
  5968     0EF9  0820               	movf	___fladd@b,w
  5969     0EFA  02AC               	subwf	??___fladd+4,f
  5970     0EFB  0821               	movf	___fladd@b+1,w
  5971     0EFC  1C03               	skipc
  5972     0EFD  0F21               	incfsz	___fladd@b+1,w
  5973     0EFE  2F00               	goto	u3831
  5974     0EFF  2F01               	goto	u3832
  5975     0F00                     u3831:
  5976     0F00  02AD               	subwf	??___fladd+5,f
  5977     0F01                     u3832:
  5978     0F01  0822               	movf	___fladd@b+2,w
  5979     0F02  1C03               	skipc
  5980     0F03  0F22               	incfsz	___fladd@b+2,w
  5981     0F04  2F06               	goto	u3833
  5982     0F05  2F07               	goto	u3834
  5983     0F06                     u3833:
  5984     0F06  02AE               	subwf	??___fladd+6,f
  5985     0F07                     u3834:
  5986     0F07  0823               	movf	___fladd@b+3,w
  5987     0F08  1C03               	skipc
  5988     0F09  0F23               	incfsz	___fladd@b+3,w
  5989     0F0A  2F0C               	goto	u3835
  5990     0F0B  2F0D               	goto	u3836
  5991     0F0C                     u3835:
  5992     0F0C  02AF               	subwf	??___fladd+7,f
  5993     0F0D                     u3836:
  5994     0F0D  082C               	movf	??___fladd+4,w
  5995     0F0E  07A8               	addwf	??___fladd,f
  5996     0F0F  082D               	movf	??___fladd+5,w
  5997     0F10  1803               	skipnc
  5998     0F11  0F2D               	incfsz	??___fladd+5,w
  5999     0F12  2F14               	goto	u3840
  6000     0F13  2F15               	goto	u3841
  6001     0F14                     u3840:
  6002     0F14  07A9               	addwf	??___fladd+1,f
  6003     0F15                     u3841:
  6004     0F15  082E               	movf	??___fladd+6,w
  6005     0F16  1803               	skipnc
  6006     0F17  0F2E               	incfsz	??___fladd+6,w
  6007     0F18  2F1A               	goto	u3842
  6008     0F19  2F1B               	goto	u3843
  6009     0F1A                     u3842:
  6010     0F1A  07AA               	addwf	??___fladd+2,f
  6011     0F1B                     u3843:
  6012     0F1B  082F               	movf	??___fladd+7,w
  6013     0F1C  1803               	skipnc
  6014     0F1D  0A2F               	incf	??___fladd+7,w
  6015     0F1E  07AB               	addwf	??___fladd+3,f
  6016     0F1F  082B               	movf	??___fladd+3,w
  6017     0F20  00A3               	movwf	___fladd@b+3
  6018     0F21  082A               	movf	??___fladd+2,w
  6019     0F22  00A2               	movwf	___fladd@b+2
  6020     0F23  0829               	movf	??___fladd+1,w
  6021     0F24  00A1               	movwf	___fladd@b+1
  6022     0F25  0828               	movf	??___fladd,w
  6023     0F26  00A0               	movwf	___fladd@b
  6024     0F27                     l3850:
  6025     0F27  3080               	movlw	128
  6026     0F28  00FF               	movwf	btemp+1
  6027     0F29  087F               	movf	btemp+1,w
  6028     0F2A  06F2               	xorwf	___fladd@signs,f
  6029     0F2B                     l3852:
  6030     0F2B  09F5               	comf	___fladd@grs,f
  6031     0F2C  0AF5               	incf	___fladd@grs,f
  6032     0F2D                     l3854:
  6033     0F2D  0875               	movf	___fladd@grs,w
  6034     0F2E  1D03               	btfss	3,2
  6035     0F2F  2F31               	goto	u3851
  6036     0F30  2F32               	goto	u3850
  6037     0F31                     u3851:
  6038     0F31  2F4F               	goto	l772
  6039     0F32                     u3850:
  6040     0F32                     l3856:
  6041     0F32  3001               	movlw	1
  6042     0F33  07A0               	addwf	___fladd@b,f
  6043     0F34  3000               	movlw	0
  6044     0F35  1803               	skipnc
  6045     0F36  3001               	movlw	1
  6046     0F37  07A1               	addwf	___fladd@b+1,f
  6047     0F38  3000               	movlw	0
  6048     0F39  1803               	skipnc
  6049     0F3A  3001               	movlw	1
  6050     0F3B  07A2               	addwf	___fladd@b+2,f
  6051     0F3C  3000               	movlw	0
  6052     0F3D  1803               	skipnc
  6053     0F3E  3001               	movlw	1
  6054     0F3F  07A3               	addwf	___fladd@b+3,f
  6055     0F40  2F4F               	goto	l772
  6056     0F41                     l3858:
  6057     0F41  0824               	movf	___fladd@a,w
  6058     0F42  02A0               	subwf	___fladd@b,f
  6059     0F43  0825               	movf	___fladd@a+1,w
  6060     0F44  1C03               	skipc
  6061     0F45  0F25               	incfsz	___fladd@a+1,w
  6062     0F46  02A1               	subwf	___fladd@b+1,f
  6063     0F47  0826               	movf	___fladd@a+2,w
  6064     0F48  1C03               	skipc
  6065     0F49  0F26               	incfsz	___fladd@a+2,w
  6066     0F4A  02A2               	subwf	___fladd@b+2,f
  6067     0F4B  0827               	movf	___fladd@a+3,w
  6068     0F4C  1C03               	skipc
  6069     0F4D  0F27               	incfsz	___fladd@a+3,w
  6070     0F4E  02A3               	subwf	___fladd@b+3,f
  6071     0F4F                     l772:
  6072     0F4F  0823               	movf	___fladd@b+3,w
  6073     0F50  0422               	iorwf	___fladd@b+2,w
  6074     0F51  0421               	iorwf	___fladd@b+1,w
  6075     0F52  0420               	iorwf	___fladd@b,w
  6076     0F53  1D03               	skipz
  6077     0F54  2F56               	goto	u3861
  6078     0F55  2F57               	goto	u3860
  6079     0F56                     u3861:
  6080     0F56  2F83               	goto	l3880
  6081     0F57                     u3860:
  6082     0F57                     l3860:
  6083     0F57  0875               	movf	___fladd@grs,w
  6084     0F58  1D03               	btfss	3,2
  6085     0F59  2F5B               	goto	u3871
  6086     0F5A  2F5C               	goto	u3870
  6087     0F5B                     u3871:
  6088     0F5B  2F83               	goto	l3880
  6089     0F5C                     u3870:
  6090     0F5C                     l3862:
  6091     0F5C  3000               	movlw	0
  6092     0F5D  00A3               	movwf	?___fladd+3
  6093     0F5E  3000               	movlw	0
  6094     0F5F  00A2               	movwf	?___fladd+2
  6095     0F60  3000               	movlw	0
  6096     0F61  00A1               	movwf	?___fladd+1
  6097     0F62  3000               	movlw	0
  6098     0F63  00A0               	movwf	?___fladd
  6099     0F64  2FFF               	goto	l764
  6100     0F65                     l3866:
  6101     0F65  3001               	movlw	1
  6102     0F66  00A8               	movwf	??___fladd
  6103     0F67                     u3885:
  6104     0F67  1003               	clrc
  6105     0F68  0DA0               	rlf	___fladd@b,f
  6106     0F69  0DA1               	rlf	___fladd@b+1,f
  6107     0F6A  0DA2               	rlf	___fladd@b+2,f
  6108     0F6B  0DA3               	rlf	___fladd@b+3,f
  6109     0F6C  0BA8               	decfsz	??___fladd,f
  6110     0F6D  2F67               	goto	u3885
  6111     0F6E                     l3868:
  6112     0F6E  1FF5               	btfss	___fladd@grs,7
  6113     0F6F  2F71               	goto	u3891
  6114     0F70  2F72               	goto	u3890
  6115     0F71                     u3891:
  6116     0F71  2F73               	goto	l776
  6117     0F72                     u3890:
  6118     0F72                     l3870:
  6119     0F72  1420               	bsf	___fladd@b,0
  6120     0F73                     l776:
  6121     0F73  1C75               	btfss	___fladd@grs,0
  6122     0F74  2F76               	goto	u3901
  6123     0F75  2F77               	goto	u3900
  6124     0F76                     u3901:
  6125     0F76  2F7A               	goto	l3874
  6126     0F77                     u3900:
  6127     0F77                     l3872:
  6128     0F77  1403               	setc
  6129     0F78  0DF5               	rlf	___fladd@grs,f
  6130     0F79  2F7C               	goto	l3876
  6131     0F7A                     l3874:
  6132     0F7A  1003               	clrc
  6133     0F7B  0DF5               	rlf	___fladd@grs,f
  6134     0F7C                     l3876:
  6135     0F7C  0874               	movf	___fladd@bexp,w
  6136     0F7D  1903               	btfsc	3,2
  6137     0F7E  2F80               	goto	u3911
  6138     0F7F  2F81               	goto	u3910
  6139     0F80                     u3911:
  6140     0F80  2F83               	goto	l3880
  6141     0F81                     u3910:
  6142     0F81                     l3878:
  6143     0F81  3001               	movlw	1
  6144     0F82  02F4               	subwf	___fladd@bexp,f
  6145     0F83                     l3880:
  6146     0F83  1FA2               	btfss	___fladd@b+2,7
  6147     0F84  2F86               	goto	u3921
  6148     0F85  2F87               	goto	u3920
  6149     0F86                     u3921:
  6150     0F86  2F65               	goto	l3866
  6151     0F87                     u3920:
  6152     0F87                     l3882:
  6153     0F87  01F3               	clrf	___fladd@aexp
  6154     0F88                     l3884:
  6155     0F88  1FF5               	btfss	___fladd@grs,7
  6156     0F89  2F8B               	goto	u3931
  6157     0F8A  2F8C               	goto	u3930
  6158     0F8B                     u3931:
  6159     0F8B  2F9A               	goto	l3892
  6160     0F8C                     u3930:
  6161     0F8C                     l3886:
  6162     0F8C  0875               	movf	___fladd@grs,w
  6163     0F8D  397F               	andlw	127
  6164     0F8E  1903               	btfsc	3,2
  6165     0F8F  2F91               	goto	u3941
  6166     0F90  2F92               	goto	u3940
  6167     0F91                     u3941:
  6168     0F91  2F95               	goto	l782
  6169     0F92                     u3940:
  6170     0F92                     l3888:
  6171     0F92  01F3               	clrf	___fladd@aexp
  6172     0F93  0AF3               	incf	___fladd@aexp,f
  6173     0F94  2F9A               	goto	l3892
  6174     0F95                     l782:
  6175     0F95  1C20               	btfss	___fladd@b,0
  6176     0F96  2F98               	goto	u3951
  6177     0F97  2F99               	goto	u3950
  6178     0F98                     u3951:
  6179     0F98  2F9A               	goto	l3892
  6180     0F99                     u3950:
  6181     0F99  2F92               	goto	l3888
  6182     0F9A                     l3892:
  6183     0F9A  0873               	movf	___fladd@aexp,w
  6184     0F9B  1903               	btfsc	3,2
  6185     0F9C  2F9E               	goto	u3961
  6186     0F9D  2F9F               	goto	u3960
  6187     0F9E                     u3961:
  6188     0F9E  2FD3               	goto	l3902
  6189     0F9F                     u3960:
  6190     0F9F                     l3894:
  6191     0F9F  3001               	movlw	1
  6192     0FA0  07A0               	addwf	___fladd@b,f
  6193     0FA1  3000               	movlw	0
  6194     0FA2  1803               	skipnc
  6195     0FA3  3001               	movlw	1
  6196     0FA4  07A1               	addwf	___fladd@b+1,f
  6197     0FA5  3000               	movlw	0
  6198     0FA6  1803               	skipnc
  6199     0FA7  3001               	movlw	1
  6200     0FA8  07A2               	addwf	___fladd@b+2,f
  6201     0FA9  3000               	movlw	0
  6202     0FAA  1803               	skipnc
  6203     0FAB  3001               	movlw	1
  6204     0FAC  07A3               	addwf	___fladd@b+3,f
  6205     0FAD                     l3896:
  6206     0FAD  1C23               	btfss	___fladd@b+3,0
  6207     0FAE  2FB0               	goto	u3971
  6208     0FAF  2FB1               	goto	u3970
  6209     0FB0                     u3971:
  6210     0FB0  2FD3               	goto	l3902
  6211     0FB1                     u3970:
  6212     0FB1                     l3898:
  6213     0FB1  0820               	movf	___fladd@b,w
  6214     0FB2  00A8               	movwf	??___fladd
  6215     0FB3  0821               	movf	___fladd@b+1,w
  6216     0FB4  00A9               	movwf	??___fladd+1
  6217     0FB5  0822               	movf	___fladd@b+2,w
  6218     0FB6  00AA               	movwf	??___fladd+2
  6219     0FB7  0823               	movf	___fladd@b+3,w
  6220     0FB8  00AB               	movwf	??___fladd+3
  6221     0FB9  3001               	movlw	1
  6222     0FBA  00AC               	movwf	??___fladd+4
  6223     0FBB                     u3985:
  6224     0FBB  0D2B               	rlf	??___fladd+3,w
  6225     0FBC  0CAB               	rrf	??___fladd+3,f
  6226     0FBD  0CAA               	rrf	??___fladd+2,f
  6227     0FBE  0CA9               	rrf	??___fladd+1,f
  6228     0FBF  0CA8               	rrf	??___fladd,f
  6229     0FC0                     u3980:
  6230     0FC0  0BAC               	decfsz	??___fladd+4,f
  6231     0FC1  2FBB               	goto	u3985
  6232     0FC2  082B               	movf	??___fladd+3,w
  6233     0FC3  00A3               	movwf	___fladd@b+3
  6234     0FC4  082A               	movf	??___fladd+2,w
  6235     0FC5  00A2               	movwf	___fladd@b+2
  6236     0FC6  0829               	movf	??___fladd+1,w
  6237     0FC7  00A1               	movwf	___fladd@b+1
  6238     0FC8  0828               	movf	??___fladd,w
  6239     0FC9  00A0               	movwf	___fladd@b
  6240     0FCA  0A74               	incf	___fladd@bexp,w
  6241     0FCB  1903               	btfsc	3,2
  6242     0FCC  2FCE               	goto	u3991
  6243     0FCD  2FCF               	goto	u3990
  6244     0FCE                     u3991:
  6245     0FCE  2FD3               	goto	l3902
  6246     0FCF                     u3990:
  6247     0FCF                     l3900:
  6248     0FCF  3001               	movlw	1
  6249     0FD0  00FF               	movwf	btemp+1
  6250     0FD1  087F               	movf	btemp+1,w
  6251     0FD2  07F4               	addwf	___fladd@bexp,f
  6252     0FD3                     l3902:
  6253     0FD3  0A74               	incf	___fladd@bexp,w
  6254     0FD4  1903               	btfsc	3,2
  6255     0FD5  2FD7               	goto	u4001
  6256     0FD6  2FD8               	goto	u4000
  6257     0FD7                     u4001:
  6258     0FD7  2FDD               	goto	l3906
  6259     0FD8                     u4000:
  6260     0FD8                     l3904:
  6261     0FD8  0874               	movf	___fladd@bexp,w
  6262     0FD9  1D03               	btfss	3,2
  6263     0FDA  2FDC               	goto	u4011
  6264     0FDB  2FDD               	goto	u4010
  6265     0FDC                     u4011:
  6266     0FDC  2FEB               	goto	l3912
  6267     0FDD                     u4010:
  6268     0FDD                     l3906:
  6269     0FDD  3000               	movlw	0
  6270     0FDE  00A3               	movwf	___fladd@b+3
  6271     0FDF  3000               	movlw	0
  6272     0FE0  00A2               	movwf	___fladd@b+2
  6273     0FE1  3000               	movlw	0
  6274     0FE2  00A1               	movwf	___fladd@b+1
  6275     0FE3  3000               	movlw	0
  6276     0FE4  00A0               	movwf	___fladd@b
  6277     0FE5                     l3908:
  6278     0FE5  0874               	movf	___fladd@bexp,w
  6279     0FE6  1D03               	btfss	3,2
  6280     0FE7  2FE9               	goto	u4021
  6281     0FE8  2FEA               	goto	u4020
  6282     0FE9                     u4021:
  6283     0FE9  2FEB               	goto	l3912
  6284     0FEA                     u4020:
  6285     0FEA                     l3910:
  6286     0FEA  01F2               	clrf	___fladd@signs
  6287     0FEB                     l3912:
  6288     0FEB  1C74               	btfss	___fladd@bexp,0
  6289     0FEC  2FEE               	goto	u4031
  6290     0FED  2FEF               	goto	u4030
  6291     0FEE                     u4031:
  6292     0FEE  2FF1               	goto	l3916
  6293     0FEF                     u4030:
  6294     0FEF                     l3914:
  6295     0FEF  17A2               	bsf	___fladd@b+2,7
  6296     0FF0  2FF5               	goto	l3918
  6297     0FF1                     l3916:
  6298     0FF1  307F               	movlw	127
  6299     0FF2  00FF               	movwf	btemp+1
  6300     0FF3  087F               	movf	btemp+1,w
  6301     0FF4  05A2               	andwf	___fladd@b+2,f
  6302     0FF5                     l3918:
  6303     0FF5  0874               	movf	___fladd@bexp,w
  6304     0FF6  00A8               	movwf	??___fladd
  6305     0FF7  1003               	clrc
  6306     0FF8  0C28               	rrf	??___fladd,w
  6307     0FF9  00A3               	movwf	___fladd@b+3
  6308     0FFA                     l3920:
  6309     0FFA  1FF2               	btfss	___fladd@signs,7
  6310     0FFB  2FFD               	goto	u4041
  6311     0FFC  2FFE               	goto	u4040
  6312     0FFD                     u4041:
  6313     0FFD  2FFF               	goto	l794
  6314     0FFE                     u4040:
  6315     0FFE                     l3922:
  6316     0FFE  17A3               	bsf	___fladd@b+3,7
  6317     0FFF                     l794:
  6318     0FFF                     l764:
  6319     0FFF  0008               	return
  6320     1000                     __end_of___fladd:
  6321                           
  6322                           	psect	text12
  6323     0430                     __ptext12:	
  6324 ;; *************** function ___flmul *****************
  6325 ;; Defined at:
  6326 ;;		line 8 in file "C:\Program Files\Microchip\xc8\v2.45\pic\sources\c99\common\sprcmul.c"
  6327 ;; Parameters:    Size  Location     Type
  6328 ;;  b               4   10[BANK0 ] unsigned char 
  6329 ;;  a               4   14[BANK0 ] unsigned char 
  6330 ;; Auto vars:     Size  Location     Type
  6331 ;;  prod            4   30[BANK0 ] struct .
  6332 ;;  grs             4   25[BANK0 ] unsigned long 
  6333 ;;  temp            2   34[BANK0 ] struct .
  6334 ;;  bexp            1   29[BANK0 ] unsigned char 
  6335 ;;  aexp            1   24[BANK0 ] unsigned char 
  6336 ;;  sign            1   23[BANK0 ] unsigned char 
  6337 ;; Return value:  Size  Location     Type
  6338 ;;                  4   10[BANK0 ] unsigned char 
  6339 ;; Registers used:
  6340 ;;		wreg, status,2, status,0, btemp+1, pclath, cstack
  6341 ;; Tracked objects:
  6342 ;;		On entry : 0/0
  6343 ;;		On exit  : 0/0
  6344 ;;		Unchanged: 0/0
  6345 ;; Data sizes:     COMMON   BANK0   BANK1   BANK3   BANK2
  6346 ;;      Params:         0       8       0       0       0
  6347 ;;      Locals:         0      13       0       0       0
  6348 ;;      Temps:          0       5       0       0       0
  6349 ;;      Totals:         0      26       0       0       0
  6350 ;;Total ram usage:       26 bytes
  6351 ;; Hardware stack levels used: 1
  6352 ;; Hardware stack levels required when called: 2
  6353 ;; This function calls:
  6354 ;;		__Umul8_16
  6355 ;; This function is called by:
  6356 ;;		_run_program
  6357 ;; This function uses a non-reentrant model
  6358 ;;
  6359                           
  6360     0430                     ___flmul:	
  6361                           ;psect for function ___flmul
  6362                           
  6363     0430                     l4140:	
  6364                           ;incstack = 0
  6365                           ; Regs used in ___flmul: [wreg+status,2+status,0+btemp+1+pclath+cstack]
  6366                           
  6367     0430  1283               	bcf	3,5	;RP0=0, select bank0
  6368     0431  1303               	bcf	3,6	;RP1=0, select bank0
  6369     0432  082D               	movf	___flmul@b+3,w
  6370     0433  3980               	andlw	128
  6371     0434  00B7               	movwf	___flmul@sign
  6372     0435                     l4142:
  6373     0435  082D               	movf	___flmul@b+3,w
  6374     0436  00B2               	movwf	??___flmul
  6375     0437  0732               	addwf	??___flmul,w
  6376     0438  00BD               	movwf	___flmul@bexp
  6377     0439                     l4144:
  6378     0439  1FAC               	btfss	___flmul@b+2,7
  6379     043A  2C3C               	goto	u4501
  6380     043B  2C3D               	goto	u4500
  6381     043C                     u4501:
  6382     043C  2C3E               	goto	l4148
  6383     043D                     u4500:
  6384     043D                     l4146:
  6385     043D  143D               	bsf	___flmul@bexp,0
  6386     043E                     l4148:
  6387     043E  083D               	movf	___flmul@bexp,w
  6388     043F  1903               	btfsc	3,2
  6389     0440  2C42               	goto	u4511
  6390     0441  2C43               	goto	u4510
  6391     0442                     u4511:
  6392     0442  2C52               	goto	l4156
  6393     0443                     u4510:
  6394     0443                     l4150:
  6395     0443  0A3D               	incf	___flmul@bexp,w
  6396     0444  1D03               	btfss	3,2
  6397     0445  2C47               	goto	u4521
  6398     0446  2C48               	goto	u4520
  6399     0447                     u4521:
  6400     0447  2C50               	goto	l4154
  6401     0448                     u4520:
  6402     0448                     l4152:
  6403     0448  3000               	movlw	0
  6404     0449  00AD               	movwf	___flmul@b+3
  6405     044A  3000               	movlw	0
  6406     044B  00AC               	movwf	___flmul@b+2
  6407     044C  3000               	movlw	0
  6408     044D  00AB               	movwf	___flmul@b+1
  6409     044E  3000               	movlw	0
  6410     044F  00AA               	movwf	___flmul@b
  6411     0450                     l4154:
  6412     0450  17AC               	bsf	___flmul@b+2,7
  6413     0451  2C5A               	goto	l4158
  6414     0452                     l4156:
  6415     0452  3000               	movlw	0
  6416     0453  00AD               	movwf	___flmul@b+3
  6417     0454  3000               	movlw	0
  6418     0455  00AC               	movwf	___flmul@b+2
  6419     0456  3000               	movlw	0
  6420     0457  00AB               	movwf	___flmul@b+1
  6421     0458  3000               	movlw	0
  6422     0459  00AA               	movwf	___flmul@b
  6423     045A                     l4158:
  6424     045A  0831               	movf	___flmul@a+3,w
  6425     045B  3980               	andlw	128
  6426     045C  00FF               	movwf	btemp+1
  6427     045D  087F               	movf	btemp+1,w
  6428     045E  06B7               	xorwf	___flmul@sign,f
  6429     045F                     l4160:
  6430     045F  0831               	movf	___flmul@a+3,w
  6431     0460  00B2               	movwf	??___flmul
  6432     0461  0732               	addwf	??___flmul,w
  6433     0462  00B8               	movwf	___flmul@aexp
  6434     0463                     l4162:
  6435     0463  1FB0               	btfss	___flmul@a+2,7
  6436     0464  2C66               	goto	u4531
  6437     0465  2C67               	goto	u4530
  6438     0466                     u4531:
  6439     0466  2C68               	goto	l4166
  6440     0467                     u4530:
  6441     0467                     l4164:
  6442     0467  1438               	bsf	___flmul@aexp,0
  6443     0468                     l4166:
  6444     0468  0838               	movf	___flmul@aexp,w
  6445     0469  1903               	btfsc	3,2
  6446     046A  2C6C               	goto	u4541
  6447     046B  2C6D               	goto	u4540
  6448     046C                     u4541:
  6449     046C  2C7C               	goto	l4174
  6450     046D                     u4540:
  6451     046D                     l4168:
  6452     046D  0A38               	incf	___flmul@aexp,w
  6453     046E  1D03               	btfss	3,2
  6454     046F  2C71               	goto	u4551
  6455     0470  2C72               	goto	u4550
  6456     0471                     u4551:
  6457     0471  2C7A               	goto	l4172
  6458     0472                     u4550:
  6459     0472                     l4170:
  6460     0472  3000               	movlw	0
  6461     0473  00B1               	movwf	___flmul@a+3
  6462     0474  3000               	movlw	0
  6463     0475  00B0               	movwf	___flmul@a+2
  6464     0476  3000               	movlw	0
  6465     0477  00AF               	movwf	___flmul@a+1
  6466     0478  3000               	movlw	0
  6467     0479  00AE               	movwf	___flmul@a
  6468     047A                     l4172:
  6469     047A  17B0               	bsf	___flmul@a+2,7
  6470     047B  2C84               	goto	l4176
  6471     047C                     l4174:
  6472     047C  3000               	movlw	0
  6473     047D  00B1               	movwf	___flmul@a+3
  6474     047E  3000               	movlw	0
  6475     047F  00B0               	movwf	___flmul@a+2
  6476     0480  3000               	movlw	0
  6477     0481  00AF               	movwf	___flmul@a+1
  6478     0482  3000               	movlw	0
  6479     0483  00AE               	movwf	___flmul@a
  6480     0484                     l4176:
  6481     0484  0838               	movf	___flmul@aexp,w
  6482     0485  1903               	btfsc	3,2
  6483     0486  2C88               	goto	u4561
  6484     0487  2C89               	goto	u4560
  6485     0488                     u4561:
  6486     0488  2C8E               	goto	l4180
  6487     0489                     u4560:
  6488     0489                     l4178:
  6489     0489  083D               	movf	___flmul@bexp,w
  6490     048A  1D03               	btfss	3,2
  6491     048B  2C8D               	goto	u4571
  6492     048C  2C8E               	goto	u4570
  6493     048D                     u4571:
  6494     048D  2C97               	goto	l4184
  6495     048E                     u4570:
  6496     048E                     l4180:
  6497     048E  3000               	movlw	0
  6498     048F  00AD               	movwf	?___flmul+3
  6499     0490  3000               	movlw	0
  6500     0491  00AC               	movwf	?___flmul+2
  6501     0492  3000               	movlw	0
  6502     0493  00AB               	movwf	?___flmul+1
  6503     0494  3000               	movlw	0
  6504     0495  00AA               	movwf	?___flmul
  6505     0496  2F74               	goto	l847
  6506     0497                     l4184:
  6507     0497  082A               	movf	___flmul@b,w
  6508     0498  00F2               	movwf	__Umul8_16@multiplicand
  6509     0499  0830               	movf	___flmul@a+2,w
  6510     049A  160A  118A  2479  120A  118A  	fcall	__Umul8_16
  6511     049F  0873               	movf	?__Umul8_16+1,w
  6512     04A0  1283               	bcf	3,5	;RP0=0, select bank0
  6513     04A1  1303               	bcf	3,6	;RP1=0, select bank0
  6514     04A2  00C3               	movwf	___flmul@temp+1
  6515     04A3  0872               	movf	?__Umul8_16,w
  6516     04A4  00C2               	movwf	___flmul@temp
  6517     04A5                     l4186:
  6518     04A5  0842               	movf	___flmul@temp,w
  6519     04A6  00B2               	movwf	??___flmul
  6520     04A7  01B3               	clrf	??___flmul+1
  6521     04A8  01B4               	clrf	??___flmul+2
  6522     04A9  01B5               	clrf	??___flmul+3
  6523     04AA  0835               	movf	??___flmul+3,w
  6524     04AB  00BC               	movwf	___flmul@grs+3
  6525     04AC  0834               	movf	??___flmul+2,w
  6526     04AD  00BB               	movwf	___flmul@grs+2
  6527     04AE  0833               	movf	??___flmul+1,w
  6528     04AF  00BA               	movwf	___flmul@grs+1
  6529     04B0  0832               	movf	??___flmul,w
  6530     04B1  00B9               	movwf	___flmul@grs
  6531     04B2                     l4188:
  6532     04B2  0843               	movf	___flmul@temp+1,w
  6533     04B3  00B2               	movwf	??___flmul
  6534     04B4  01B3               	clrf	??___flmul+1
  6535     04B5  01B4               	clrf	??___flmul+2
  6536     04B6  01B5               	clrf	??___flmul+3
  6537     04B7  0835               	movf	??___flmul+3,w
  6538     04B8  00C1               	movwf	___flmul@prod+3
  6539     04B9  0834               	movf	??___flmul+2,w
  6540     04BA  00C0               	movwf	___flmul@prod+2
  6541     04BB  0833               	movf	??___flmul+1,w
  6542     04BC  00BF               	movwf	___flmul@prod+1
  6543     04BD  0832               	movf	??___flmul,w
  6544     04BE  00BE               	movwf	___flmul@prod
  6545     04BF  082B               	movf	___flmul@b+1,w
  6546     04C0  00F2               	movwf	__Umul8_16@multiplicand
  6547     04C1  082F               	movf	___flmul@a+1,w
  6548     04C2  160A  118A  2479  120A  118A  	fcall	__Umul8_16
  6549     04C7  0873               	movf	?__Umul8_16+1,w
  6550     04C8  1283               	bcf	3,5	;RP0=0, select bank0
  6551     04C9  1303               	bcf	3,6	;RP1=0, select bank0
  6552     04CA  00C3               	movwf	___flmul@temp+1
  6553     04CB  0872               	movf	?__Umul8_16,w
  6554     04CC  00C2               	movwf	___flmul@temp
  6555     04CD                     l4190:
  6556     04CD  0842               	movf	___flmul@temp,w
  6557     04CE  00B2               	movwf	??___flmul
  6558     04CF  01B3               	clrf	??___flmul+1
  6559     04D0  01B4               	clrf	??___flmul+2
  6560     04D1  01B5               	clrf	??___flmul+3
  6561     04D2  0832               	movf	??___flmul,w
  6562     04D3  07B9               	addwf	___flmul@grs,f
  6563     04D4  0833               	movf	??___flmul+1,w
  6564     04D5  1103               	clrz
  6565     04D6  1803               	skipnc
  6566     04D7  3E01               	addlw	1
  6567     04D8  1903               	skipnz
  6568     04D9  2CDB               	goto	u4581
  6569     04DA  07BA               	addwf	___flmul@grs+1,f
  6570     04DB                     u4581:
  6571     04DB  0834               	movf	??___flmul+2,w
  6572     04DC  1103               	clrz
  6573     04DD  1803               	skipnc
  6574     04DE  3E01               	addlw	1
  6575     04DF  1903               	skipnz
  6576     04E0  2CE2               	goto	u4582
  6577     04E1  07BB               	addwf	___flmul@grs+2,f
  6578     04E2                     u4582:
  6579     04E2  0835               	movf	??___flmul+3,w
  6580     04E3  1103               	clrz
  6581     04E4  1803               	skipnc
  6582     04E5  3E01               	addlw	1
  6583     04E6  1903               	skipnz
  6584     04E7  2CE9               	goto	u4583
  6585     04E8  07BC               	addwf	___flmul@grs+3,f
  6586     04E9                     u4583:
  6587     04E9                     l4192:
  6588     04E9  0843               	movf	___flmul@temp+1,w
  6589     04EA  00B2               	movwf	??___flmul
  6590     04EB  01B3               	clrf	??___flmul+1
  6591     04EC  01B4               	clrf	??___flmul+2
  6592     04ED  01B5               	clrf	??___flmul+3
  6593     04EE  0832               	movf	??___flmul,w
  6594     04EF  07BE               	addwf	___flmul@prod,f
  6595     04F0  0833               	movf	??___flmul+1,w
  6596     04F1  1103               	clrz
  6597     04F2  1803               	skipnc
  6598     04F3  3E01               	addlw	1
  6599     04F4  1903               	skipnz
  6600     04F5  2CF7               	goto	u4591
  6601     04F6  07BF               	addwf	___flmul@prod+1,f
  6602     04F7                     u4591:
  6603     04F7  0834               	movf	??___flmul+2,w
  6604     04F8  1103               	clrz
  6605     04F9  1803               	skipnc
  6606     04FA  3E01               	addlw	1
  6607     04FB  1903               	skipnz
  6608     04FC  2CFE               	goto	u4592
  6609     04FD  07C0               	addwf	___flmul@prod+2,f
  6610     04FE                     u4592:
  6611     04FE  0835               	movf	??___flmul+3,w
  6612     04FF  1103               	clrz
  6613     0500  1803               	skipnc
  6614     0501  3E01               	addlw	1
  6615     0502  1903               	skipnz
  6616     0503  2D05               	goto	u4593
  6617     0504  07C1               	addwf	___flmul@prod+3,f
  6618     0505                     u4593:
  6619     0505  082C               	movf	___flmul@b+2,w
  6620     0506  00F2               	movwf	__Umul8_16@multiplicand
  6621     0507  082E               	movf	___flmul@a,w
  6622     0508  160A  118A  2479  120A  118A  	fcall	__Umul8_16
  6623     050D  0873               	movf	?__Umul8_16+1,w
  6624     050E  1283               	bcf	3,5	;RP0=0, select bank0
  6625     050F  1303               	bcf	3,6	;RP1=0, select bank0
  6626     0510  00C3               	movwf	___flmul@temp+1
  6627     0511  0872               	movf	?__Umul8_16,w
  6628     0512  00C2               	movwf	___flmul@temp
  6629     0513                     l4194:
  6630     0513  0842               	movf	___flmul@temp,w
  6631     0514  00B2               	movwf	??___flmul
  6632     0515  01B3               	clrf	??___flmul+1
  6633     0516  01B4               	clrf	??___flmul+2
  6634     0517  01B5               	clrf	??___flmul+3
  6635     0518  0832               	movf	??___flmul,w
  6636     0519  07B9               	addwf	___flmul@grs,f
  6637     051A  0833               	movf	??___flmul+1,w
  6638     051B  1103               	clrz
  6639     051C  1803               	skipnc
  6640     051D  3E01               	addlw	1
  6641     051E  1903               	skipnz
  6642     051F  2D21               	goto	u4601
  6643     0520  07BA               	addwf	___flmul@grs+1,f
  6644     0521                     u4601:
  6645     0521  0834               	movf	??___flmul+2,w
  6646     0522  1103               	clrz
  6647     0523  1803               	skipnc
  6648     0524  3E01               	addlw	1
  6649     0525  1903               	skipnz
  6650     0526  2D28               	goto	u4602
  6651     0527  07BB               	addwf	___flmul@grs+2,f
  6652     0528                     u4602:
  6653     0528  0835               	movf	??___flmul+3,w
  6654     0529  1103               	clrz
  6655     052A  1803               	skipnc
  6656     052B  3E01               	addlw	1
  6657     052C  1903               	skipnz
  6658     052D  2D2F               	goto	u4603
  6659     052E  07BC               	addwf	___flmul@grs+3,f
  6660     052F                     u4603:
  6661     052F                     l4196:
  6662     052F  0843               	movf	___flmul@temp+1,w
  6663     0530  00B2               	movwf	??___flmul
  6664     0531  01B3               	clrf	??___flmul+1
  6665     0532  01B4               	clrf	??___flmul+2
  6666     0533  01B5               	clrf	??___flmul+3
  6667     0534  0832               	movf	??___flmul,w
  6668     0535  07BE               	addwf	___flmul@prod,f
  6669     0536  0833               	movf	??___flmul+1,w
  6670     0537  1103               	clrz
  6671     0538  1803               	skipnc
  6672     0539  3E01               	addlw	1
  6673     053A  1903               	skipnz
  6674     053B  2D3D               	goto	u4611
  6675     053C  07BF               	addwf	___flmul@prod+1,f
  6676     053D                     u4611:
  6677     053D  0834               	movf	??___flmul+2,w
  6678     053E  1103               	clrz
  6679     053F  1803               	skipnc
  6680     0540  3E01               	addlw	1
  6681     0541  1903               	skipnz
  6682     0542  2D44               	goto	u4612
  6683     0543  07C0               	addwf	___flmul@prod+2,f
  6684     0544                     u4612:
  6685     0544  0835               	movf	??___flmul+3,w
  6686     0545  1103               	clrz
  6687     0546  1803               	skipnc
  6688     0547  3E01               	addlw	1
  6689     0548  1903               	skipnz
  6690     0549  2D4B               	goto	u4613
  6691     054A  07C1               	addwf	___flmul@prod+3,f
  6692     054B                     u4613:
  6693     054B                     l4198:
  6694     054B  3008               	movlw	8
  6695     054C  00B2               	movwf	??___flmul
  6696     054D                     u4625:
  6697     054D  1003               	clrc
  6698     054E  0DB9               	rlf	___flmul@grs,f
  6699     054F  0DBA               	rlf	___flmul@grs+1,f
  6700     0550  0DBB               	rlf	___flmul@grs+2,f
  6701     0551  0DBC               	rlf	___flmul@grs+3,f
  6702     0552  0BB2               	decfsz	??___flmul,f
  6703     0553  2D4D               	goto	u4625
  6704     0554                     l4200:
  6705     0554  082B               	movf	___flmul@b+1,w
  6706     0555  00F2               	movwf	__Umul8_16@multiplicand
  6707     0556  082E               	movf	___flmul@a,w
  6708     0557  160A  118A  2479  120A  118A  	fcall	__Umul8_16
  6709     055C  0873               	movf	?__Umul8_16+1,w
  6710     055D  1283               	bcf	3,5	;RP0=0, select bank0
  6711     055E  1303               	bcf	3,6	;RP1=0, select bank0
  6712     055F  00C3               	movwf	___flmul@temp+1
  6713     0560  0872               	movf	?__Umul8_16,w
  6714     0561  00C2               	movwf	___flmul@temp
  6715     0562                     l4202:
  6716     0562  0842               	movf	___flmul@temp,w
  6717     0563  00B2               	movwf	??___flmul
  6718     0564  0843               	movf	___flmul@temp+1,w
  6719     0565  00B3               	movwf	??___flmul+1
  6720     0566  01B4               	clrf	??___flmul+2
  6721     0567  01B5               	clrf	??___flmul+3
  6722     0568  0832               	movf	??___flmul,w
  6723     0569  07B9               	addwf	___flmul@grs,f
  6724     056A  0833               	movf	??___flmul+1,w
  6725     056B  1103               	clrz
  6726     056C  1803               	skipnc
  6727     056D  3E01               	addlw	1
  6728     056E  1903               	skipnz
  6729     056F  2D71               	goto	u4631
  6730     0570  07BA               	addwf	___flmul@grs+1,f
  6731     0571                     u4631:
  6732     0571  0834               	movf	??___flmul+2,w
  6733     0572  1103               	clrz
  6734     0573  1803               	skipnc
  6735     0574  3E01               	addlw	1
  6736     0575  1903               	skipnz
  6737     0576  2D78               	goto	u4632
  6738     0577  07BB               	addwf	___flmul@grs+2,f
  6739     0578                     u4632:
  6740     0578  0835               	movf	??___flmul+3,w
  6741     0579  1103               	clrz
  6742     057A  1803               	skipnc
  6743     057B  3E01               	addlw	1
  6744     057C  1903               	skipnz
  6745     057D  2D7F               	goto	u4633
  6746     057E  07BC               	addwf	___flmul@grs+3,f
  6747     057F                     u4633:
  6748     057F                     l4204:
  6749     057F  082A               	movf	___flmul@b,w
  6750     0580  00F2               	movwf	__Umul8_16@multiplicand
  6751     0581  082F               	movf	___flmul@a+1,w
  6752     0582  160A  118A  2479  120A  118A  	fcall	__Umul8_16
  6753     0587  0873               	movf	?__Umul8_16+1,w
  6754     0588  1283               	bcf	3,5	;RP0=0, select bank0
  6755     0589  1303               	bcf	3,6	;RP1=0, select bank0
  6756     058A  00C3               	movwf	___flmul@temp+1
  6757     058B  0872               	movf	?__Umul8_16,w
  6758     058C  00C2               	movwf	___flmul@temp
  6759     058D                     l4206:
  6760     058D  0842               	movf	___flmul@temp,w
  6761     058E  00B2               	movwf	??___flmul
  6762     058F  0843               	movf	___flmul@temp+1,w
  6763     0590  00B3               	movwf	??___flmul+1
  6764     0591  01B4               	clrf	??___flmul+2
  6765     0592  01B5               	clrf	??___flmul+3
  6766     0593  0832               	movf	??___flmul,w
  6767     0594  07B9               	addwf	___flmul@grs,f
  6768     0595  0833               	movf	??___flmul+1,w
  6769     0596  1103               	clrz
  6770     0597  1803               	skipnc
  6771     0598  3E01               	addlw	1
  6772     0599  1903               	skipnz
  6773     059A  2D9C               	goto	u4641
  6774     059B  07BA               	addwf	___flmul@grs+1,f
  6775     059C                     u4641:
  6776     059C  0834               	movf	??___flmul+2,w
  6777     059D  1103               	clrz
  6778     059E  1803               	skipnc
  6779     059F  3E01               	addlw	1
  6780     05A0  1903               	skipnz
  6781     05A1  2DA3               	goto	u4642
  6782     05A2  07BB               	addwf	___flmul@grs+2,f
  6783     05A3                     u4642:
  6784     05A3  0835               	movf	??___flmul+3,w
  6785     05A4  1103               	clrz
  6786     05A5  1803               	skipnc
  6787     05A6  3E01               	addlw	1
  6788     05A7  1903               	skipnz
  6789     05A8  2DAA               	goto	u4643
  6790     05A9  07BC               	addwf	___flmul@grs+3,f
  6791     05AA                     u4643:
  6792     05AA                     l4208:
  6793     05AA  3008               	movlw	8
  6794     05AB  00B2               	movwf	??___flmul
  6795     05AC                     u4655:
  6796     05AC  1003               	clrc
  6797     05AD  0DB9               	rlf	___flmul@grs,f
  6798     05AE  0DBA               	rlf	___flmul@grs+1,f
  6799     05AF  0DBB               	rlf	___flmul@grs+2,f
  6800     05B0  0DBC               	rlf	___flmul@grs+3,f
  6801     05B1  0BB2               	decfsz	??___flmul,f
  6802     05B2  2DAC               	goto	u4655
  6803     05B3  082A               	movf	___flmul@b,w
  6804     05B4  00F2               	movwf	__Umul8_16@multiplicand
  6805     05B5  082E               	movf	___flmul@a,w
  6806     05B6  160A  118A  2479  120A  118A  	fcall	__Umul8_16
  6807     05BB  0873               	movf	?__Umul8_16+1,w
  6808     05BC  1283               	bcf	3,5	;RP0=0, select bank0
  6809     05BD  1303               	bcf	3,6	;RP1=0, select bank0
  6810     05BE  00C3               	movwf	___flmul@temp+1
  6811     05BF  0872               	movf	?__Umul8_16,w
  6812     05C0  00C2               	movwf	___flmul@temp
  6813     05C1                     l4210:
  6814     05C1  0842               	movf	___flmul@temp,w
  6815     05C2  00B2               	movwf	??___flmul
  6816     05C3  0843               	movf	___flmul@temp+1,w
  6817     05C4  00B3               	movwf	??___flmul+1
  6818     05C5  01B4               	clrf	??___flmul+2
  6819     05C6  01B5               	clrf	??___flmul+3
  6820     05C7  0832               	movf	??___flmul,w
  6821     05C8  07B9               	addwf	___flmul@grs,f
  6822     05C9  0833               	movf	??___flmul+1,w
  6823     05CA  1103               	clrz
  6824     05CB  1803               	skipnc
  6825     05CC  3E01               	addlw	1
  6826     05CD  1903               	skipnz
  6827     05CE  2DD0               	goto	u4661
  6828     05CF  07BA               	addwf	___flmul@grs+1,f
  6829     05D0                     u4661:
  6830     05D0  0834               	movf	??___flmul+2,w
  6831     05D1  1103               	clrz
  6832     05D2  1803               	skipnc
  6833     05D3  3E01               	addlw	1
  6834     05D4  1903               	skipnz
  6835     05D5  2DD7               	goto	u4662
  6836     05D6  07BB               	addwf	___flmul@grs+2,f
  6837     05D7                     u4662:
  6838     05D7  0835               	movf	??___flmul+3,w
  6839     05D8  1103               	clrz
  6840     05D9  1803               	skipnc
  6841     05DA  3E01               	addlw	1
  6842     05DB  1903               	skipnz
  6843     05DC  2DDE               	goto	u4663
  6844     05DD  07BC               	addwf	___flmul@grs+3,f
  6845     05DE                     u4663:
  6846     05DE                     l4212:
  6847     05DE  082B               	movf	___flmul@b+1,w
  6848     05DF  00F2               	movwf	__Umul8_16@multiplicand
  6849     05E0  0830               	movf	___flmul@a+2,w
  6850     05E1  160A  118A  2479  120A  118A  	fcall	__Umul8_16
  6851     05E6  0873               	movf	?__Umul8_16+1,w
  6852     05E7  1283               	bcf	3,5	;RP0=0, select bank0
  6853     05E8  1303               	bcf	3,6	;RP1=0, select bank0
  6854     05E9  00C3               	movwf	___flmul@temp+1
  6855     05EA  0872               	movf	?__Umul8_16,w
  6856     05EB  00C2               	movwf	___flmul@temp
  6857     05EC  0842               	movf	___flmul@temp,w
  6858     05ED  00B2               	movwf	??___flmul
  6859     05EE  0843               	movf	___flmul@temp+1,w
  6860     05EF  00B3               	movwf	??___flmul+1
  6861     05F0  01B4               	clrf	??___flmul+2
  6862     05F1  01B5               	clrf	??___flmul+3
  6863     05F2  0832               	movf	??___flmul,w
  6864     05F3  07BE               	addwf	___flmul@prod,f
  6865     05F4  0833               	movf	??___flmul+1,w
  6866     05F5  1103               	clrz
  6867     05F6  1803               	skipnc
  6868     05F7  3E01               	addlw	1
  6869     05F8  1903               	skipnz
  6870     05F9  2DFB               	goto	u4671
  6871     05FA  07BF               	addwf	___flmul@prod+1,f
  6872     05FB                     u4671:
  6873     05FB  0834               	movf	??___flmul+2,w
  6874     05FC  1103               	clrz
  6875     05FD  1803               	skipnc
  6876     05FE  3E01               	addlw	1
  6877     05FF  1903               	skipnz
  6878     0600  2E02               	goto	u4672
  6879     0601  07C0               	addwf	___flmul@prod+2,f
  6880     0602                     u4672:
  6881     0602  0835               	movf	??___flmul+3,w
  6882     0603  1103               	clrz
  6883     0604  1803               	skipnc
  6884     0605  3E01               	addlw	1
  6885     0606  1903               	skipnz
  6886     0607  2E09               	goto	u4673
  6887     0608  07C1               	addwf	___flmul@prod+3,f
  6888     0609                     u4673:
  6889     0609                     l4214:
  6890     0609  082C               	movf	___flmul@b+2,w
  6891     060A  00F2               	movwf	__Umul8_16@multiplicand
  6892     060B  082F               	movf	___flmul@a+1,w
  6893     060C  160A  118A  2479  120A  118A  	fcall	__Umul8_16
  6894     0611  0873               	movf	?__Umul8_16+1,w
  6895     0612  1283               	bcf	3,5	;RP0=0, select bank0
  6896     0613  1303               	bcf	3,6	;RP1=0, select bank0
  6897     0614  00C3               	movwf	___flmul@temp+1
  6898     0615  0872               	movf	?__Umul8_16,w
  6899     0616  00C2               	movwf	___flmul@temp
  6900     0617                     l4216:
  6901     0617  0842               	movf	___flmul@temp,w
  6902     0618  00B2               	movwf	??___flmul
  6903     0619  0843               	movf	___flmul@temp+1,w
  6904     061A  00B3               	movwf	??___flmul+1
  6905     061B  01B4               	clrf	??___flmul+2
  6906     061C  01B5               	clrf	??___flmul+3
  6907     061D  0832               	movf	??___flmul,w
  6908     061E  07BE               	addwf	___flmul@prod,f
  6909     061F  0833               	movf	??___flmul+1,w
  6910     0620  1103               	clrz
  6911     0621  1803               	skipnc
  6912     0622  3E01               	addlw	1
  6913     0623  1903               	skipnz
  6914     0624  2E26               	goto	u4681
  6915     0625  07BF               	addwf	___flmul@prod+1,f
  6916     0626                     u4681:
  6917     0626  0834               	movf	??___flmul+2,w
  6918     0627  1103               	clrz
  6919     0628  1803               	skipnc
  6920     0629  3E01               	addlw	1
  6921     062A  1903               	skipnz
  6922     062B  2E2D               	goto	u4682
  6923     062C  07C0               	addwf	___flmul@prod+2,f
  6924     062D                     u4682:
  6925     062D  0835               	movf	??___flmul+3,w
  6926     062E  1103               	clrz
  6927     062F  1803               	skipnc
  6928     0630  3E01               	addlw	1
  6929     0631  1903               	skipnz
  6930     0632  2E34               	goto	u4683
  6931     0633  07C1               	addwf	___flmul@prod+3,f
  6932     0634                     u4683:
  6933     0634  082C               	movf	___flmul@b+2,w
  6934     0635  00F2               	movwf	__Umul8_16@multiplicand
  6935     0636  0830               	movf	___flmul@a+2,w
  6936     0637  160A  118A  2479  120A  118A  	fcall	__Umul8_16
  6937     063C  0873               	movf	?__Umul8_16+1,w
  6938     063D  1283               	bcf	3,5	;RP0=0, select bank0
  6939     063E  1303               	bcf	3,6	;RP1=0, select bank0
  6940     063F  00C3               	movwf	___flmul@temp+1
  6941     0640  0872               	movf	?__Umul8_16,w
  6942     0641  00C2               	movwf	___flmul@temp
  6943     0642                     l4218:
  6944     0642  0842               	movf	___flmul@temp,w
  6945     0643  00B2               	movwf	??___flmul
  6946     0644  0843               	movf	___flmul@temp+1,w
  6947     0645  00B3               	movwf	??___flmul+1
  6948     0646  01B4               	clrf	??___flmul+2
  6949     0647  01B5               	clrf	??___flmul+3
  6950     0648  3008               	movlw	8
  6951     0649                     u4695:
  6952     0649  1003               	clrc
  6953     064A  0DB2               	rlf	??___flmul,f
  6954     064B  0DB3               	rlf	??___flmul+1,f
  6955     064C  0DB4               	rlf	??___flmul+2,f
  6956     064D  0DB5               	rlf	??___flmul+3,f
  6957     064E                     u4690:
  6958     064E  3EFF               	addlw	-1
  6959     064F  1D03               	skipz
  6960     0650  2E49               	goto	u4695
  6961     0651  0832               	movf	??___flmul,w
  6962     0652  07BE               	addwf	___flmul@prod,f
  6963     0653  0833               	movf	??___flmul+1,w
  6964     0654  1103               	clrz
  6965     0655  1803               	skipnc
  6966     0656  3E01               	addlw	1
  6967     0657  1903               	skipnz
  6968     0658  2E5A               	goto	u4701
  6969     0659  07BF               	addwf	___flmul@prod+1,f
  6970     065A                     u4701:
  6971     065A  0834               	movf	??___flmul+2,w
  6972     065B  1103               	clrz
  6973     065C  1803               	skipnc
  6974     065D  3E01               	addlw	1
  6975     065E  1903               	skipnz
  6976     065F  2E61               	goto	u4702
  6977     0660  07C0               	addwf	___flmul@prod+2,f
  6978     0661                     u4702:
  6979     0661  0835               	movf	??___flmul+3,w
  6980     0662  1103               	clrz
  6981     0663  1803               	skipnc
  6982     0664  3E01               	addlw	1
  6983     0665  1903               	skipnz
  6984     0666  2E68               	goto	u4703
  6985     0667  07C1               	addwf	___flmul@prod+3,f
  6986     0668                     u4703:
  6987     0668                     l4220:
  6988     0668  0839               	movf	___flmul@grs,w
  6989     0669  00B2               	movwf	??___flmul
  6990     066A  083A               	movf	___flmul@grs+1,w
  6991     066B  00B3               	movwf	??___flmul+1
  6992     066C  083B               	movf	___flmul@grs+2,w
  6993     066D  00B4               	movwf	??___flmul+2
  6994     066E  083C               	movf	___flmul@grs+3,w
  6995     066F  00B5               	movwf	??___flmul+3
  6996     0670  3018               	movlw	24
  6997     0671                     u4715:
  6998     0671  1003               	clrc
  6999     0672  0CB5               	rrf	??___flmul+3,f
  7000     0673  0CB4               	rrf	??___flmul+2,f
  7001     0674  0CB3               	rrf	??___flmul+1,f
  7002     0675  0CB2               	rrf	??___flmul,f
  7003     0676                     u4710:
  7004     0676  3EFF               	addlw	-1
  7005     0677  1D03               	skipz
  7006     0678  2E71               	goto	u4715
  7007     0679  0832               	movf	??___flmul,w
  7008     067A  07BE               	addwf	___flmul@prod,f
  7009     067B  0833               	movf	??___flmul+1,w
  7010     067C  1103               	clrz
  7011     067D  1803               	skipnc
  7012     067E  3E01               	addlw	1
  7013     067F  1903               	skipnz
  7014     0680  2E82               	goto	u4721
  7015     0681  07BF               	addwf	___flmul@prod+1,f
  7016     0682                     u4721:
  7017     0682  0834               	movf	??___flmul+2,w
  7018     0683  1103               	clrz
  7019     0684  1803               	skipnc
  7020     0685  3E01               	addlw	1
  7021     0686  1903               	skipnz
  7022     0687  2E89               	goto	u4722
  7023     0688  07C0               	addwf	___flmul@prod+2,f
  7024     0689                     u4722:
  7025     0689  0835               	movf	??___flmul+3,w
  7026     068A  1103               	clrz
  7027     068B  1803               	skipnc
  7028     068C  3E01               	addlw	1
  7029     068D  1903               	skipnz
  7030     068E  2E90               	goto	u4723
  7031     068F  07C1               	addwf	___flmul@prod+3,f
  7032     0690                     u4723:
  7033     0690                     l4222:
  7034     0690  3008               	movlw	8
  7035     0691  00B2               	movwf	??___flmul
  7036     0692                     u4735:
  7037     0692  1003               	clrc
  7038     0693  0DB9               	rlf	___flmul@grs,f
  7039     0694  0DBA               	rlf	___flmul@grs+1,f
  7040     0695  0DBB               	rlf	___flmul@grs+2,f
  7041     0696  0DBC               	rlf	___flmul@grs+3,f
  7042     0697  0BB2               	decfsz	??___flmul,f
  7043     0698  2E92               	goto	u4735
  7044     0699                     l4224:
  7045     0699  083D               	movf	___flmul@bexp,w
  7046     069A  0738               	addwf	___flmul@aexp,w
  7047     069B  00B2               	movwf	??___flmul
  7048     069C  01B3               	clrf	??___flmul+1
  7049     069D  0DB3               	rlf	??___flmul+1,f
  7050     069E  0832               	movf	??___flmul,w
  7051     069F  3E82               	addlw	130
  7052     06A0  00C2               	movwf	___flmul@temp
  7053     06A1  0833               	movf	??___flmul+1,w
  7054     06A2  1803               	skipnc
  7055     06A3  3E01               	addlw	1
  7056     06A4  3EFF               	addlw	255
  7057     06A5  00C3               	movwf	___flmul@temp+1
  7058     06A6  2EC4               	goto	l4236
  7059     06A7                     l4226:
  7060     06A7  3001               	movlw	1
  7061     06A8  00B2               	movwf	??___flmul
  7062     06A9                     u4745:
  7063     06A9  1003               	clrc
  7064     06AA  0DBE               	rlf	___flmul@prod,f
  7065     06AB  0DBF               	rlf	___flmul@prod+1,f
  7066     06AC  0DC0               	rlf	___flmul@prod+2,f
  7067     06AD  0DC1               	rlf	___flmul@prod+3,f
  7068     06AE  0BB2               	decfsz	??___flmul,f
  7069     06AF  2EA9               	goto	u4745
  7070     06B0                     l4228:
  7071     06B0  1FBC               	btfss	___flmul@grs+3,7
  7072     06B1  2EB3               	goto	u4751
  7073     06B2  2EB4               	goto	u4750
  7074     06B3                     u4751:
  7075     06B3  2EB5               	goto	l4232
  7076     06B4                     u4750:
  7077     06B4                     l4230:
  7078     06B4  143E               	bsf	___flmul@prod,0
  7079     06B5                     l4232:
  7080     06B5  3001               	movlw	1
  7081     06B6  00B2               	movwf	??___flmul
  7082     06B7                     u4765:
  7083     06B7  1003               	clrc
  7084     06B8  0DB9               	rlf	___flmul@grs,f
  7085     06B9  0DBA               	rlf	___flmul@grs+1,f
  7086     06BA  0DBB               	rlf	___flmul@grs+2,f
  7087     06BB  0DBC               	rlf	___flmul@grs+3,f
  7088     06BC  0BB2               	decfsz	??___flmul,f
  7089     06BD  2EB7               	goto	u4765
  7090     06BE                     l4234:
  7091     06BE  30FF               	movlw	255
  7092     06BF  07C2               	addwf	___flmul@temp,f
  7093     06C0  1803               	skipnc
  7094     06C1  0AC3               	incf	___flmul@temp+1,f
  7095     06C2  30FF               	movlw	255
  7096     06C3  07C3               	addwf	___flmul@temp+1,f
  7097     06C4                     l4236:
  7098     06C4  1FC0               	btfss	___flmul@prod+2,7
  7099     06C5  2EC7               	goto	u4771
  7100     06C6  2EC8               	goto	u4770
  7101     06C7                     u4771:
  7102     06C7  2EA7               	goto	l4226
  7103     06C8                     u4770:
  7104     06C8                     l4238:
  7105     06C8  01B8               	clrf	___flmul@aexp
  7106     06C9                     l4240:
  7107     06C9  1FBC               	btfss	___flmul@grs+3,7
  7108     06CA  2ECC               	goto	u4781
  7109     06CB  2ECD               	goto	u4780
  7110     06CC                     u4781:
  7111     06CC  2EE9               	goto	l4248
  7112     06CD                     u4780:
  7113     06CD                     l4242:
  7114     06CD  30FF               	movlw	255
  7115     06CE  0539               	andwf	___flmul@grs,w
  7116     06CF  00B2               	movwf	??___flmul
  7117     06D0  30FF               	movlw	255
  7118     06D1  053A               	andwf	___flmul@grs+1,w
  7119     06D2  00B3               	movwf	??___flmul+1
  7120     06D3  30FF               	movlw	255
  7121     06D4  053B               	andwf	___flmul@grs+2,w
  7122     06D5  00B4               	movwf	??___flmul+2
  7123     06D6  307F               	movlw	127
  7124     06D7  053C               	andwf	___flmul@grs+3,w
  7125     06D8  00B5               	movwf	??___flmul+3
  7126     06D9  0835               	movf	??___flmul+3,w
  7127     06DA  0434               	iorwf	??___flmul+2,w
  7128     06DB  0433               	iorwf	??___flmul+1,w
  7129     06DC  0432               	iorwf	??___flmul,w
  7130     06DD  1903               	skipnz
  7131     06DE  2EE0               	goto	u4791
  7132     06DF  2EE1               	goto	u4790
  7133     06E0                     u4791:
  7134     06E0  2EE4               	goto	l853
  7135     06E1                     u4790:
  7136     06E1                     l4244:
  7137     06E1  01B8               	clrf	___flmul@aexp
  7138     06E2  0AB8               	incf	___flmul@aexp,f
  7139     06E3  2EE9               	goto	l4248
  7140     06E4                     l853:
  7141     06E4  1C3E               	btfss	___flmul@prod,0
  7142     06E5  2EE7               	goto	u4801
  7143     06E6  2EE8               	goto	u4800
  7144     06E7                     u4801:
  7145     06E7  2EE9               	goto	l4248
  7146     06E8                     u4800:
  7147     06E8  2EE1               	goto	l4244
  7148     06E9                     l4248:
  7149     06E9  0838               	movf	___flmul@aexp,w
  7150     06EA  1903               	btfsc	3,2
  7151     06EB  2EED               	goto	u4811
  7152     06EC  2EEE               	goto	u4810
  7153     06ED                     u4811:
  7154     06ED  2F1F               	goto	l4258
  7155     06EE                     u4810:
  7156     06EE                     l4250:
  7157     06EE  3001               	movlw	1
  7158     06EF  07BE               	addwf	___flmul@prod,f
  7159     06F0  3000               	movlw	0
  7160     06F1  1803               	skipnc
  7161     06F2  3001               	movlw	1
  7162     06F3  07BF               	addwf	___flmul@prod+1,f
  7163     06F4  3000               	movlw	0
  7164     06F5  1803               	skipnc
  7165     06F6  3001               	movlw	1
  7166     06F7  07C0               	addwf	___flmul@prod+2,f
  7167     06F8  3000               	movlw	0
  7168     06F9  1803               	skipnc
  7169     06FA  3001               	movlw	1
  7170     06FB  07C1               	addwf	___flmul@prod+3,f
  7171     06FC                     l4252:
  7172     06FC  1C41               	btfss	___flmul@prod+3,0
  7173     06FD  2EFF               	goto	u4821
  7174     06FE  2F00               	goto	u4820
  7175     06FF                     u4821:
  7176     06FF  2F1F               	goto	l4258
  7177     0700                     u4820:
  7178     0700                     l4254:
  7179     0700  083E               	movf	___flmul@prod,w
  7180     0701  00B2               	movwf	??___flmul
  7181     0702  083F               	movf	___flmul@prod+1,w
  7182     0703  00B3               	movwf	??___flmul+1
  7183     0704  0840               	movf	___flmul@prod+2,w
  7184     0705  00B4               	movwf	??___flmul+2
  7185     0706  0841               	movf	___flmul@prod+3,w
  7186     0707  00B5               	movwf	??___flmul+3
  7187     0708  3001               	movlw	1
  7188     0709  00B6               	movwf	??___flmul+4
  7189     070A                     u4835:
  7190     070A  0D35               	rlf	??___flmul+3,w
  7191     070B  0CB5               	rrf	??___flmul+3,f
  7192     070C  0CB4               	rrf	??___flmul+2,f
  7193     070D  0CB3               	rrf	??___flmul+1,f
  7194     070E  0CB2               	rrf	??___flmul,f
  7195     070F                     u4830:
  7196     070F  0BB6               	decfsz	??___flmul+4,f
  7197     0710  2F0A               	goto	u4835
  7198     0711  0835               	movf	??___flmul+3,w
  7199     0712  00C1               	movwf	___flmul@prod+3
  7200     0713  0834               	movf	??___flmul+2,w
  7201     0714  00C0               	movwf	___flmul@prod+2
  7202     0715  0833               	movf	??___flmul+1,w
  7203     0716  00BF               	movwf	___flmul@prod+1
  7204     0717  0832               	movf	??___flmul,w
  7205     0718  00BE               	movwf	___flmul@prod
  7206     0719                     l4256:
  7207     0719  3001               	movlw	1
  7208     071A  07C2               	addwf	___flmul@temp,f
  7209     071B  1803               	skipnc
  7210     071C  0AC3               	incf	___flmul@temp+1,f
  7211     071D  3000               	movlw	0
  7212     071E  07C3               	addwf	___flmul@temp+1,f
  7213     071F                     l4258:
  7214     071F  0843               	movf	___flmul@temp+1,w
  7215     0720  3A80               	xorlw	128
  7216     0721  00FF               	movwf	btemp+1
  7217     0722  3080               	movlw	128
  7218     0723  027F               	subwf	btemp+1,w
  7219     0724  1D03               	skipz
  7220     0725  2F28               	goto	u4845
  7221     0726  30FF               	movlw	255
  7222     0727  0242               	subwf	___flmul@temp,w
  7223     0728                     u4845:
  7224     0728  1C03               	skipc
  7225     0729  2F2B               	goto	u4841
  7226     072A  2F2C               	goto	u4840
  7227     072B                     u4841:
  7228     072B  2F37               	goto	l4262
  7229     072C                     u4840:
  7230     072C                     l4260:
  7231     072C  307F               	movlw	127
  7232     072D  1283               	bcf	3,5	;RP0=0, select bank0
  7233     072E  1303               	bcf	3,6	;RP1=0, select bank0
  7234     072F  00C1               	movwf	___flmul@prod+3
  7235     0730  3080               	movlw	128
  7236     0731  00C0               	movwf	___flmul@prod+2
  7237     0732  3000               	movlw	0
  7238     0733  00BF               	movwf	___flmul@prod+1
  7239     0734  3000               	movlw	0
  7240     0735  00BE               	movwf	___flmul@prod
  7241     0736  2F68               	goto	l4276
  7242     0737                     l4262:
  7243     0737  1283               	bcf	3,5	;RP0=0, select bank0
  7244     0738  1303               	bcf	3,6	;RP1=0, select bank0
  7245     0739  0843               	movf	___flmul@temp+1,w
  7246     073A  3A80               	xorlw	128
  7247     073B  00FF               	movwf	btemp+1
  7248     073C  3080               	movlw	128
  7249     073D  027F               	subwf	btemp+1,w
  7250     073E  1D03               	skipz
  7251     073F  2F42               	goto	u4855
  7252     0740  3001               	movlw	1
  7253     0741  0242               	subwf	___flmul@temp,w
  7254     0742                     u4855:
  7255     0742  1803               	skipnc
  7256     0743  2F45               	goto	u4851
  7257     0744  2F46               	goto	u4850
  7258     0745                     u4851:
  7259     0745  2F52               	goto	l4268
  7260     0746                     u4850:
  7261     0746                     l4264:
  7262     0746  3000               	movlw	0
  7263     0747  1283               	bcf	3,5	;RP0=0, select bank0
  7264     0748  1303               	bcf	3,6	;RP1=0, select bank0
  7265     0749  00C1               	movwf	___flmul@prod+3
  7266     074A  3000               	movlw	0
  7267     074B  00C0               	movwf	___flmul@prod+2
  7268     074C  3000               	movlw	0
  7269     074D  00BF               	movwf	___flmul@prod+1
  7270     074E  3000               	movlw	0
  7271     074F  00BE               	movwf	___flmul@prod
  7272     0750                     l4266:
  7273     0750  01B7               	clrf	___flmul@sign
  7274     0751  2F68               	goto	l4276
  7275     0752                     l4268:
  7276     0752  1283               	bcf	3,5	;RP0=0, select bank0
  7277     0753  1303               	bcf	3,6	;RP1=0, select bank0
  7278     0754  0842               	movf	___flmul@temp,w
  7279     0755  00BD               	movwf	___flmul@bexp
  7280     0756  30FF               	movlw	255
  7281     0757  05BE               	andwf	___flmul@prod,f
  7282     0758  30FF               	movlw	255
  7283     0759  05BF               	andwf	___flmul@prod+1,f
  7284     075A  307F               	movlw	127
  7285     075B  05C0               	andwf	___flmul@prod+2,f
  7286     075C  3000               	movlw	0
  7287     075D  05C1               	andwf	___flmul@prod+3,f
  7288     075E                     l4270:
  7289     075E  1C3D               	btfss	___flmul@bexp,0
  7290     075F  2F61               	goto	u4861
  7291     0760  2F62               	goto	u4860
  7292     0761                     u4861:
  7293     0761  2F63               	goto	l4274
  7294     0762                     u4860:
  7295     0762                     l4272:
  7296     0762  17C0               	bsf	___flmul@prod+2,7
  7297     0763                     l4274:
  7298     0763  083D               	movf	___flmul@bexp,w
  7299     0764  00B2               	movwf	??___flmul
  7300     0765  1003               	clrc
  7301     0766  0C32               	rrf	??___flmul,w
  7302     0767  00C1               	movwf	___flmul@prod+3
  7303     0768                     l4276:
  7304     0768  0837               	movf	___flmul@sign,w
  7305     0769  00FF               	movwf	btemp+1
  7306     076A  087F               	movf	btemp+1,w
  7307     076B  04C1               	iorwf	___flmul@prod+3,f
  7308     076C                     l4278:
  7309     076C  0841               	movf	___flmul@prod+3,w
  7310     076D  00AD               	movwf	?___flmul+3
  7311     076E  0840               	movf	___flmul@prod+2,w
  7312     076F  00AC               	movwf	?___flmul+2
  7313     0770  083F               	movf	___flmul@prod+1,w
  7314     0771  00AB               	movwf	?___flmul+1
  7315     0772  083E               	movf	___flmul@prod,w
  7316     0773  00AA               	movwf	?___flmul
  7317     0774                     l847:
  7318     0774  0008               	return
  7319     0775                     __end_of___flmul:
  7320                           
  7321                           	psect	text13
  7322     1479                     __ptext13:	
  7323 ;; *************** function __Umul8_16 *****************
  7324 ;; Defined at:
  7325 ;;		line 4 in file "C:\Program Files\Microchip\xc8\v2.45\pic\sources\c99\common\Umul8_16.c"
  7326 ;; Parameters:    Size  Location     Type
  7327 ;;  multiplier      1    wreg     unsigned char 
  7328 ;;  multiplicand    1    2[COMMON] unsigned char 
  7329 ;; Auto vars:     Size  Location     Type
  7330 ;;  multiplier      1    4[BANK0 ] unsigned char 
  7331 ;;  word_mpld       2    2[BANK0 ] unsigned short 
  7332 ;;  product         2    0[BANK0 ] unsigned short 
  7333 ;; Return value:  Size  Location     Type
  7334 ;;                  2    2[COMMON] unsigned int 
  7335 ;; Registers used:
  7336 ;;		wreg, status,2, status,0
  7337 ;; Tracked objects:
  7338 ;;		On entry : 0/0
  7339 ;;		On exit  : 0/0
  7340 ;;		Unchanged: 0/0
  7341 ;; Data sizes:     COMMON   BANK0   BANK1   BANK3   BANK2
  7342 ;;      Params:         2       0       0       0       0
  7343 ;;      Locals:         0       5       0       0       0
  7344 ;;      Temps:          2       0       0       0       0
  7345 ;;      Totals:         4       5       0       0       0
  7346 ;;Total ram usage:        9 bytes
  7347 ;; Hardware stack levels used: 1
  7348 ;; Hardware stack levels required when called: 1
  7349 ;; This function calls:
  7350 ;;		Nothing
  7351 ;; This function is called by:
  7352 ;;		___flmul
  7353 ;; This function uses a non-reentrant model
  7354 ;;
  7355                           
  7356     1479                     __Umul8_16:	
  7357                           ;psect for function __Umul8_16
  7358                           
  7359                           
  7360                           ;incstack = 0
  7361                           ; Regs used in __Umul8_16: [wreg+status,2+status,0]
  7362                           ;__Umul8_16@multiplier stored from wreg
  7363     1479  1283               	bcf	3,5	;RP0=0, select bank0
  7364     147A  1303               	bcf	3,6	;RP1=0, select bank0
  7365     147B  00A4               	movwf	__Umul8_16@multiplier
  7366     147C                     l3924:
  7367     147C  01A0               	clrf	__Umul8_16@product
  7368     147D  01A1               	clrf	__Umul8_16@product+1
  7369     147E                     l3926:
  7370     147E  0872               	movf	__Umul8_16@multiplicand,w
  7371     147F  00F4               	movwf	??__Umul8_16
  7372     1480  01F5               	clrf	??__Umul8_16+1
  7373     1481  0874               	movf	??__Umul8_16,w
  7374     1482  00A2               	movwf	__Umul8_16@word_mpld
  7375     1483  0875               	movf	??__Umul8_16+1,w
  7376     1484  00A3               	movwf	__Umul8_16@word_mpld+1
  7377     1485                     l3928:
  7378     1485  1C24               	btfss	__Umul8_16@multiplier,0
  7379     1486  2C88               	goto	u4051
  7380     1487  2C89               	goto	u4050
  7381     1488                     u4051:
  7382     1488  2C8F               	goto	l866
  7383     1489                     u4050:
  7384     1489                     l3930:
  7385     1489  0822               	movf	__Umul8_16@word_mpld,w
  7386     148A  07A0               	addwf	__Umul8_16@product,f
  7387     148B  1803               	skipnc
  7388     148C  0AA1               	incf	__Umul8_16@product+1,f
  7389     148D  0823               	movf	__Umul8_16@word_mpld+1,w
  7390     148E  07A1               	addwf	__Umul8_16@product+1,f
  7391     148F                     l866:
  7392     148F  3001               	movlw	1
  7393     1490                     u4065:
  7394     1490  1003               	clrc
  7395     1491  0DA2               	rlf	__Umul8_16@word_mpld,f
  7396     1492  0DA3               	rlf	__Umul8_16@word_mpld+1,f
  7397     1493  3EFF               	addlw	-1
  7398     1494  1D03               	skipz
  7399     1495  2C90               	goto	u4065
  7400     1496  1003               	clrc
  7401     1497  0CA4               	rrf	__Umul8_16@multiplier,f
  7402     1498                     l3932:
  7403     1498  0824               	movf	__Umul8_16@multiplier,w
  7404     1499  1D03               	btfss	3,2
  7405     149A  2C9C               	goto	u4071
  7406     149B  2C9D               	goto	u4070
  7407     149C                     u4071:
  7408     149C  2C85               	goto	l3928
  7409     149D                     u4070:
  7410     149D                     l3934:
  7411     149D  0821               	movf	__Umul8_16@product+1,w
  7412     149E  00F3               	movwf	?__Umul8_16+1
  7413     149F  0820               	movf	__Umul8_16@product,w
  7414     14A0  00F2               	movwf	?__Umul8_16
  7415     14A1                     l868:
  7416     14A1  0008               	return
  7417     14A2                     __end_of__Umul8_16:
  7418                           
  7419                           	psect	text14
  7420     0803                     __ptext14:	
  7421 ;; *************** function ___flge *****************
  7422 ;; Defined at:
  7423 ;;		line 4 in file "C:\Program Files\Microchip\xc8\v2.45\pic\sources\c99\common\flge.c"
  7424 ;; Parameters:    Size  Location     Type
  7425 ;;  ff1             4   44[BANK0 ] unsigned int 
  7426 ;;  ff2             4   48[BANK0 ] unsigned int 
  7427 ;; Auto vars:     Size  Location     Type
  7428 ;;		None
  7429 ;; Return value:  Size  Location     Type
  7430 ;;		None               void
  7431 ;; Registers used:
  7432 ;;		wreg, status,2, status,0
  7433 ;; Tracked objects:
  7434 ;;		On entry : 0/0
  7435 ;;		On exit  : 0/0
  7436 ;;		Unchanged: 0/0
  7437 ;; Data sizes:     COMMON   BANK0   BANK1   BANK3   BANK2
  7438 ;;      Params:         0       8       0       0       0
  7439 ;;      Locals:         0       0       0       0       0
  7440 ;;      Temps:          0       4       0       0       0
  7441 ;;      Totals:         0      12       0       0       0
  7442 ;;Total ram usage:       12 bytes
  7443 ;; Hardware stack levels used: 1
  7444 ;; Hardware stack levels required when called: 1
  7445 ;; This function calls:
  7446 ;;		Nothing
  7447 ;; This function is called by:
  7448 ;;		_run_program
  7449 ;; This function uses a non-reentrant model
  7450 ;;
  7451                           
  7452     0803                     ___flge:	
  7453                           ;psect for function ___flge
  7454                           
  7455     0803                     l4076:	
  7456                           ;incstack = 0
  7457                           ; Regs used in ___flge: [wreg+status,2+status,0]
  7458                           
  7459     0803  3000               	movlw	0
  7460     0804  1283               	bcf	3,5	;RP0=0, select bank0
  7461     0805  1303               	bcf	3,6	;RP1=0, select bank0
  7462     0806  054C               	andwf	___flge@ff1,w
  7463     0807  00D4               	movwf	??___flge
  7464     0808  3000               	movlw	0
  7465     0809  054D               	andwf	___flge@ff1+1,w
  7466     080A  00D5               	movwf	??___flge+1
  7467     080B  3080               	movlw	128
  7468     080C  054E               	andwf	___flge@ff1+2,w
  7469     080D  00D6               	movwf	??___flge+2
  7470     080E  307F               	movlw	127
  7471     080F  054F               	andwf	___flge@ff1+3,w
  7472     0810  00D7               	movwf	??___flge+3
  7473     0811  0857               	movf	??___flge+3,w
  7474     0812  0456               	iorwf	??___flge+2,w
  7475     0813  0455               	iorwf	??___flge+1,w
  7476     0814  0454               	iorwf	??___flge,w
  7477     0815  1D03               	skipz
  7478     0816  2818               	goto	u4331
  7479     0817  2819               	goto	u4330
  7480     0818                     u4331:
  7481     0818  2821               	goto	l628
  7482     0819                     u4330:
  7483     0819                     l4078:
  7484     0819  3000               	movlw	0
  7485     081A  00CF               	movwf	___flge@ff1+3
  7486     081B  3000               	movlw	0
  7487     081C  00CE               	movwf	___flge@ff1+2
  7488     081D  3000               	movlw	0
  7489     081E  00CD               	movwf	___flge@ff1+1
  7490     081F  3000               	movlw	0
  7491     0820  00CC               	movwf	___flge@ff1
  7492     0821                     l628:
  7493     0821  3000               	movlw	0
  7494     0822  0550               	andwf	___flge@ff2,w
  7495     0823  00D4               	movwf	??___flge
  7496     0824  3000               	movlw	0
  7497     0825  0551               	andwf	___flge@ff2+1,w
  7498     0826  00D5               	movwf	??___flge+1
  7499     0827  3080               	movlw	128
  7500     0828  0552               	andwf	___flge@ff2+2,w
  7501     0829  00D6               	movwf	??___flge+2
  7502     082A  307F               	movlw	127
  7503     082B  0553               	andwf	___flge@ff2+3,w
  7504     082C  00D7               	movwf	??___flge+3
  7505     082D  0857               	movf	??___flge+3,w
  7506     082E  0456               	iorwf	??___flge+2,w
  7507     082F  0455               	iorwf	??___flge+1,w
  7508     0830  0454               	iorwf	??___flge,w
  7509     0831  1D03               	skipz
  7510     0832  2834               	goto	u4341
  7511     0833  2835               	goto	u4340
  7512     0834                     u4341:
  7513     0834  283D               	goto	l4082
  7514     0835                     u4340:
  7515     0835                     l4080:
  7516     0835  3000               	movlw	0
  7517     0836  00D3               	movwf	___flge@ff2+3
  7518     0837  3000               	movlw	0
  7519     0838  00D2               	movwf	___flge@ff2+2
  7520     0839  3000               	movlw	0
  7521     083A  00D1               	movwf	___flge@ff2+1
  7522     083B  3000               	movlw	0
  7523     083C  00D0               	movwf	___flge@ff2
  7524     083D                     l4082:
  7525     083D  1FCF               	btfss	___flge@ff1+3,7
  7526     083E  2840               	goto	u4351
  7527     083F  2841               	goto	u4350
  7528     0840                     u4351:
  7529     0840  2865               	goto	l4086
  7530     0841                     u4350:
  7531     0841                     l4084:
  7532     0841  3000               	movlw	0
  7533     0842  00D4               	movwf	??___flge
  7534     0843  3000               	movlw	0
  7535     0844  00D5               	movwf	??___flge+1
  7536     0845  3000               	movlw	0
  7537     0846  00D6               	movwf	??___flge+2
  7538     0847  3080               	movlw	128
  7539     0848  00D7               	movwf	??___flge+3
  7540     0849  084C               	movf	___flge@ff1,w
  7541     084A  02D4               	subwf	??___flge,f
  7542     084B  084D               	movf	___flge@ff1+1,w
  7543     084C  1C03               	skipc
  7544     084D  0F4D               	incfsz	___flge@ff1+1,w
  7545     084E  2850               	goto	u4361
  7546     084F  2851               	goto	u4362
  7547     0850                     u4361:
  7548     0850  02D5               	subwf	??___flge+1,f
  7549     0851                     u4362:
  7550     0851  084E               	movf	___flge@ff1+2,w
  7551     0852  1C03               	skipc
  7552     0853  0F4E               	incfsz	___flge@ff1+2,w
  7553     0854  2856               	goto	u4363
  7554     0855  2857               	goto	u4364
  7555     0856                     u4363:
  7556     0856  02D6               	subwf	??___flge+2,f
  7557     0857                     u4364:
  7558     0857  084F               	movf	___flge@ff1+3,w
  7559     0858  1C03               	skipc
  7560     0859  0F4F               	incfsz	___flge@ff1+3,w
  7561     085A  285C               	goto	u4365
  7562     085B  285D               	goto	u4366
  7563     085C                     u4365:
  7564     085C  02D7               	subwf	??___flge+3,f
  7565     085D                     u4366:
  7566     085D  0857               	movf	??___flge+3,w
  7567     085E  00CF               	movwf	___flge@ff1+3
  7568     085F  0856               	movf	??___flge+2,w
  7569     0860  00CE               	movwf	___flge@ff1+2
  7570     0861  0855               	movf	??___flge+1,w
  7571     0862  00CD               	movwf	___flge@ff1+1
  7572     0863  0854               	movf	??___flge,w
  7573     0864  00CC               	movwf	___flge@ff1
  7574     0865                     l4086:
  7575     0865  1FD3               	btfss	___flge@ff2+3,7
  7576     0866  2868               	goto	u4371
  7577     0867  2869               	goto	u4370
  7578     0868                     u4371:
  7579     0868  288D               	goto	l631
  7580     0869                     u4370:
  7581     0869                     l4088:
  7582     0869  3000               	movlw	0
  7583     086A  00D4               	movwf	??___flge
  7584     086B  3000               	movlw	0
  7585     086C  00D5               	movwf	??___flge+1
  7586     086D  3000               	movlw	0
  7587     086E  00D6               	movwf	??___flge+2
  7588     086F  3080               	movlw	128
  7589     0870  00D7               	movwf	??___flge+3
  7590     0871  0850               	movf	___flge@ff2,w
  7591     0872  02D4               	subwf	??___flge,f
  7592     0873  0851               	movf	___flge@ff2+1,w
  7593     0874  1C03               	skipc
  7594     0875  0F51               	incfsz	___flge@ff2+1,w
  7595     0876  2878               	goto	u4381
  7596     0877  2879               	goto	u4382
  7597     0878                     u4381:
  7598     0878  02D5               	subwf	??___flge+1,f
  7599     0879                     u4382:
  7600     0879  0852               	movf	___flge@ff2+2,w
  7601     087A  1C03               	skipc
  7602     087B  0F52               	incfsz	___flge@ff2+2,w
  7603     087C  287E               	goto	u4383
  7604     087D  287F               	goto	u4384
  7605     087E                     u4383:
  7606     087E  02D6               	subwf	??___flge+2,f
  7607     087F                     u4384:
  7608     087F  0853               	movf	___flge@ff2+3,w
  7609     0880  1C03               	skipc
  7610     0881  0F53               	incfsz	___flge@ff2+3,w
  7611     0882  2884               	goto	u4385
  7612     0883  2885               	goto	u4386
  7613     0884                     u4385:
  7614     0884  02D7               	subwf	??___flge+3,f
  7615     0885                     u4386:
  7616     0885  0857               	movf	??___flge+3,w
  7617     0886  00D3               	movwf	___flge@ff2+3
  7618     0887  0856               	movf	??___flge+2,w
  7619     0888  00D2               	movwf	___flge@ff2+2
  7620     0889  0855               	movf	??___flge+1,w
  7621     088A  00D1               	movwf	___flge@ff2+1
  7622     088B  0854               	movf	??___flge,w
  7623     088C  00D0               	movwf	___flge@ff2
  7624     088D                     l631:
  7625     088D  3080               	movlw	128
  7626     088E  06CF               	xorwf	___flge@ff1+3,f
  7627     088F  3080               	movlw	128
  7628     0890  06D3               	xorwf	___flge@ff2+3,f
  7629     0891  0853               	movf	___flge@ff2+3,w
  7630     0892  024F               	subwf	___flge@ff1+3,w
  7631     0893  1D03               	skipz
  7632     0894  289F               	goto	u4395
  7633     0895  0852               	movf	___flge@ff2+2,w
  7634     0896  024E               	subwf	___flge@ff1+2,w
  7635     0897  1D03               	skipz
  7636     0898  289F               	goto	u4395
  7637     0899  0851               	movf	___flge@ff2+1,w
  7638     089A  024D               	subwf	___flge@ff1+1,w
  7639     089B  1D03               	skipz
  7640     089C  289F               	goto	u4395
  7641     089D  0850               	movf	___flge@ff2,w
  7642     089E  024C               	subwf	___flge@ff1,w
  7643     089F                     u4395:
  7644     089F  1803               	skipnc
  7645     08A0  28A2               	goto	u4391
  7646     08A1  28A3               	goto	u4390
  7647     08A2                     u4391:
  7648     08A2  28A5               	goto	l4092
  7649     08A3                     u4390:
  7650     08A3                     l4090:
  7651     08A3  1003               	clrc
  7652     08A4  28A6               	goto	l636
  7653     08A5                     l4092:
  7654     08A5  1403               	setc
  7655     08A6                     l636:
  7656     08A6  0008               	return
  7657     08A7                     __end_of___flge:
  7658                           
  7659                           	psect	text15
  7660     15C2                     __ptext15:	
  7661 ;; *************** function ___awmod *****************
  7662 ;; Defined at:
  7663 ;;		line 5 in file "C:\Program Files\Microchip\xc8\v2.45\pic\sources\c99\common\awmod.c"
  7664 ;; Parameters:    Size  Location     Type
  7665 ;;  divisor         2    2[COMMON] int 
  7666 ;;  dividend        2    4[COMMON] int 
  7667 ;; Auto vars:     Size  Location     Type
  7668 ;;  sign            1    7[COMMON] unsigned char 
  7669 ;;  counter         1    6[COMMON] unsigned char 
  7670 ;; Return value:  Size  Location     Type
  7671 ;;                  2    2[COMMON] int 
  7672 ;; Registers used:
  7673 ;;		wreg, status,2, status,0, btemp+1
  7674 ;; Tracked objects:
  7675 ;;		On entry : 0/0
  7676 ;;		On exit  : 0/0
  7677 ;;		Unchanged: 0/0
  7678 ;; Data sizes:     COMMON   BANK0   BANK1   BANK3   BANK2
  7679 ;;      Params:         4       0       0       0       0
  7680 ;;      Locals:         2       0       0       0       0
  7681 ;;      Temps:          0       0       0       0       0
  7682 ;;      Totals:         6       0       0       0       0
  7683 ;;Total ram usage:        6 bytes
  7684 ;; Hardware stack levels used: 1
  7685 ;; Hardware stack levels required when called: 1
  7686 ;; This function calls:
  7687 ;;		Nothing
  7688 ;; This function is called by:
  7689 ;;		_water_level_screen
  7690 ;;		_run_program
  7691 ;; This function uses a non-reentrant model
  7692 ;;
  7693                           
  7694     15C2                     ___awmod:	
  7695                           ;psect for function ___awmod
  7696                           
  7697     15C2                     l4038:	
  7698                           ;incstack = 0
  7699                           ; Regs used in ___awmod: [wreg+status,2+status,0+btemp+1]
  7700                           
  7701     15C2  01F7               	clrf	___awmod@sign
  7702     15C3                     l4040:
  7703     15C3  1FF5               	btfss	___awmod@dividend+1,7
  7704     15C4  2DC6               	goto	u4241
  7705     15C5  2DC7               	goto	u4240
  7706     15C6                     u4241:
  7707     15C6  2DCE               	goto	l4046
  7708     15C7                     u4240:
  7709     15C7                     l4042:
  7710     15C7  09F4               	comf	___awmod@dividend,f
  7711     15C8  09F5               	comf	___awmod@dividend+1,f
  7712     15C9  0AF4               	incf	___awmod@dividend,f
  7713     15CA  1903               	skipnz
  7714     15CB  0AF5               	incf	___awmod@dividend+1,f
  7715     15CC                     l4044:
  7716     15CC  01F7               	clrf	___awmod@sign
  7717     15CD  0AF7               	incf	___awmod@sign,f
  7718     15CE                     l4046:
  7719     15CE  1FF3               	btfss	___awmod@divisor+1,7
  7720     15CF  2DD1               	goto	u4251
  7721     15D0  2DD2               	goto	u4250
  7722     15D1                     u4251:
  7723     15D1  2DD7               	goto	l4050
  7724     15D2                     u4250:
  7725     15D2                     l4048:
  7726     15D2  09F2               	comf	___awmod@divisor,f
  7727     15D3  09F3               	comf	___awmod@divisor+1,f
  7728     15D4  0AF2               	incf	___awmod@divisor,f
  7729     15D5  1903               	skipnz
  7730     15D6  0AF3               	incf	___awmod@divisor+1,f
  7731     15D7                     l4050:
  7732     15D7  0872               	movf	___awmod@divisor,w
  7733     15D8  0473               	iorwf	___awmod@divisor+1,w
  7734     15D9  1903               	btfsc	3,2
  7735     15DA  2DDC               	goto	u4261
  7736     15DB  2DDD               	goto	u4260
  7737     15DC                     u4261:
  7738     15DC  2E0C               	goto	l4068
  7739     15DD                     u4260:
  7740     15DD                     l4052:
  7741     15DD  01F6               	clrf	___awmod@counter
  7742     15DE  0AF6               	incf	___awmod@counter,f
  7743     15DF  2DEB               	goto	l4058
  7744     15E0                     l4054:
  7745     15E0  3001               	movlw	1
  7746     15E1                     u4275:
  7747     15E1  1003               	clrc
  7748     15E2  0DF2               	rlf	___awmod@divisor,f
  7749     15E3  0DF3               	rlf	___awmod@divisor+1,f
  7750     15E4  3EFF               	addlw	-1
  7751     15E5  1D03               	skipz
  7752     15E6  2DE1               	goto	u4275
  7753     15E7                     l4056:
  7754     15E7  3001               	movlw	1
  7755     15E8  00FF               	movwf	btemp+1
  7756     15E9  087F               	movf	btemp+1,w
  7757     15EA  07F6               	addwf	___awmod@counter,f
  7758     15EB                     l4058:
  7759     15EB  1FF3               	btfss	___awmod@divisor+1,7
  7760     15EC  2DEE               	goto	u4281
  7761     15ED  2DEF               	goto	u4280
  7762     15EE                     u4281:
  7763     15EE  2DE0               	goto	l4054
  7764     15EF                     u4280:
  7765     15EF                     l4060:
  7766     15EF  0873               	movf	___awmod@divisor+1,w
  7767     15F0  0275               	subwf	___awmod@dividend+1,w
  7768     15F1  1D03               	skipz
  7769     15F2  2DF5               	goto	u4295
  7770     15F3  0872               	movf	___awmod@divisor,w
  7771     15F4  0274               	subwf	___awmod@dividend,w
  7772     15F5                     u4295:
  7773     15F5  1C03               	skipc
  7774     15F6  2DF8               	goto	u4291
  7775     15F7  2DF9               	goto	u4290
  7776     15F8                     u4291:
  7777     15F8  2DFF               	goto	l4064
  7778     15F9                     u4290:
  7779     15F9                     l4062:
  7780     15F9  0872               	movf	___awmod@divisor,w
  7781     15FA  02F4               	subwf	___awmod@dividend,f
  7782     15FB  0873               	movf	___awmod@divisor+1,w
  7783     15FC  1C03               	skipc
  7784     15FD  03F5               	decf	___awmod@dividend+1,f
  7785     15FE  02F5               	subwf	___awmod@dividend+1,f
  7786     15FF                     l4064:
  7787     15FF  3001               	movlw	1
  7788     1600                     u4305:
  7789     1600  1003               	clrc
  7790     1601  0CF3               	rrf	___awmod@divisor+1,f
  7791     1602  0CF2               	rrf	___awmod@divisor,f
  7792     1603  3EFF               	addlw	-1
  7793     1604  1D03               	skipz
  7794     1605  2E00               	goto	u4305
  7795     1606                     l4066:
  7796     1606  3001               	movlw	1
  7797     1607  02F6               	subwf	___awmod@counter,f
  7798     1608  1D03               	btfss	3,2
  7799     1609  2E0B               	goto	u4311
  7800     160A  2E0C               	goto	u4310
  7801     160B                     u4311:
  7802     160B  2DEF               	goto	l4060
  7803     160C                     u4310:
  7804     160C                     l4068:
  7805     160C  0877               	movf	___awmod@sign,w
  7806     160D  1903               	btfsc	3,2
  7807     160E  2E10               	goto	u4321
  7808     160F  2E11               	goto	u4320
  7809     1610                     u4321:
  7810     1610  2E16               	goto	l4072
  7811     1611                     u4320:
  7812     1611                     l4070:
  7813     1611  09F4               	comf	___awmod@dividend,f
  7814     1612  09F5               	comf	___awmod@dividend+1,f
  7815     1613  0AF4               	incf	___awmod@dividend,f
  7816     1614  1903               	skipnz
  7817     1615  0AF5               	incf	___awmod@dividend+1,f
  7818     1616                     l4072:
  7819     1616  0875               	movf	___awmod@dividend+1,w
  7820     1617  00F3               	movwf	?___awmod+1
  7821     1618  0874               	movf	___awmod@dividend,w
  7822     1619  00F2               	movwf	?___awmod
  7823     161A                     l616:
  7824     161A  0008               	return
  7825     161B                     __end_of___awmod:
  7826                           
  7827                           	psect	text16
  7828     161B                     __ptext16:	
  7829 ;; *************** function ___awdiv *****************
  7830 ;; Defined at:
  7831 ;;		line 5 in file "C:\Program Files\Microchip\xc8\v2.45\pic\sources\c99\common\awdiv.c"
  7832 ;; Parameters:    Size  Location     Type
  7833 ;;  divisor         2    2[COMMON] int 
  7834 ;;  dividend        2    4[COMMON] int 
  7835 ;; Auto vars:     Size  Location     Type
  7836 ;;  quotient        2    2[BANK0 ] int 
  7837 ;;  sign            1    1[BANK0 ] unsigned char 
  7838 ;;  counter         1    0[BANK0 ] unsigned char 
  7839 ;; Return value:  Size  Location     Type
  7840 ;;                  2    2[COMMON] int 
  7841 ;; Registers used:
  7842 ;;		wreg, status,2, status,0, btemp+1
  7843 ;; Tracked objects:
  7844 ;;		On entry : 0/0
  7845 ;;		On exit  : 0/0
  7846 ;;		Unchanged: 0/0
  7847 ;; Data sizes:     COMMON   BANK0   BANK1   BANK3   BANK2
  7848 ;;      Params:         4       0       0       0       0
  7849 ;;      Locals:         0       4       0       0       0
  7850 ;;      Temps:          0       0       0       0       0
  7851 ;;      Totals:         4       4       0       0       0
  7852 ;;Total ram usage:        8 bytes
  7853 ;; Hardware stack levels used: 1
  7854 ;; Hardware stack levels required when called: 1
  7855 ;; This function calls:
  7856 ;;		Nothing
  7857 ;; This function is called by:
  7858 ;;		_run_program
  7859 ;; This function uses a non-reentrant model
  7860 ;;
  7861                           
  7862     161B                     ___awdiv:	
  7863                           ;psect for function ___awdiv
  7864                           
  7865     161B                     l5158:	
  7866                           ;incstack = 0
  7867                           ; Regs used in ___awdiv: [wreg+status,2+status,0+btemp+1]
  7868                           
  7869     161B  1283               	bcf	3,5	;RP0=0, select bank0
  7870     161C  1303               	bcf	3,6	;RP1=0, select bank0
  7871     161D  01A1               	clrf	___awdiv@sign
  7872     161E                     l5160:
  7873     161E  1FF3               	btfss	___awdiv@divisor+1,7
  7874     161F  2E21               	goto	u5441
  7875     1620  2E22               	goto	u5440
  7876     1621                     u5441:
  7877     1621  2E29               	goto	l5166
  7878     1622                     u5440:
  7879     1622                     l5162:
  7880     1622  09F2               	comf	___awdiv@divisor,f
  7881     1623  09F3               	comf	___awdiv@divisor+1,f
  7882     1624  0AF2               	incf	___awdiv@divisor,f
  7883     1625  1903               	skipnz
  7884     1626  0AF3               	incf	___awdiv@divisor+1,f
  7885     1627                     l5164:
  7886     1627  01A1               	clrf	___awdiv@sign
  7887     1628  0AA1               	incf	___awdiv@sign,f
  7888     1629                     l5166:
  7889     1629  1FF5               	btfss	___awdiv@dividend+1,7
  7890     162A  2E2C               	goto	u5451
  7891     162B  2E2D               	goto	u5450
  7892     162C                     u5451:
  7893     162C  2E36               	goto	l5172
  7894     162D                     u5450:
  7895     162D                     l5168:
  7896     162D  09F4               	comf	___awdiv@dividend,f
  7897     162E  09F5               	comf	___awdiv@dividend+1,f
  7898     162F  0AF4               	incf	___awdiv@dividend,f
  7899     1630  1903               	skipnz
  7900     1631  0AF5               	incf	___awdiv@dividend+1,f
  7901     1632                     l5170:
  7902     1632  3001               	movlw	1
  7903     1633  00FF               	movwf	btemp+1
  7904     1634  087F               	movf	btemp+1,w
  7905     1635  06A1               	xorwf	___awdiv@sign,f
  7906     1636                     l5172:
  7907     1636  01A2               	clrf	___awdiv@quotient
  7908     1637  01A3               	clrf	___awdiv@quotient+1
  7909     1638                     l5174:
  7910     1638  0872               	movf	___awdiv@divisor,w
  7911     1639  0473               	iorwf	___awdiv@divisor+1,w
  7912     163A  1903               	btfsc	3,2
  7913     163B  2E3D               	goto	u5461
  7914     163C  2E3E               	goto	u5460
  7915     163D                     u5461:
  7916     163D  2E75               	goto	l5194
  7917     163E                     u5460:
  7918     163E                     l5176:
  7919     163E  01A0               	clrf	___awdiv@counter
  7920     163F  0AA0               	incf	___awdiv@counter,f
  7921     1640  2E4C               	goto	l5182
  7922     1641                     l5178:
  7923     1641  3001               	movlw	1
  7924     1642                     u5475:
  7925     1642  1003               	clrc
  7926     1643  0DF2               	rlf	___awdiv@divisor,f
  7927     1644  0DF3               	rlf	___awdiv@divisor+1,f
  7928     1645  3EFF               	addlw	-1
  7929     1646  1D03               	skipz
  7930     1647  2E42               	goto	u5475
  7931     1648                     l5180:
  7932     1648  3001               	movlw	1
  7933     1649  00FF               	movwf	btemp+1
  7934     164A  087F               	movf	btemp+1,w
  7935     164B  07A0               	addwf	___awdiv@counter,f
  7936     164C                     l5182:
  7937     164C  1FF3               	btfss	___awdiv@divisor+1,7
  7938     164D  2E4F               	goto	u5481
  7939     164E  2E50               	goto	u5480
  7940     164F                     u5481:
  7941     164F  2E41               	goto	l5178
  7942     1650                     u5480:
  7943     1650                     l5184:
  7944     1650  3001               	movlw	1
  7945     1651                     u5495:
  7946     1651  1003               	clrc
  7947     1652  0DA2               	rlf	___awdiv@quotient,f
  7948     1653  0DA3               	rlf	___awdiv@quotient+1,f
  7949     1654  3EFF               	addlw	-1
  7950     1655  1D03               	skipz
  7951     1656  2E51               	goto	u5495
  7952     1657  0873               	movf	___awdiv@divisor+1,w
  7953     1658  0275               	subwf	___awdiv@dividend+1,w
  7954     1659  1D03               	skipz
  7955     165A  2E5D               	goto	u5505
  7956     165B  0872               	movf	___awdiv@divisor,w
  7957     165C  0274               	subwf	___awdiv@dividend,w
  7958     165D                     u5505:
  7959     165D  1C03               	skipc
  7960     165E  2E60               	goto	u5501
  7961     165F  2E61               	goto	u5500
  7962     1660                     u5501:
  7963     1660  2E68               	goto	l5190
  7964     1661                     u5500:
  7965     1661                     l5186:
  7966     1661  0872               	movf	___awdiv@divisor,w
  7967     1662  02F4               	subwf	___awdiv@dividend,f
  7968     1663  0873               	movf	___awdiv@divisor+1,w
  7969     1664  1C03               	skipc
  7970     1665  03F5               	decf	___awdiv@dividend+1,f
  7971     1666  02F5               	subwf	___awdiv@dividend+1,f
  7972     1667                     l5188:
  7973     1667  1422               	bsf	___awdiv@quotient,0
  7974     1668                     l5190:
  7975     1668  3001               	movlw	1
  7976     1669                     u5515:
  7977     1669  1003               	clrc
  7978     166A  0CF3               	rrf	___awdiv@divisor+1,f
  7979     166B  0CF2               	rrf	___awdiv@divisor,f
  7980     166C  3EFF               	addlw	-1
  7981     166D  1D03               	skipz
  7982     166E  2E69               	goto	u5515
  7983     166F                     l5192:
  7984     166F  3001               	movlw	1
  7985     1670  02A0               	subwf	___awdiv@counter,f
  7986     1671  1D03               	btfss	3,2
  7987     1672  2E74               	goto	u5521
  7988     1673  2E75               	goto	u5520
  7989     1674                     u5521:
  7990     1674  2E50               	goto	l5184
  7991     1675                     u5520:
  7992     1675                     l5194:
  7993     1675  0821               	movf	___awdiv@sign,w
  7994     1676  1903               	btfsc	3,2
  7995     1677  2E79               	goto	u5531
  7996     1678  2E7A               	goto	u5530
  7997     1679                     u5531:
  7998     1679  2E7F               	goto	l5198
  7999     167A                     u5530:
  8000     167A                     l5196:
  8001     167A  09A2               	comf	___awdiv@quotient,f
  8002     167B  09A3               	comf	___awdiv@quotient+1,f
  8003     167C  0AA2               	incf	___awdiv@quotient,f
  8004     167D  1903               	skipnz
  8005     167E  0AA3               	incf	___awdiv@quotient+1,f
  8006     167F                     l5198:
  8007     167F  0823               	movf	___awdiv@quotient+1,w
  8008     1680  00F3               	movwf	?___awdiv+1
  8009     1681  0822               	movf	___awdiv@quotient,w
  8010     1682  00F2               	movwf	?___awdiv
  8011     1683                     l603:
  8012     1683  0008               	return
  8013     1684                     __end_of___awdiv:
  8014                           
  8015                           	psect	text17
  8016     1515                     __ptext17:	
  8017 ;; *************** function _read_digital_keypad *****************
  8018 ;; Defined at:
  8019 ;;		line 10 in file "digital_keypad.c"
  8020 ;; Parameters:    Size  Location     Type
  8021 ;;  mode            1    wreg     unsigned char 
  8022 ;; Auto vars:     Size  Location     Type
  8023 ;;  mode            1    0[COMMON] unsigned char 
  8024 ;;  key             1    2[COMMON] unsigned char 
  8025 ;; Return value:  Size  Location     Type
  8026 ;;                  1    wreg      unsigned char 
  8027 ;; Registers used:
  8028 ;;		wreg, status,2, status,0, btemp+1
  8029 ;; Tracked objects:
  8030 ;;		On entry : 0/0
  8031 ;;		On exit  : 0/0
  8032 ;;		Unchanged: 0/0
  8033 ;; Data sizes:     COMMON   BANK0   BANK1   BANK3   BANK2
  8034 ;;      Params:         0       0       0       0       0
  8035 ;;      Locals:         1       0       0       0       0
  8036 ;;      Temps:          0       0       0       0       0
  8037 ;;      Totals:         1       0       0       0       0
  8038 ;;Total ram usage:        1 bytes
  8039 ;; Hardware stack levels used: 1
  8040 ;; Hardware stack levels required when called: 1
  8041 ;; This function calls:
  8042 ;;		Nothing
  8043 ;; This function is called by:
  8044 ;;		_main
  8045 ;; This function uses a non-reentrant model
  8046 ;;
  8047                           
  8048     1515                     _read_digital_keypad:	
  8049                           ;psect for function _read_digital_keypad
  8050                           
  8051     1515                     l4344:	
  8052                           ;incstack = 0
  8053                           ; Regs used in _read_digital_keypad: [wreg+status,2+status,0+btemp+1]
  8054                           
  8055                           
  8056                           ;digital_keypad.c: 11:     static unsigned char once = 1;;digital_keypad.c: 12:     stat
      +                          ic unsigned char long_press = 1;;digital_keypad.c: 13:     static unsigned char pre_key;
      +                          ;digital_keypad.c: 14:     unsigned char key = PORTB & 0x3F;
  8057     1515  1283               	bcf	3,5	;RP0=0, select bank0
  8058     1516  1303               	bcf	3,6	;RP1=0, select bank0
  8059     1517  0806               	movf	6,w	;volatile
  8060     1518  393F               	andlw	63
  8061     1519  00F2               	movwf	read_digital_keypad@key
  8062     151A                     l4346:
  8063                           
  8064                           ;digital_keypad.c: 16:     if ((key != 0x3F) && once) {
  8065     151A  303F               	movlw	63
  8066     151B  0672               	xorwf	read_digital_keypad@key,w
  8067     151C  1903               	btfsc	3,2
  8068     151D  2D1F               	goto	u5011
  8069     151E  2D20               	goto	u5010
  8070     151F                     u5011:
  8071     151F  2D2B               	goto	l4356
  8072     1520                     u5010:
  8073     1520                     l4348:
  8074     1520  087B               	movf	read_digital_keypad@once,w
  8075     1521  1903               	btfsc	3,2
  8076     1522  2D24               	goto	u5021
  8077     1523  2D25               	goto	u5020
  8078     1524                     u5021:
  8079     1524  2D2B               	goto	l4356
  8080     1525                     u5020:
  8081     1525                     l4350:
  8082                           
  8083                           ;digital_keypad.c: 17:         once = 0;
  8084     1525  01FB               	clrf	read_digital_keypad@once
  8085     1526                     l4352:
  8086                           
  8087                           ;digital_keypad.c: 18:         pre_key = key;
  8088     1526  0872               	movf	read_digital_keypad@key,w
  8089     1527  00E8               	movwf	read_digital_keypad@pre_key
  8090     1528                     l4354:
  8091                           
  8092                           ;digital_keypad.c: 19:         long_press = 1;
  8093     1528  01EA               	clrf	read_digital_keypad@long_press
  8094     1529  0AEA               	incf	read_digital_keypad@long_press,f
  8095                           
  8096                           ;digital_keypad.c: 20:     } else if ((key == 0x3F) && !once) {
  8097     152A  2D69               	goto	l4388
  8098     152B                     l4356:
  8099     152B  303F               	movlw	63
  8100     152C  0672               	xorwf	read_digital_keypad@key,w
  8101     152D  1D03               	btfss	3,2
  8102     152E  2D30               	goto	u5031
  8103     152F  2D31               	goto	u5030
  8104     1530                     u5031:
  8105     1530  2D42               	goto	l4370
  8106     1531                     u5030:
  8107     1531                     l4358:
  8108     1531  087B               	movf	read_digital_keypad@once,w
  8109     1532  1D03               	btfss	3,2
  8110     1533  2D35               	goto	u5041
  8111     1534  2D36               	goto	u5040
  8112     1535                     u5041:
  8113     1535  2D42               	goto	l4370
  8114     1536                     u5040:
  8115     1536                     l4360:
  8116                           
  8117                           ;digital_keypad.c: 21:         once = 1;
  8118     1536  01FB               	clrf	read_digital_keypad@once
  8119     1537  0AFB               	incf	read_digital_keypad@once,f
  8120     1538                     l4362:
  8121                           
  8122                           ;digital_keypad.c: 22:         if (long_press < 15) {
  8123     1538  300F               	movlw	15
  8124     1539  026A               	subwf	read_digital_keypad@long_press,w
  8125     153A  1803               	skipnc
  8126     153B  2D3D               	goto	u5051
  8127     153C  2D3E               	goto	u5050
  8128     153D                     u5051:
  8129     153D  2D69               	goto	l4388
  8130     153E                     u5050:
  8131     153E                     l4364:
  8132                           
  8133                           ;digital_keypad.c: 23:             long_press = 1;
  8134     153E  01EA               	clrf	read_digital_keypad@long_press
  8135     153F  0AEA               	incf	read_digital_keypad@long_press,f
  8136     1540                     l4366:
  8137                           
  8138                           ;digital_keypad.c: 24:             return pre_key;
  8139     1540  0868               	movf	read_digital_keypad@pre_key,w
  8140     1541  2D6A               	goto	l126
  8141     1542                     l4370:
  8142     1542  087B               	movf	read_digital_keypad@once,w
  8143     1543  1D03               	btfss	3,2
  8144     1544  2D46               	goto	u5061
  8145     1545  2D47               	goto	u5060
  8146     1546                     u5061:
  8147     1546  2D52               	goto	l4376
  8148     1547                     u5060:
  8149     1547                     l4372:
  8150     1547  3010               	movlw	16
  8151     1548  026A               	subwf	read_digital_keypad@long_press,w
  8152     1549  1803               	skipnc
  8153     154A  2D4C               	goto	u5071
  8154     154B  2D4D               	goto	u5070
  8155     154C                     u5071:
  8156     154C  2D52               	goto	l4376
  8157     154D                     u5070:
  8158     154D                     l4374:
  8159                           
  8160                           ;digital_keypad.c: 27:         long_press++;
  8161     154D  3001               	movlw	1
  8162     154E  00FF               	movwf	btemp+1
  8163     154F  087F               	movf	btemp+1,w
  8164     1550  07EA               	addwf	read_digital_keypad@long_press,f
  8165                           
  8166                           ;digital_keypad.c: 28:     } else if (!once && long_press == 16 &&pre_key==0x37) {
  8167     1551  2D69               	goto	l4388
  8168     1552                     l4376:
  8169     1552  087B               	movf	read_digital_keypad@once,w
  8170     1553  1D03               	btfss	3,2
  8171     1554  2D56               	goto	u5081
  8172     1555  2D57               	goto	u5080
  8173     1556                     u5081:
  8174     1556  2D69               	goto	l127
  8175     1557                     u5080:
  8176     1557                     l4378:
  8177     1557  3010               	movlw	16
  8178     1558  066A               	xorwf	read_digital_keypad@long_press,w
  8179     1559  1D03               	btfss	3,2
  8180     155A  2D5C               	goto	u5091
  8181     155B  2D5D               	goto	u5090
  8182     155C                     u5091:
  8183     155C  2D69               	goto	l127
  8184     155D                     u5090:
  8185     155D                     l4380:
  8186     155D  3037               	movlw	55
  8187     155E  0668               	xorwf	read_digital_keypad@pre_key,w
  8188     155F  1D03               	btfss	3,2
  8189     1560  2D62               	goto	u5101
  8190     1561  2D63               	goto	u5100
  8191     1562                     u5101:
  8192     1562  2D69               	goto	l127
  8193     1563                     u5100:
  8194     1563                     l4382:
  8195                           
  8196                           ;digital_keypad.c: 29:         long_press++;
  8197     1563  3001               	movlw	1
  8198     1564  00FF               	movwf	btemp+1
  8199     1565  087F               	movf	btemp+1,w
  8200     1566  07EA               	addwf	read_digital_keypad@long_press,f
  8201     1567                     l4384:
  8202                           
  8203                           ;digital_keypad.c: 30:         return 0x99;
  8204     1567  3099               	movlw	153
  8205     1568  2D6A               	goto	l126
  8206     1569                     l127:
  8207     1569                     l4388:
  8208                           
  8209                           ;digital_keypad.c: 33:     return 0x3F;
  8210     1569  303F               	movlw	63
  8211     156A                     l126:
  8212     156A  0008               	return
  8213     156B                     __end_of_read_digital_keypad:
  8214                           
  8215                           	psect	text18
  8216     16EF                     __ptext18:	
  8217 ;; *************** function _power_on_screen *****************
  8218 ;; Defined at:
  8219 ;;		line 15 in file "washing_machine_function_def.c"
  8220 ;; Parameters:    Size  Location     Type
  8221 ;;		None
  8222 ;; Auto vars:     Size  Location     Type
  8223 ;;  i               1    9[BANK0 ] unsigned char 
  8224 ;;  i               1    8[BANK0 ] unsigned char 
  8225 ;; Return value:  Size  Location     Type
  8226 ;;                  1    wreg      void 
  8227 ;; Registers used:
  8228 ;;		wreg, fsr0l, fsr0h, status,2, status,0, btemp+1, pclath, cstack
  8229 ;; Tracked objects:
  8230 ;;		On entry : 0/0
  8231 ;;		On exit  : 0/0
  8232 ;;		Unchanged: 0/0
  8233 ;; Data sizes:     COMMON   BANK0   BANK1   BANK3   BANK2
  8234 ;;      Params:         0       0       0       0       0
  8235 ;;      Locals:         0       2       0       0       0
  8236 ;;      Temps:          0       3       0       0       0
  8237 ;;      Totals:         0       5       0       0       0
  8238 ;;Total ram usage:        5 bytes
  8239 ;; Hardware stack levels used: 1
  8240 ;; Hardware stack levels required when called: 3
  8241 ;; This function calls:
  8242 ;;		_clcd_print
  8243 ;;		_clcd_putch
  8244 ;; This function is called by:
  8245 ;;		_main
  8246 ;; This function uses a non-reentrant model
  8247 ;;
  8248                           
  8249     16EF                     _power_on_screen:	
  8250                           ;psect for function _power_on_screen
  8251                           
  8252     16EF                     l4392:	
  8253                           ;incstack = 0
  8254                           ; Regs used in _power_on_screen: [wreg-fsr0h+status,2+status,0+btemp+1+pclath+cstack]
  8255                           
  8256                           
  8257                           ;washing_machine_function_def.c: 16:     for (unsigned char i = 0; i < 16; i++) {
  8258     16EF  1283               	bcf	3,5	;RP0=0, select bank0
  8259     16F0  1303               	bcf	3,6	;RP1=0, select bank0
  8260     16F1  01A8               	clrf	power_on_screen@i
  8261     16F2                     l4398:
  8262                           
  8263                           ;washing_machine_function_def.c: 17:         clcd_putch(0xFF, (0x80 + i));
  8264     16F2  0828               	movf	power_on_screen@i,w
  8265     16F3  3E80               	addlw	128
  8266     16F4  00F8               	movwf	clcd_putch@addr
  8267     16F5  30FF               	movlw	255
  8268     16F6  160A  118A  23BF  160A  118A  	fcall	_clcd_putch
  8269     16FB                     l4400:
  8270                           
  8271                           ;washing_machine_function_def.c: 18:         _delay((unsigned long)((100)*(20000000/4000
      +                          .0)));
  8272     16FB  3003               	movlw	3
  8273     16FC  1283               	bcf	3,5	;RP0=0, select bank0
  8274     16FD  1303               	bcf	3,6	;RP1=0, select bank0
  8275     16FE  00A7               	movwf	??_power_on_screen+2
  8276     16FF  308A               	movlw	138
  8277     1700  00A6               	movwf	??_power_on_screen+1
  8278     1701  3055               	movlw	85
  8279     1702  00A5               	movwf	??_power_on_screen
  8280     1703                     u5797:
  8281     1703  0BA5               	decfsz	??_power_on_screen,f
  8282     1704  2F03               	goto	u5797
  8283     1705  0BA6               	decfsz	??_power_on_screen+1,f
  8284     1706  2F03               	goto	u5797
  8285     1707  0BA7               	decfsz	??_power_on_screen+2,f
  8286     1708  2F03               	goto	u5797
  8287     1709                     l4402:
  8288                           
  8289                           ;washing_machine_function_def.c: 19:     }
  8290     1709  3001               	movlw	1
  8291     170A  00FF               	movwf	btemp+1
  8292     170B  087F               	movf	btemp+1,w
  8293     170C  1283               	bcf	3,5	;RP0=0, select bank0
  8294     170D  1303               	bcf	3,6	;RP1=0, select bank0
  8295     170E  07A8               	addwf	power_on_screen@i,f
  8296     170F                     l4404:
  8297     170F  3010               	movlw	16
  8298     1710  0228               	subwf	power_on_screen@i,w
  8299     1711  1C03               	skipc
  8300     1712  2F14               	goto	u5111
  8301     1713  2F15               	goto	u5110
  8302     1714                     u5111:
  8303     1714  2EF2               	goto	l4398
  8304     1715                     u5110:
  8305     1715                     l4406:
  8306                           
  8307                           ;washing_machine_function_def.c: 21:     clcd_print("Powering ON", (0xC0 + 3));
  8308     1715  308A               	movlw	low (STR_24| (0+32768))
  8309     1716  00A0               	movwf	clcd_print@str
  8310     1717  3090               	movlw	high (STR_24| (0+32768))
  8311     1718  00A1               	movwf	clcd_print@str+1
  8312     1719  30C3               	movlw	195
  8313     171A  00A2               	movwf	clcd_print@addr
  8314     171B  160A  118A  24A2  160A  118A  	fcall	_clcd_print
  8315                           
  8316                           ;washing_machine_function_def.c: 22:     clcd_print("Washing Machine", (0x90+1));
  8317     1720  3041               	movlw	low (STR_3| (0+32768))
  8318     1721  1283               	bcf	3,5	;RP0=0, select bank0
  8319     1722  1303               	bcf	3,6	;RP1=0, select bank0
  8320     1723  00A0               	movwf	clcd_print@str
  8321     1724  3090               	movlw	high (STR_3| (0+32768))
  8322     1725  00A1               	movwf	clcd_print@str+1
  8323     1726  3091               	movlw	145
  8324     1727  00A2               	movwf	clcd_print@addr
  8325     1728  160A  118A  24A2  160A  118A  	fcall	_clcd_print
  8326     172D                     l4408:
  8327                           
  8328                           ;washing_machine_function_def.c: 24:     for (unsigned char i = 0; i < 16; i++) {
  8329     172D  1283               	bcf	3,5	;RP0=0, select bank0
  8330     172E  1303               	bcf	3,6	;RP1=0, select bank0
  8331     172F  01A9               	clrf	power_on_screen@i_196
  8332     1730                     l4414:
  8333                           
  8334                           ;washing_machine_function_def.c: 25:         clcd_putch(0xFF, (0xD0+i));
  8335     1730  0829               	movf	power_on_screen@i_196,w
  8336     1731  3ED0               	addlw	208
  8337     1732  00F8               	movwf	clcd_putch@addr
  8338     1733  30FF               	movlw	255
  8339     1734  160A  118A  23BF  160A  118A  	fcall	_clcd_putch
  8340     1739                     l4416:
  8341                           
  8342                           ;washing_machine_function_def.c: 26:         _delay((unsigned long)((100)*(20000000/4000
      +                          .0)));
  8343     1739  3003               	movlw	3
  8344     173A  1283               	bcf	3,5	;RP0=0, select bank0
  8345     173B  1303               	bcf	3,6	;RP1=0, select bank0
  8346     173C  00A7               	movwf	??_power_on_screen+2
  8347     173D  308A               	movlw	138
  8348     173E  00A6               	movwf	??_power_on_screen+1
  8349     173F  3055               	movlw	85
  8350     1740  00A5               	movwf	??_power_on_screen
  8351     1741                     u5807:
  8352     1741  0BA5               	decfsz	??_power_on_screen,f
  8353     1742  2F41               	goto	u5807
  8354     1743  0BA6               	decfsz	??_power_on_screen+1,f
  8355     1744  2F41               	goto	u5807
  8356     1745  0BA7               	decfsz	??_power_on_screen+2,f
  8357     1746  2F41               	goto	u5807
  8358     1747                     l4418:
  8359                           
  8360                           ;washing_machine_function_def.c: 27:     }
  8361     1747  3001               	movlw	1
  8362     1748  00FF               	movwf	btemp+1
  8363     1749  087F               	movf	btemp+1,w
  8364     174A  1283               	bcf	3,5	;RP0=0, select bank0
  8365     174B  1303               	bcf	3,6	;RP1=0, select bank0
  8366     174C  07A9               	addwf	power_on_screen@i_196,f
  8367     174D                     l4420:
  8368     174D  3010               	movlw	16
  8369     174E  0229               	subwf	power_on_screen@i_196,w
  8370     174F  1C03               	skipc
  8371     1750  2F52               	goto	u5121
  8372     1751  2F53               	goto	u5120
  8373     1752                     u5121:
  8374     1752  2F30               	goto	l4414
  8375     1753                     u5120:
  8376     1753                     l4422:
  8377                           
  8378                           ;washing_machine_function_def.c: 29:     _delay((unsigned long)((500)*(20000000/4000.0))
      +                          );
  8379     1753  300D               	movlw	13
  8380     1754  1283               	bcf	3,5	;RP0=0, select bank0
  8381     1755  1303               	bcf	3,6	;RP1=0, select bank0
  8382     1756  00A7               	movwf	??_power_on_screen+2
  8383     1757  30AF               	movlw	175
  8384     1758  00A6               	movwf	??_power_on_screen+1
  8385     1759  30B5               	movlw	181
  8386     175A  00A5               	movwf	??_power_on_screen
  8387     175B                     u5817:
  8388     175B  0BA5               	decfsz	??_power_on_screen,f
  8389     175C  2F5B               	goto	u5817
  8390     175D  0BA6               	decfsz	??_power_on_screen+1,f
  8391     175E  2F5B               	goto	u5817
  8392     175F  0BA7               	decfsz	??_power_on_screen+2,f
  8393     1760  2F5B               	goto	u5817
  8394     1761  2F62               	nop2
  8395     1762                     l218:
  8396     1762  0008               	return
  8397     1763                     __end_of_power_on_screen:
  8398                           
  8399                           	psect	text19
  8400     13BF                     __ptext19:	
  8401 ;; *************** function _clcd_putch *****************
  8402 ;; Defined at:
  8403 ;;		line 49 in file "clcd.c"
  8404 ;; Parameters:    Size  Location     Type
  8405 ;;  data            1    wreg     const unsigned char 
  8406 ;;  addr            1    8[COMMON] unsigned char 
  8407 ;; Auto vars:     Size  Location     Type
  8408 ;;  data            1    4[BANK0 ] const unsigned char 
  8409 ;; Return value:  Size  Location     Type
  8410 ;;                  1    wreg      void 
  8411 ;; Registers used:
  8412 ;;		wreg, status,2, status,0, pclath, cstack
  8413 ;; Tracked objects:
  8414 ;;		On entry : 0/0
  8415 ;;		On exit  : 0/0
  8416 ;;		Unchanged: 0/0
  8417 ;; Data sizes:     COMMON   BANK0   BANK1   BANK3   BANK2
  8418 ;;      Params:         1       0       0       0       0
  8419 ;;      Locals:         0       1       0       0       0
  8420 ;;      Temps:          0       0       0       0       0
  8421 ;;      Totals:         1       1       0       0       0
  8422 ;;Total ram usage:        2 bytes
  8423 ;; Hardware stack levels used: 1
  8424 ;; Hardware stack levels required when called: 2
  8425 ;; This function calls:
  8426 ;;		_clcd_write
  8427 ;; This function is called by:
  8428 ;;		_power_on_screen
  8429 ;;		_washing_program_display
  8430 ;;		_water_level_screen
  8431 ;;		_run_program
  8432 ;; This function uses a non-reentrant model
  8433 ;;
  8434                           
  8435     13BF                     _clcd_putch:	
  8436                           ;psect for function _clcd_putch
  8437                           
  8438                           
  8439                           ;incstack = 0
  8440                           ; Regs used in _clcd_putch: [wreg+status,2+status,0+pclath+cstack]
  8441                           ;clcd_putch@data stored from wreg
  8442     13BF  1283               	bcf	3,5	;RP0=0, select bank0
  8443     13C0  1303               	bcf	3,6	;RP1=0, select bank0
  8444     13C1  00A4               	movwf	clcd_putch@data
  8445     13C2                     l3958:
  8446                           
  8447                           ;clcd.c: 49: void clcd_putch(const char data, unsigned char addr);clcd.c: 50: {;clcd.c: 
      +                          51:     clcd_write(addr, 0);
  8448     13C2  01F2               	clrf	clcd_write@mode
  8449     13C3  0878               	movf	clcd_putch@addr,w
  8450     13C4  160A  118A  23EE  160A  118A  	fcall	_clcd_write
  8451                           
  8452                           ;clcd.c: 52:     clcd_write(data, 1);
  8453     13C9  01F2               	clrf	clcd_write@mode
  8454     13CA  0AF2               	incf	clcd_write@mode,f
  8455     13CB  1283               	bcf	3,5	;RP0=0, select bank0
  8456     13CC  1303               	bcf	3,6	;RP1=0, select bank0
  8457     13CD  0824               	movf	clcd_putch@data,w
  8458     13CE  160A  118A  23EE  160A  118A  	fcall	_clcd_write
  8459     13D3                     l100:
  8460     13D3  0008               	return
  8461     13D4                     __end_of_clcd_putch:
  8462                           
  8463                           	psect	text20
  8464     14A2                     __ptext20:	
  8465 ;; *************** function _clcd_print *****************
  8466 ;; Defined at:
  8467 ;;		line 55 in file "clcd.c"
  8468 ;; Parameters:    Size  Location     Type
  8469 ;;  str             2    0[BANK0 ] PTR const unsigned char 
  8470 ;;		 -> STR_47(16), STR_46(7), STR_45(11), STR_44(11), 
  8471 ;;		 -> STR_43(7), STR_42(16), STR_41(15), STR_40(17), 
  8472 ;;		 -> STR_39(5), STR_38(6), STR_37(6), STR_36(6), 
  8473 ;;		 -> STR_35(6), STR_34(6), STR_33(5), STR_32(16), 
  8474 ;;		 -> STR_31(7), STR_30(11), STR_29(6), STR_28(6), 
  8475 ;;		 -> STR_27(14), STR_26(16), STR_25(16), STR_24(12), 
  8476 ;;		 -> STR_23(4), STR_22(5), STR_21(7), STR_20(4), 
  8477 ;;		 -> STR_19(5), STR_18(11), STR_17(10), STR_16(9), 
  8478 ;;		 -> STR_15(10), STR_14(11), STR_13(8), STR_12(12), 
  8479 ;;		 -> STR_11(11), STR_10(7), STR_9(10), STR_8(6), 
  8480 ;;		 -> STR_7(6), STR_6(11), STR_5(12), STR_4(13), 
  8481 ;;		 -> STR_3(16), STR_2(9), STR_1(15), 
  8482 ;;  addr            1    2[BANK0 ] unsigned char 
  8483 ;; Auto vars:     Size  Location     Type
  8484 ;;		None
  8485 ;; Return value:  Size  Location     Type
  8486 ;;                  1    wreg      void 
  8487 ;; Registers used:
  8488 ;;		wreg, fsr0l, fsr0h, status,2, status,0, btemp+1, pclath, cstack
  8489 ;; Tracked objects:
  8490 ;;		On entry : 0/0
  8491 ;;		On exit  : 0/0
  8492 ;;		Unchanged: 0/0
  8493 ;; Data sizes:     COMMON   BANK0   BANK1   BANK3   BANK2
  8494 ;;      Params:         0       3       0       0       0
  8495 ;;      Locals:         0       0       0       0       0
  8496 ;;      Temps:          0       0       0       0       0
  8497 ;;      Totals:         0       3       0       0       0
  8498 ;;Total ram usage:        3 bytes
  8499 ;; Hardware stack levels used: 1
  8500 ;; Hardware stack levels required when called: 2
  8501 ;; This function calls:
  8502 ;;		_clcd_write
  8503 ;; This function is called by:
  8504 ;;		_main
  8505 ;;		_power_on_screen
  8506 ;;		_washing_program_display
  8507 ;;		_water_level_screen
  8508 ;;		_run_program
  8509 ;;		_door_status_check
  8510 ;; This function uses a non-reentrant model
  8511 ;;
  8512                           
  8513     14A2                     _clcd_print:	
  8514                           ;psect for function _clcd_print
  8515                           
  8516     14A2                     l3692:	
  8517                           ;incstack = 0
  8518                           ; Regs used in _clcd_print: [wreg-fsr0h+status,2+status,0+btemp+1+pclath+cstack]
  8519                           
  8520                           
  8521                           ;clcd.c: 55: void clcd_print(const char *str, unsigned char addr);clcd.c: 56: {;clcd.c: 
      +                          57:     clcd_write(addr, 0);
  8522     14A2  01F2               	clrf	clcd_write@mode
  8523     14A3  1283               	bcf	3,5	;RP0=0, select bank0
  8524     14A4  1303               	bcf	3,6	;RP1=0, select bank0
  8525     14A5  0822               	movf	clcd_print@addr,w
  8526     14A6  160A  118A  23EE  160A  118A  	fcall	_clcd_write
  8527                           
  8528                           ;clcd.c: 59:     while (*str != '\0')
  8529     14AB  2CC4               	goto	l3698
  8530     14AC                     l3694:
  8531                           
  8532                           ;clcd.c: 60:     {;clcd.c: 61:         clcd_write(*str, 1);
  8533     14AC  01F2               	clrf	clcd_write@mode
  8534     14AD  0AF2               	incf	clcd_write@mode,f
  8535     14AE  0821               	movf	clcd_print@str+1,w
  8536     14AF  00FF               	movwf	btemp+1
  8537     14B0  0820               	movf	clcd_print@str,w
  8538     14B1  0084               	movwf	4
  8539     14B2  160A  118A  217F  160A  118A  	fcall	stringtab
  8540     14B7  160A  118A  23EE  160A  118A  	fcall	_clcd_write
  8541     14BC                     l3696:
  8542                           
  8543                           ;clcd.c: 62:         str++;
  8544     14BC  3001               	movlw	1
  8545     14BD  1283               	bcf	3,5	;RP0=0, select bank0
  8546     14BE  1303               	bcf	3,6	;RP1=0, select bank0
  8547     14BF  07A0               	addwf	clcd_print@str,f
  8548     14C0  1803               	skipnc
  8549     14C1  0AA1               	incf	clcd_print@str+1,f
  8550     14C2  3000               	movlw	0
  8551     14C3  07A1               	addwf	clcd_print@str+1,f
  8552     14C4                     l3698:
  8553                           
  8554                           ;clcd.c: 59:     while (*str != '\0')
  8555     14C4  1283               	bcf	3,5	;RP0=0, select bank0
  8556     14C5  1303               	bcf	3,6	;RP1=0, select bank0
  8557     14C6  0821               	movf	clcd_print@str+1,w
  8558     14C7  00FF               	movwf	btemp+1
  8559     14C8  0820               	movf	clcd_print@str,w
  8560     14C9  0084               	movwf	4
  8561     14CA  160A  118A  217F  160A  118A  	fcall	stringtab
  8562     14CF  3A00               	xorlw	0
  8563     14D0  1D03               	skipz
  8564     14D1  2CD3               	goto	u3581
  8565     14D2  2CD4               	goto	u3580
  8566     14D3                     u3581:
  8567     14D3  2CAC               	goto	l3694
  8568     14D4                     u3580:
  8569     14D4                     l106:
  8570     14D4  0008               	return
  8571     14D5                     __end_of_clcd_print:
  8572                           
  8573                           	psect	text21
  8574     13D4                     __ptext21:	
  8575 ;; *************** function _init_config *****************
  8576 ;; Defined at:
  8577 ;;		line 12 in file "main.c"
  8578 ;; Parameters:    Size  Location     Type
  8579 ;;		None
  8580 ;; Auto vars:     Size  Location     Type
  8581 ;;		None
  8582 ;; Return value:  Size  Location     Type
  8583 ;;                  1    wreg      void 
  8584 ;; Registers used:
  8585 ;;		wreg, status,2, status,0, pclath, cstack
  8586 ;; Tracked objects:
  8587 ;;		On entry : 0/0
  8588 ;;		On exit  : 0/0
  8589 ;;		Unchanged: 0/0
  8590 ;; Data sizes:     COMMON   BANK0   BANK1   BANK3   BANK2
  8591 ;;      Params:         0       0       0       0       0
  8592 ;;      Locals:         0       0       0       0       0
  8593 ;;      Temps:          0       0       0       0       0
  8594 ;;      Totals:         0       0       0       0       0
  8595 ;;Total ram usage:        0 bytes
  8596 ;; Hardware stack levels used: 1
  8597 ;; Hardware stack levels required when called: 4
  8598 ;; This function calls:
  8599 ;;		_init_clcd
  8600 ;;		_init_digital_keypad
  8601 ;;		_init_timer2
  8602 ;; This function is called by:
  8603 ;;		_main
  8604 ;; This function uses a non-reentrant model
  8605 ;;
  8606                           
  8607     13D4                     _init_config:	
  8608                           ;psect for function _init_config
  8609                           
  8610     13D4                     l4330:	
  8611                           ;incstack = 0
  8612                           ; Regs used in _init_config: [wreg+status,2+status,0+pclath+cstack]
  8613                           
  8614                           
  8615                           ;main.c: 14: }
  8616     13D4  160A  118A  2397  160A  118A  	fcall	_init_clcd
  8617                           
  8618                           ;main.c: 15: void main(void) {
  8619     13D9  160A  118A  2391  160A  118A  	fcall	_init_digital_keypad
  8620                           
  8621                           ;main.c: 16:     init_config();
  8622     13DE  160A  118A  23A2  160A  118A  	fcall	_init_timer2
  8623     13E3                     l4332:
  8624                           
  8625                           ;main.c: 17:      unsigned char key;
  8626     13E3  178B               	bsf	11,7	;volatile
  8627     13E4                     l4334:
  8628                           
  8629                           ;main.c: 18:         clcd_print("Press KEY 5 to",(0x80 + 1));
  8630     13E4  170B               	bsf	11,6	;volatile
  8631     13E5                     l4336:
  8632                           
  8633                           ;main.c: 19:         clcd_print("Power ON",(0xC0 + 4));
  8634     13E5  1683               	bsf	3,5	;RP0=1, select bank1
  8635     13E6  1303               	bcf	3,6	;RP1=0, select bank1
  8636     13E7  1087               	bcf	7,1	;volatile
  8637     13E8                     l4338:
  8638                           
  8639                           ;main.c: 20:         clcd_print("Washing Machine",(0x90+1));
  8640     13E8  1107               	bcf	7,2	;volatile
  8641     13E9                     l4340:
  8642                           
  8643                           ;main.c: 21:        while(read_digital_keypad(1)!= 0x2F)
  8644     13E9  1283               	bcf	3,5	;RP0=0, select bank0
  8645     13EA  1303               	bcf	3,6	;RP1=0, select bank0
  8646     13EB  1087               	bcf	7,1	;volatile
  8647     13EC                     l4342:
  8648                           
  8649                           ;main.c: 22:        {
  8650     13EC  1107               	bcf	7,2	;volatile
  8651     13ED                     l43:
  8652     13ED  0008               	return
  8653     13EE                     __end_of_init_config:
  8654                           
  8655                           	psect	text22
  8656     13A2                     __ptext22:	
  8657 ;; *************** function _init_timer2 *****************
  8658 ;; Defined at:
  8659 ;;		line 4 in file "timers.c"
  8660 ;; Parameters:    Size  Location     Type
  8661 ;;		None
  8662 ;; Auto vars:     Size  Location     Type
  8663 ;;		None
  8664 ;; Return value:  Size  Location     Type
  8665 ;;                  1    wreg      void 
  8666 ;; Registers used:
  8667 ;;		wreg, status,2
  8668 ;; Tracked objects:
  8669 ;;		On entry : 0/0
  8670 ;;		On exit  : 0/0
  8671 ;;		Unchanged: 0/0
  8672 ;; Data sizes:     COMMON   BANK0   BANK1   BANK3   BANK2
  8673 ;;      Params:         0       0       0       0       0
  8674 ;;      Locals:         0       0       0       0       0
  8675 ;;      Temps:          0       0       0       0       0
  8676 ;;      Totals:         0       0       0       0       0
  8677 ;;Total ram usage:        0 bytes
  8678 ;; Hardware stack levels used: 1
  8679 ;; Hardware stack levels required when called: 1
  8680 ;; This function calls:
  8681 ;;		Nothing
  8682 ;; This function is called by:
  8683 ;;		_init_config
  8684 ;; This function uses a non-reentrant model
  8685 ;;
  8686                           
  8687     13A2                     _init_timer2:	
  8688                           ;psect for function _init_timer2
  8689                           
  8690     13A2                     l3948:	
  8691                           ;incstack = 0
  8692                           ; Regs used in _init_timer2: [wreg+status,2]
  8693                           
  8694                           
  8695                           ;timers.c: 6:     TMR2=0;
  8696     13A2  1283               	bcf	3,5	;RP0=0, select bank0
  8697     13A3  1303               	bcf	3,6	;RP1=0, select bank0
  8698     13A4  0191               	clrf	17	;volatile
  8699                           
  8700                           ;timers.c: 8:     T2CON = 0x00;
  8701     13A5  0192               	clrf	18	;volatile
  8702     13A6                     l3950:
  8703                           
  8704                           ;timers.c: 10:     TMR2ON = 0;
  8705     13A6  1112               	bcf	18,2	;volatile
  8706     13A7                     l3952:
  8707                           
  8708                           ;timers.c: 12:     TMR2IF=0;
  8709     13A7  108C               	bcf	12,1	;volatile
  8710     13A8                     l3954:
  8711                           
  8712                           ;timers.c: 14:     TMR2IE = 1;
  8713     13A8  1683               	bsf	3,5	;RP0=1, select bank1
  8714     13A9  1303               	bcf	3,6	;RP1=0, select bank1
  8715     13AA  148C               	bsf	12,1	;volatile
  8716     13AB                     l3956:
  8717                           
  8718                           ;timers.c: 17:     PR2 = 250;
  8719     13AB  30FA               	movlw	250
  8720     13AC  0092               	movwf	18	;volatile
  8721     13AD                     l165:
  8722     13AD  0008               	return
  8723     13AE                     __end_of_init_timer2:
  8724                           
  8725                           	psect	text23
  8726     1391                     __ptext23:	
  8727 ;; *************** function _init_digital_keypad *****************
  8728 ;; Defined at:
  8729 ;;		line 4 in file "digital_keypad.c"
  8730 ;; Parameters:    Size  Location     Type
  8731 ;;		None
  8732 ;; Auto vars:     Size  Location     Type
  8733 ;;		None
  8734 ;; Return value:  Size  Location     Type
  8735 ;;                  1    wreg      void 
  8736 ;; Registers used:
  8737 ;;		wreg, status,2
  8738 ;; Tracked objects:
  8739 ;;		On entry : 0/0
  8740 ;;		On exit  : 0/0
  8741 ;;		Unchanged: 0/0
  8742 ;; Data sizes:     COMMON   BANK0   BANK1   BANK3   BANK2
  8743 ;;      Params:         0       0       0       0       0
  8744 ;;      Locals:         0       0       0       0       0
  8745 ;;      Temps:          0       0       0       0       0
  8746 ;;      Totals:         0       0       0       0       0
  8747 ;;Total ram usage:        0 bytes
  8748 ;; Hardware stack levels used: 1
  8749 ;; Hardware stack levels required when called: 1
  8750 ;; This function calls:
  8751 ;;		Nothing
  8752 ;; This function is called by:
  8753 ;;		_init_config
  8754 ;; This function uses a non-reentrant model
  8755 ;;
  8756                           
  8757     1391                     _init_digital_keypad:	
  8758                           ;psect for function _init_digital_keypad
  8759                           
  8760     1391                     l3946:	
  8761                           ;incstack = 0
  8762                           ; Regs used in _init_digital_keypad: [wreg+status,2]
  8763                           
  8764                           
  8765                           ;digital_keypad.c: 6:     TRISB = TRISB | 0x3F;
  8766     1391  1683               	bsf	3,5	;RP0=1, select bank1
  8767     1392  1303               	bcf	3,6	;RP1=0, select bank1
  8768     1393  0806               	movf	6,w	;volatile
  8769     1394  383F               	iorlw	63
  8770     1395  0086               	movwf	6	;volatile
  8771     1396                     l113:
  8772     1396  0008               	return
  8773     1397                     __end_of_init_digital_keypad:
  8774                           
  8775                           	psect	text24
  8776     1397                     __ptext24:	
  8777 ;; *************** function _init_clcd *****************
  8778 ;; Defined at:
  8779 ;;		line 37 in file "clcd.c"
  8780 ;; Parameters:    Size  Location     Type
  8781 ;;		None
  8782 ;; Auto vars:     Size  Location     Type
  8783 ;;		None
  8784 ;; Return value:  Size  Location     Type
  8785 ;;                  1    wreg      void 
  8786 ;; Registers used:
  8787 ;;		wreg, status,2, status,0, pclath, cstack
  8788 ;; Tracked objects:
  8789 ;;		On entry : 0/0
  8790 ;;		On exit  : 0/0
  8791 ;;		Unchanged: 0/0
  8792 ;; Data sizes:     COMMON   BANK0   BANK1   BANK3   BANK2
  8793 ;;      Params:         0       0       0       0       0
  8794 ;;      Locals:         0       0       0       0       0
  8795 ;;      Temps:          0       0       0       0       0
  8796 ;;      Totals:         0       0       0       0       0
  8797 ;;Total ram usage:        0 bytes
  8798 ;; Hardware stack levels used: 1
  8799 ;; Hardware stack levels required when called: 3
  8800 ;; This function calls:
  8801 ;;		_init_display_controller
  8802 ;; This function is called by:
  8803 ;;		_init_config
  8804 ;; This function uses a non-reentrant model
  8805 ;;
  8806                           
  8807     1397                     _init_clcd:	
  8808                           ;psect for function _init_clcd
  8809                           
  8810     1397                     l3938:	
  8811                           ;incstack = 0
  8812                           ; Regs used in _init_clcd: [wreg+status,2+status,0+pclath+cstack]
  8813                           
  8814                           
  8815                           ;clcd.c: 40:     TRISD = 0x00;
  8816     1397  1683               	bsf	3,5	;RP0=1, select bank1
  8817     1398  1303               	bcf	3,6	;RP1=0, select bank1
  8818     1399  0188               	clrf	8	;volatile
  8819     139A                     l3940:
  8820                           
  8821                           ;clcd.c: 43:     TRISE2 = 0;
  8822     139A  1109               	bcf	9,2	;volatile
  8823     139B                     l3942:
  8824                           
  8825                           ;clcd.c: 44:     TRISE1 = 0;
  8826     139B  1089               	bcf	9,1	;volatile
  8827     139C                     l3944:
  8828                           
  8829                           ;clcd.c: 46:     init_display_controller();
  8830     139C  160A  118A  256B  160A  118A  	fcall	_init_display_controller
  8831     13A1                     l97:
  8832     13A1  0008               	return
  8833     13A2                     __end_of_init_clcd:
  8834                           
  8835                           	psect	text25
  8836     156B                     __ptext25:	
  8837 ;; *************** function _init_display_controller *****************
  8838 ;; Defined at:
  8839 ;;		line 16 in file "clcd.c"
  8840 ;; Parameters:    Size  Location     Type
  8841 ;;		None
  8842 ;; Auto vars:     Size  Location     Type
  8843 ;;		None
  8844 ;; Return value:  Size  Location     Type
  8845 ;;                  1    wreg      void 
  8846 ;; Registers used:
  8847 ;;		wreg, status,2, status,0, pclath, cstack
  8848 ;; Tracked objects:
  8849 ;;		On entry : 0/0
  8850 ;;		On exit  : 0/0
  8851 ;;		Unchanged: 0/0
  8852 ;; Data sizes:     COMMON   BANK0   BANK1   BANK3   BANK2
  8853 ;;      Params:         0       0       0       0       0
  8854 ;;      Locals:         0       0       0       0       0
  8855 ;;      Temps:          2       0       0       0       0
  8856 ;;      Totals:         2       0       0       0       0
  8857 ;;Total ram usage:        2 bytes
  8858 ;; Hardware stack levels used: 1
  8859 ;; Hardware stack levels required when called: 2
  8860 ;; This function calls:
  8861 ;;		_clcd_write
  8862 ;; This function is called by:
  8863 ;;		_init_clcd
  8864 ;; This function uses a non-reentrant model
  8865 ;;
  8866                           
  8867     156B                     _init_display_controller:	
  8868                           ;psect for function _init_display_controller
  8869                           
  8870     156B                     l3704:	
  8871                           ;incstack = 0
  8872                           ; Regs used in _init_display_controller: [wreg+status,2+status,0+pclath+cstack]
  8873                           
  8874                           
  8875                           ;clcd.c: 19:     _delay((unsigned long)((30)*(20000000/4000.0)));
  8876     156B  30C3               	movlw	195
  8877     156C  00F7               	movwf	??_init_display_controller+1
  8878     156D  30CD               	movlw	205
  8879     156E  00F6               	movwf	??_init_display_controller
  8880     156F                     u5827:
  8881     156F  0BF6               	decfsz	??_init_display_controller,f
  8882     1570  2D6F               	goto	u5827
  8883     1571  0BF7               	decfsz	??_init_display_controller+1,f
  8884     1572  2D6F               	goto	u5827
  8885     1573                     l3706:
  8886                           
  8887                           ;clcd.c: 22:     clcd_write(0x33, 0);
  8888     1573  01F2               	clrf	clcd_write@mode
  8889     1574  3033               	movlw	51
  8890     1575  160A  118A  23EE  160A  118A  	fcall	_clcd_write
  8891     157A                     l3708:
  8892                           
  8893                           ;clcd.c: 23:     _delay((unsigned long)((4100)*(20000000/4000000.0)));
  8894     157A  301B               	movlw	27
  8895     157B  00F7               	movwf	??_init_display_controller+1
  8896     157C  309E               	movlw	158
  8897     157D  00F6               	movwf	??_init_display_controller
  8898     157E                     u5837:
  8899     157E  0BF6               	decfsz	??_init_display_controller,f
  8900     157F  2D7E               	goto	u5837
  8901     1580  0BF7               	decfsz	??_init_display_controller+1,f
  8902     1581  2D7E               	goto	u5837
  8903     1582  0000               	nop
  8904                           
  8905                           ;clcd.c: 24:     clcd_write(0x33, 0);
  8906     1583  01F2               	clrf	clcd_write@mode
  8907     1584  3033               	movlw	51
  8908     1585  160A  118A  23EE  160A  118A  	fcall	_clcd_write
  8909     158A                     l3710:
  8910                           
  8911                           ;clcd.c: 25:     _delay((unsigned long)((100)*(20000000/4000000.0)));
  8912     158A  30A6               	movlw	166
  8913     158B  00F6               	movwf	??_init_display_controller
  8914     158C                     u5847:
  8915     158C  0BF6               	decfsz	??_init_display_controller,f
  8916     158D  2D8C               	goto	u5847
  8917     158E  0000               	nop
  8918     158F                     l3712:
  8919                           
  8920                           ;clcd.c: 26:     clcd_write(0x33, 0);
  8921     158F  01F2               	clrf	clcd_write@mode
  8922     1590  3033               	movlw	51
  8923     1591  160A  118A  23EE  160A  118A  	fcall	_clcd_write
  8924     1596                     l3714:
  8925                           
  8926                           ;clcd.c: 27:     _delay((unsigned long)((1)*(20000000/4000000.0)));
  8927     1596  2D97               	nop2	;2 cycle nop
  8928     1597  2D98               	nop2	;2 cycle nop
  8929     1598  0000               	nop
  8930     1599                     l3716:
  8931                           
  8932                           ;clcd.c: 29:     clcd_write(0x3C, 0);
  8933     1599  01F2               	clrf	clcd_write@mode
  8934     159A  303C               	movlw	60
  8935     159B  160A  118A  23EE  160A  118A  	fcall	_clcd_write
  8936     15A0                     l3718:
  8937                           
  8938                           ;clcd.c: 30:     _delay((unsigned long)((100)*(20000000/4000000.0)));
  8939     15A0  30A6               	movlw	166
  8940     15A1  00F6               	movwf	??_init_display_controller
  8941     15A2                     u5857:
  8942     15A2  0BF6               	decfsz	??_init_display_controller,f
  8943     15A3  2DA2               	goto	u5857
  8944     15A4  0000               	nop
  8945                           
  8946                           ;clcd.c: 31:     clcd_write(0x01, 0);
  8947     15A5  01F2               	clrf	clcd_write@mode
  8948     15A6  3001               	movlw	1
  8949     15A7  160A  118A  23EE  160A  118A  	fcall	_clcd_write
  8950     15AC                     l3720:
  8951                           
  8952                           ;clcd.c: 32:     _delay((unsigned long)((500)*(20000000/4000000.0)));
  8953     15AC  3004               	movlw	4
  8954     15AD  00F7               	movwf	??_init_display_controller+1
  8955     15AE  303D               	movlw	61
  8956     15AF  00F6               	movwf	??_init_display_controller
  8957     15B0                     u5867:
  8958     15B0  0BF6               	decfsz	??_init_display_controller,f
  8959     15B1  2DB0               	goto	u5867
  8960     15B2  0BF7               	decfsz	??_init_display_controller+1,f
  8961     15B3  2DB0               	goto	u5867
  8962     15B4  2DB5               	nop2
  8963     15B5                     l3722:
  8964                           
  8965                           ;clcd.c: 33:     clcd_write(0x0C, 0);
  8966     15B5  01F2               	clrf	clcd_write@mode
  8967     15B6  300C               	movlw	12
  8968     15B7  160A  118A  23EE  160A  118A  	fcall	_clcd_write
  8969                           
  8970                           ;clcd.c: 34:     _delay((unsigned long)((100)*(20000000/4000000.0)));
  8971     15BC  30A6               	movlw	166
  8972     15BD  00F6               	movwf	??_init_display_controller
  8973     15BE                     u5877:
  8974     15BE  0BF6               	decfsz	??_init_display_controller,f
  8975     15BF  2DBE               	goto	u5877
  8976     15C0  0000               	nop
  8977     15C1                     l94:
  8978     15C1  0008               	return
  8979     15C2                     __end_of_init_display_controller:
  8980                           
  8981                           	psect	text26
  8982     13EE                     __ptext26:	
  8983 ;; *************** function _clcd_write *****************
  8984 ;; Defined at:
  8985 ;;		line 4 in file "clcd.c"
  8986 ;; Parameters:    Size  Location     Type
  8987 ;;  byte            1    wreg     unsigned char 
  8988 ;;  mode            1    2[COMMON] unsigned char 
  8989 ;; Auto vars:     Size  Location     Type
  8990 ;;  byte            1    5[COMMON] unsigned char 
  8991 ;; Return value:  Size  Location     Type
  8992 ;;                  1    wreg      void 
  8993 ;; Registers used:
  8994 ;;		wreg
  8995 ;; Tracked objects:
  8996 ;;		On entry : 0/0
  8997 ;;		On exit  : 0/0
  8998 ;;		Unchanged: 0/0
  8999 ;; Data sizes:     COMMON   BANK0   BANK1   BANK3   BANK2
  9000 ;;      Params:         1       0       0       0       0
  9001 ;;      Locals:         1       0       0       0       0
  9002 ;;      Temps:          2       0       0       0       0
  9003 ;;      Totals:         4       0       0       0       0
  9004 ;;Total ram usage:        4 bytes
  9005 ;; Hardware stack levels used: 1
  9006 ;; Hardware stack levels required when called: 1
  9007 ;; This function calls:
  9008 ;;		Nothing
  9009 ;; This function is called by:
  9010 ;;		_init_display_controller
  9011 ;;		_clcd_putch
  9012 ;;		_clcd_print
  9013 ;;		_clear_screen
  9014 ;; This function uses a non-reentrant model
  9015 ;;
  9016                           
  9017     13EE                     _clcd_write:	
  9018                           ;psect for function _clcd_write
  9019                           
  9020                           
  9021                           ;incstack = 0
  9022                           ; Regs used in _clcd_write: [wreg]
  9023                           ;clcd_write@byte stored from wreg
  9024     13EE  00F5               	movwf	clcd_write@byte
  9025     13EF                     l3684:
  9026                           
  9027                           ;clcd.c: 4: void clcd_write(unsigned char byte, unsigned char mode);clcd.c: 5: {;clcd.c:
      +                           6:     RE2 = mode;
  9028     13EF  1872               	btfsc	clcd_write@mode,0
  9029     13F0  2BF2               	goto	u3561
  9030     13F1  2BF6               	goto	u3560
  9031     13F2                     u3561:
  9032     13F2  1283               	bcf	3,5	;RP0=0, select bank0
  9033     13F3  1303               	bcf	3,6	;RP1=0, select bank0
  9034     13F4  1509               	bsf	9,2	;volatile
  9035     13F5  2BF9               	goto	u3574
  9036     13F6                     u3560:
  9037     13F6  1283               	bcf	3,5	;RP0=0, select bank0
  9038     13F7  1303               	bcf	3,6	;RP1=0, select bank0
  9039     13F8  1109               	bcf	9,2	;volatile
  9040     13F9                     u3574:
  9041     13F9                     l3686:
  9042                           
  9043                           ;clcd.c: 7:     PORTD = byte;
  9044     13F9  0875               	movf	clcd_write@byte,w
  9045     13FA  0088               	movwf	8	;volatile
  9046     13FB                     l3688:
  9047                           
  9048                           ;clcd.c: 9:     RE1 = 1;
  9049     13FB  1489               	bsf	9,1	;volatile
  9050                           
  9051                           ;clcd.c: 10:     _delay((unsigned long)((100)*(20000000/4000000.0)));
  9052     13FC  30A6               	movlw	166
  9053     13FD  00F3               	movwf	??_clcd_write
  9054     13FE                     u5887:
  9055     13FE  0BF3               	decfsz	??_clcd_write,f
  9056     13FF  2BFE               	goto	u5887
  9057     1400  0000               	nop
  9058     1401                     l3690:
  9059                           
  9060                           ;clcd.c: 11:     RE1 = 0;
  9061     1401  1283               	bcf	3,5	;RP0=0, select bank0
  9062     1402  1303               	bcf	3,6	;RP1=0, select bank0
  9063     1403  1089               	bcf	9,1	;volatile
  9064                           
  9065                           ;clcd.c: 13:     _delay((unsigned long)((4100)*(20000000/4000000.0)));
  9066     1404  301B               	movlw	27
  9067     1405  00F4               	movwf	??_clcd_write+1
  9068     1406  309E               	movlw	158
  9069     1407  00F3               	movwf	??_clcd_write
  9070     1408                     u5897:
  9071     1408  0BF3               	decfsz	??_clcd_write,f
  9072     1409  2C08               	goto	u5897
  9073     140A  0BF4               	decfsz	??_clcd_write+1,f
  9074     140B  2C08               	goto	u5897
  9075     140C  0000               	nop
  9076     140D                     l91:
  9077     140D  0008               	return
  9078     140E                     __end_of_clcd_write:
  9079                           
  9080                           	psect	text27
  9081     14D5                     __ptext27:	
  9082 ;; *************** function _isr *****************
  9083 ;; Defined at:
  9084 ;;		line 5 in file "isr.c"
  9085 ;; Parameters:    Size  Location     Type
  9086 ;;		None
  9087 ;; Auto vars:     Size  Location     Type
  9088 ;;		None
  9089 ;; Return value:  Size  Location     Type
  9090 ;;                  1    wreg      void 
  9091 ;; Registers used:
  9092 ;;		wreg, status,2, status,0
  9093 ;; Tracked objects:
  9094 ;;		On entry : 0/0
  9095 ;;		On exit  : 0/0
  9096 ;;		Unchanged: 0/0
  9097 ;; Data sizes:     COMMON   BANK0   BANK1   BANK3   BANK2
  9098 ;;      Params:         0       0       0       0       0
  9099 ;;      Locals:         0       0       0       0       0
  9100 ;;      Temps:          2       0       0       0       0
  9101 ;;      Totals:         2       0       0       0       0
  9102 ;;Total ram usage:        2 bytes
  9103 ;; Hardware stack levels used: 1
  9104 ;; This function calls:
  9105 ;;		Nothing
  9106 ;; This function is called by:
  9107 ;;		Interrupt level 1
  9108 ;; This function uses a non-reentrant model
  9109 ;;
  9110                           
  9111     14D5                     _isr:	
  9112                           ;psect for function _isr
  9113                           
  9114     14D5                     i1l3382:
  9115                           
  9116                           ;isr.c: 7:     if(TMR2IF)
  9117     14D5  1283               	bcf	3,5	;RP0=0, select bank0
  9118     14D6  1303               	bcf	3,6	;RP1=0, select bank0
  9119     14D7  1C8C               	btfss	12,1	;volatile
  9120     14D8  2CDA               	goto	u350_21
  9121     14D9  2CDB               	goto	u350_20
  9122     14DA                     u350_21:
  9123     14DA  2D0E               	goto	i1l150
  9124     14DB                     u350_20:
  9125     14DB                     i1l3384:
  9126                           
  9127                           ;isr.c: 8:     {;isr.c: 9:          if (TMR2IF)
  9128     14DB  1C8C               	btfss	12,1	;volatile
  9129     14DC  2CDE               	goto	u351_21
  9130     14DD  2CDF               	goto	u351_20
  9131     14DE                     u351_21:
  9132     14DE  2D0E               	goto	i1l150
  9133     14DF                     u351_20:
  9134     14DF                     i1l3386:
  9135                           
  9136                           ;isr.c: 10:         {;isr.c: 11:             TMR2IF = 0;
  9137     14DF  108C               	bcf	12,1	;volatile
  9138     14E0                     i1l3388:
  9139                           
  9140                           ;isr.c: 13:         if( ++count == 20000)
  9141     14E0  3001               	movlw	1
  9142     14E1  1683               	bsf	3,5	;RP0=1, select bank1
  9143     14E2  1303               	bcf	3,6	;RP1=0, select bank1
  9144     14E3  07C8               	addwf	_count^(0+128),f
  9145     14E4  1803               	skipnc
  9146     14E5  0AC9               	incf	(_count+1)^(0+128),f
  9147     14E6  3000               	movlw	0
  9148     14E7  07C9               	addwf	(_count+1)^(0+128),f
  9149     14E8  3020               	movlw	32
  9150     14E9  0648               	xorwf	_count^(0+128),w
  9151     14EA  304E               	movlw	78
  9152     14EB  1903               	skipnz
  9153     14EC  0649               	xorwf	(_count+1)^(0+128),w
  9154     14ED  1D03               	btfss	3,2
  9155     14EE  2CF0               	goto	u352_21
  9156     14EF  2CF1               	goto	u352_20
  9157     14F0                     u352_21:
  9158     14F0  2D0E               	goto	i1l150
  9159     14F1                     u352_20:
  9160     14F1                     i1l3390:
  9161                           
  9162                           ;isr.c: 14:         {;isr.c: 15:             if(sec!=0)
  9163     14F1  1283               	bcf	3,5	;RP0=0, select bank0
  9164     14F2  1303               	bcf	3,6	;RP1=0, select bank0
  9165     14F3  0867               	movf	_sec,w
  9166     14F4  1903               	btfsc	3,2
  9167     14F5  2CF7               	goto	u353_21
  9168     14F6  2CF8               	goto	u353_20
  9169     14F7                     u353_21:
  9170     14F7  2CFB               	goto	i1l3394
  9171     14F8                     u353_20:
  9172     14F8                     i1l3392:
  9173                           
  9174                           ;isr.c: 16:             {;isr.c: 17:                 sec--;
  9175     14F8  3001               	movlw	1
  9176     14F9  02E7               	subwf	_sec,f
  9177                           
  9178                           ;isr.c: 19:             }
  9179     14FA  2D0E               	goto	i1l150
  9180     14FB                     i1l3394:
  9181     14FB  0867               	movf	_sec,w
  9182     14FC  1D03               	btfss	3,2
  9183     14FD  2CFF               	goto	u354_21
  9184     14FE  2D00               	goto	u354_20
  9185     14FF                     u354_21:
  9186     14FF  2D0A               	goto	i1l3402
  9187     1500                     u354_20:
  9188     1500                     i1l3396:
  9189     1500  0869               	movf	_min,w
  9190     1501  1903               	btfsc	3,2
  9191     1502  2D04               	goto	u355_21
  9192     1503  2D05               	goto	u355_20
  9193     1504                     u355_21:
  9194     1504  2D0A               	goto	i1l3402
  9195     1505                     u355_20:
  9196     1505                     i1l3398:
  9197                           
  9198                           ;isr.c: 21:             {;isr.c: 22:                 min--;
  9199     1505  3001               	movlw	1
  9200     1506  02E9               	subwf	_min,f
  9201     1507                     i1l3400:
  9202                           
  9203                           ;isr.c: 23:                 sec=59;
  9204     1507  303B               	movlw	59
  9205     1508  00E7               	movwf	_sec
  9206                           
  9207                           ;isr.c: 24:             }
  9208     1509  2D0E               	goto	i1l150
  9209     150A                     i1l3402:
  9210                           
  9211                           ;isr.c: 26:          count = 0;
  9212     150A  1683               	bsf	3,5	;RP0=1, select bank1
  9213     150B  1303               	bcf	3,6	;RP1=0, select bank1
  9214     150C  01C8               	clrf	_count^(0+128)
  9215     150D  01C9               	clrf	(_count+1)^(0+128)
  9216     150E                     i1l150:
  9217     150E  0871               	movf	??_isr+1,w
  9218     150F  008A               	movwf	10
  9219     1510  0E70               	swapf	??_isr,w
  9220     1511  0083               	movwf	3
  9221     1512  0EFE               	swapf	btemp,f
  9222     1513  0E7E               	swapf	btemp,w
  9223     1514  0009               	retfie
  9224     1515                     __end_of_isr:
  9225     007E                     btemp	set	126	;btemp
  9226     007E                     wtemp0	set	126
  9227                           
  9228                           	psect	intentry
  9229     0004                     __pintentry:	
  9230                           ;incstack = 0
  9231                           ; Regs used in _isr: [wreg+status,2+status,0]
  9232                           
  9233     0004                     interrupt_function:
  9234     007E                     saved_w	set	btemp
  9235     0004  00FE               	movwf	btemp
  9236     0005  0E03               	swapf	3,w
  9237     0006  00F0               	movwf	??_isr
  9238     0007  080A               	movf	10,w
  9239     0008  00F1               	movwf	??_isr+1
  9240     0009  160A  118A  2CD5   	ljmp	_isr
  9241                           
  9242                           	psect	config
  9243                           
  9244                           ;Config register CONFIG @ 0x2007
  9245                           ;	Oscillator Selection bits
  9246                           ;	FOSC = 0x3, unprogrammed default
  9247                           ;	Watchdog Timer Enable bit
  9248                           ;	WDTE = OFF, WDT disabled
  9249                           ;	Power-up Timer Enable bit
  9250                           ;	PWRTE = 0x1, unprogrammed default
  9251                           ;	Brown-out Reset Enable bit
  9252                           ;	BOREN = 0x1, unprogrammed default
  9253                           ;	Low-Voltage (Single-Supply) In-Circuit Serial Programming Enable bit
  9254                           ;	LVP = 0x1, unprogrammed default
  9255                           ;	Data EEPROM Memory Code Protection bit
  9256                           ;	CPD = 0x1, unprogrammed default
  9257                           ;	Flash Program Memory Write Enable bits
  9258                           ;	WRT = 0x3, unprogrammed default
  9259                           ;	In-Circuit Debugger Mode bit
  9260                           ;	DEBUG = 0x1, unprogrammed default
  9261                           ;	Flash Program Memory Code Protection bit
  9262                           ;	CP = 0x1, unprogrammed default
  9263     2007                     	org	8199
  9264     2007  3FFB               	dw	16379

Data Sizes:
    Strings     383
    Constant    0
    Data        38
    BSS         17
    Persistent  0
    Stack       0

Auto Spaces:
    Space          Size  Autos    Used
    COMMON           14      9      12
    BANK0            80     67      77
    BANK1            80      7      49
    BANK3            96      0       0
    BANK2            96      0       0

Pointer List with Targets:

    clcd_print@str	PTR const unsigned char  size(2) Largest target is 17
		 -> STR_1(CODE[15]), STR_10(CODE[7]), STR_11(CODE[11]), STR_12(CODE[12]), 
		 -> STR_13(CODE[8]), STR_14(CODE[11]), STR_15(CODE[10]), STR_16(CODE[9]), 
		 -> STR_17(CODE[10]), STR_18(CODE[11]), STR_19(CODE[5]), STR_2(CODE[9]), 
		 -> STR_20(CODE[4]), STR_21(CODE[7]), STR_22(CODE[5]), STR_23(CODE[4]), 
		 -> STR_24(CODE[12]), STR_25(CODE[16]), STR_26(CODE[16]), STR_27(CODE[14]), 
		 -> STR_28(CODE[6]), STR_29(CODE[6]), STR_3(CODE[16]), STR_30(CODE[11]), 
		 -> STR_31(CODE[7]), STR_32(CODE[16]), STR_33(CODE[5]), STR_34(CODE[6]), 
		 -> STR_35(CODE[6]), STR_36(CODE[6]), STR_37(CODE[6]), STR_38(CODE[6]), 
		 -> STR_39(CODE[5]), STR_4(CODE[13]), STR_40(CODE[17]), STR_41(CODE[15]), 
		 -> STR_42(CODE[16]), STR_43(CODE[7]), STR_44(CODE[11]), STR_45(CODE[11]), 
		 -> STR_46(CODE[7]), STR_47(CODE[16]), STR_5(CODE[12]), STR_6(CODE[11]), 
		 -> STR_7(CODE[6]), STR_8(CODE[6]), STR_9(CODE[10]), 

    washing_program	PTR unsigned char [12] size(2) Largest target is 12
		 -> STR_10(CODE[7]), STR_11(CODE[11]), STR_12(CODE[12]), STR_13(CODE[8]), 
		 -> STR_14(CODE[11]), STR_15(CODE[10]), STR_16(CODE[9]), STR_17(CODE[10]), 
		 -> STR_18(CODE[11]), STR_7(CODE[6]), STR_8(CODE[6]), STR_9(CODE[10]), 

    water_level	PTR unsigned char [5] size(2) Largest target is 7
		 -> STR_19(CODE[5]), STR_20(CODE[4]), STR_21(CODE[7]), STR_22(CODE[5]), 
		 -> STR_23(CODE[4]), 


Critical Paths under _main in COMMON

    _water_level_screen->_clcd_putch
    _washing_program_display->_clcd_putch
    _run_program->_clcd_putch
    _door_status_check->_clear_screen
    _clear_screen->_clcd_write
    ___fltol->___xxtofl
    ___flsub->___fladd
    ___flsub->___xxtofl
    ___flmul->__Umul8_16
    ___flmul->___xxtofl
    ___flge->___xxtofl
    _power_on_screen->_clcd_putch
    _clcd_putch->___awmod
    _clcd_print->___awmod
    _init_clcd->_init_display_controller
    _init_display_controller->_clcd_write

Critical Paths under _isr in COMMON

    None.

Critical Paths under _main in BANK0

    _main->_run_program
    _water_level_screen->_clcd_putch
    _washing_program_display->_clcd_putch
    _run_program->___flge
    _door_status_check->_clcd_print
    ___fltol->___flmul
    ___flsub->___flmul
    ___flmul->___xxtofl
    ___flge->___flsub
    _power_on_screen->_clcd_putch
    _clcd_putch->___awdiv

Critical Paths under _isr in BANK0

    None.

Critical Paths under _main in BANK1

    None.

Critical Paths under _isr in BANK1

    None.

Critical Paths under _main in BANK3

    None.

Critical Paths under _isr in BANK3

    None.

Critical Paths under _main in BANK2

    None.

Critical Paths under _isr in BANK2

    None.

Call Graph Tables:

 ---------------------------------------------------------------------------------
 (Depth) Function   	        Calls       Base Space   Used Autos Params    Refs
 ---------------------------------------------------------------------------------
 (0) _main                                                11    11      0   81697
                                             63 BANK0      4     4      0
                                              0 BANK1      7     7      0
                         _clcd_print
                       _clear_screen
                        _init_config
                    _power_on_screen
                _read_digital_keypad
                        _run_program
                           _set_time
            _washing_program_display
                 _water_level_screen
 ---------------------------------------------------------------------------------
 (1) _water_level_screen                                   3     3      0   13170
                                              5 BANK0      3     3      0
                            ___awmod
                         _clcd_print
                         _clcd_putch
                       _clear_screen
 ---------------------------------------------------------------------------------
 (1) _washing_program_display                              3     3      0   12345
                                              5 BANK0      3     3      0
                         _clcd_print
                         _clcd_putch
                       _clear_screen
 ---------------------------------------------------------------------------------
 (1) _set_time                                             2     2      0       0
                                              2 COMMON     2     2      0
 ---------------------------------------------------------------------------------
 (1) _run_program                                          7     7      0   33196
                                             56 BANK0      7     7      0
                            ___awdiv
                            ___awmod
                             ___flge
                            ___flmul
                            ___flsub
                            ___fltol
                             ___wmul
                           ___xxtofl
                         _clcd_print
                         _clcd_putch
                       _clear_screen
                  _door_status_check
 ---------------------------------------------------------------------------------
 (2) _door_status_check                                    0     0      0    9940
                         _clcd_print
                       _clear_screen
 ---------------------------------------------------------------------------------
 (2) _clear_screen                                         2     2      0    1052
                                              6 COMMON     2     2      0
                         _clcd_write
 ---------------------------------------------------------------------------------
 (2) ___xxtofl                                            14    10      4    1016
                                              2 COMMON     4     0      4
                                              0 BANK0     10    10      0
 ---------------------------------------------------------------------------------
 (2) ___wmul                                               6     2      4     616
                                              2 COMMON     6     2      4
 ---------------------------------------------------------------------------------
 (2) ___fltol                                             10     6      4     607
                                              6 COMMON     2     2      0
                                             36 BANK0      8     4      4
                            ___flmul (ARG)
                           ___xxtofl (ARG)
 ---------------------------------------------------------------------------------
 (2) ___flsub                                              8     0      8    3367
                                             36 BANK0      8     0      8
                            ___fladd
                            ___flmul (ARG)
                           ___xxtofl (ARG)
 ---------------------------------------------------------------------------------
 (3) ___fladd                                             20    12      8    3122
                                              2 COMMON     4     4      0
                                              0 BANK0     16     8      8
 ---------------------------------------------------------------------------------
 (2) ___flmul                                             26    18      8    3893
                                             10 BANK0     26    18      8
                          __Umul8_16
                           ___xxtofl (ARG)
 ---------------------------------------------------------------------------------
 (3) __Umul8_16                                            9     7      2     980
                                              2 COMMON     4     2      2
                                              0 BANK0      5     5      0
 ---------------------------------------------------------------------------------
 (2) ___flge                                              12     4      8     446
                                             44 BANK0     12     4      8
                            ___flmul (ARG)
                            ___flsub (ARG)
                           ___xxtofl (ARG)
 ---------------------------------------------------------------------------------
 (2) ___awmod                                              6     2      4     825
                                              2 COMMON     6     2      4
 ---------------------------------------------------------------------------------
 (2) ___awdiv                                              8     4      4     130
                                              2 COMMON     4     0      4
                                              0 BANK0      4     4      0
 ---------------------------------------------------------------------------------
 (1) _read_digital_keypad                                  2     2      0      96
                                              2 COMMON     1     1      0
 ---------------------------------------------------------------------------------
 (1) _power_on_screen                                      5     5      0   11460
                                              5 BANK0      5     5      0
                         _clcd_print
                         _clcd_putch
 ---------------------------------------------------------------------------------
 (2) _clcd_putch                                           2     1      1    2374
                                              8 COMMON     1     0      1
                                              4 BANK0      1     1      0
                            ___awdiv (ARG)
                            ___awmod (ARG)
                         _clcd_write
 ---------------------------------------------------------------------------------
 (2) _clcd_print                                           3     0      3    8888
                                              0 BANK0      3     0      3
                            ___awmod (ARG)
                         _clcd_write
 ---------------------------------------------------------------------------------
 (1) _init_config                                          0     0      0    1052
                          _init_clcd
                _init_digital_keypad
                        _init_timer2
 ---------------------------------------------------------------------------------
 (2) _init_timer2                                          0     0      0       0
 ---------------------------------------------------------------------------------
 (2) _init_digital_keypad                                  0     0      0       0
 ---------------------------------------------------------------------------------
 (2) _init_clcd                                            0     0      0    1052
            _init_display_controller
 ---------------------------------------------------------------------------------
 (3) _init_display_controller                              2     2      0    1052
                                              6 COMMON     2     2      0
                         _clcd_write
 ---------------------------------------------------------------------------------
 (3) _clcd_write                                           4     3      1    1052
                                              2 COMMON     4     3      1
 ---------------------------------------------------------------------------------
 Estimated maximum stack depth 3
 ---------------------------------------------------------------------------------
 (Depth) Function   	        Calls       Base Space   Used Autos Params    Refs
 ---------------------------------------------------------------------------------
 (5) _isr                                                  2     2      0       0
                                              0 COMMON     2     2      0
 ---------------------------------------------------------------------------------
 Estimated maximum stack depth 5
 ---------------------------------------------------------------------------------

 Call Graph Graphs:

 _main (ROOT)
   _clcd_print
     ___awmod (ARG)
     _clcd_write (ARG)
   _clear_screen
     _clcd_write
   _init_config
     _init_clcd
       _init_display_controller
         _clcd_write
     _init_digital_keypad
     _init_timer2
   _power_on_screen
     _clcd_print
     _clcd_putch
       ___awdiv (ARG)
       ___awmod (ARG)
       _clcd_write (ARG)
   _read_digital_keypad
   _run_program
     ___awdiv
     ___awmod
     ___flge
       ___flmul (ARG)
         __Umul8_16
         ___xxtofl (ARG)
       ___flsub (ARG)
         ___fladd
         ___flmul (ARG)
         ___xxtofl (ARG)
       ___xxtofl (ARG)
     ___flmul
     ___flsub
     ___fltol
       ___flmul (ARG)
       ___xxtofl (ARG)
     ___wmul
     ___xxtofl
     _clcd_print
     _clcd_putch
     _clear_screen
     _door_status_check
       _clcd_print
       _clear_screen
   _set_time
   _washing_program_display
     _clcd_print
     _clcd_putch
     _clear_screen
   _water_level_screen
     ___awmod
     _clcd_print
     _clcd_putch
     _clear_screen

 _isr (ROOT)

 Address spaces:
Name               Size   Autos  Total    Cost      Usage
BANK3               60      0       0       9        0.0%
BITBANK3            60      0       0       8        0.0%
SFR3                 0      0       0       4        0.0%
BITSFR3              0      0       0       4        0.0%
BANK2               60      0       0      11        0.0%
BITBANK2            60      0       0      10        0.0%
SFR2                 0      0       0       5        0.0%
BITSFR2              0      0       0       5        0.0%
BANK1               50      7      31       7       61.3%
BITBANK1            50      0       0       6        0.0%
SFR1                 0      0       0       2        0.0%
BITSFR1              0      0       0       2        0.0%
BANK0               50     43      4D       5       96.2%
BITBANK0            50      0       0       4        0.0%
SFR0                 0      0       0       1        0.0%
BITSFR0              0      0       0       1        0.0%
COMMON               E      9       C       1       85.7%
BITCOMMON            E      0       0       0        0.0%
CODE                 0      0       0       0        0.0%
DATA                 0      0      8A      12        0.0%
ABS                  0      0      8A       3        0.0%
NULL                 0      0       0       0        0.0%
STACK                0      0       0       2        0.0%
EEDATA             100      0       0       0        0.0%


Microchip Technology PIC Macro Assembler V2.45 build 20230818022343 
Symbol Table                                                                                   Sun Jun 22 23:23:23 2025

                              pc 0002                   clcd_print@addr 0022                               l43 13ED  
                             l65 0BCA                               l91 140D                               l59 0B7A  
                             l94 15C1                               l97 13A1                     ___awdiv@sign 0021  
                             fsr 0004              ___wmul@multiplicand 0074              __Umul8_16@word_mpld 0022  
                            l100 13D3                              l113 1396                              l106 14D4  
                            l221 13BE                              l126 156A                              l127 1569  
                            l304 0C6A                              l232 0A69                              l321 0CA7  
                            l218 1762                              l306 0C6A                              l331 0CD2  
                            l260 16B9                              l165 13AD                              l262 16BF  
                            l238 17FF                              l263 16EE                              l256 042F  
                            l361 0D57                              l345 0D16                              l450 1460  
                            l338 0CF7                              l603 1683                              l452 1478  
                            l364 0D9F                              l631 088D                              l616 161A  
                            l296 0C4A                              l298 0C4A                              l651 07D7  
                            l636 08A6                              l628 0821                              l644 07EC  
                            l654 07EC                              l751 0DFB                              l904 092A  
                            l905 0936                              l755 0E80                              l772 0F4F  
                            l764 0FFF                              l853 06E4                              l757 0E57  
                            l782 0F95                              l847 0774                              l776 0F73  
                            l866 148F                              l794 0FFF                              l891 08CB  
                            l868 14A1                              l797 1453                              l893 0960  
                            _GIE 005F                              _RB0 0030                              _RC1 0039  
                            _RC2 003A                              _RE1 0049                              _RE2 004A  
                            _PR2 0092                              _min 0069                              _sec 0067  
                            _isr 14D5                   clcd_putch@addr 0078                              fsr0 0004  
                 clcd_putch@data 0024                              indf 0000                     ___awmod@sign 0077  
                   ___flmul@aexp 0038                     ___flmul@bexp 003D                     ___flmul@sign 0037  
                   ___flmul@temp 0042                     ___flmul@prod 003E                      _run_program 0049  
                   ___fltol@exp1 0077            ??_read_digital_keypad 0072                             l4110 07A7  
                           l4102 0789                             l4040 15C3                             l4200 0554  
                           l4120 07BC                             l4112 07AB                             l4104 079C  
                           l4050 15D7                             l4042 15C7                             l4210 05C1  
                           l4202 0562                             l4130 07DC                             l4122 07C5  
                           l4106 079D                             l4060 15EF                             l4052 15DD  
                           l4044 15CC                             l4220 0668                             l4212 05DE  
                           l4204 057F                             l4140 0430                             l4132 07E1  
                           l4108 07A5                             l4300 08EC                             l4070 1611  
                           l4062 15F9                             l4054 15E0                             l4046 15CE  
                           l4038 15C2                             l4230 06B4                             l4222 0690  
                           l4214 0609                             l4206 058D                             l4150 0443  
                           l4142 0435                             l4134 1430                             l4118 07B3  
                           l4310 0915                             l4302 08F3                             l4400 16FB  
                           l4072 1616                             l4064 15FF                             l4056 15E7  
                           l4048 15D2                             l4080 0835                             l4240 06C9  
                           l4232 06B5                             l4224 0699                             l4216 0617  
                           l4208 05AA                             l4160 045F                             l4152 0448  
                           l4144 0439                             l4136 1434                             l4128 07CC  
                           l4320 094E                             l4312 0920                             l4304 08F7  
                           l4330 13D4                             l4402 1709                             l4066 1606  
                           l4058 15EB                             l4090 08A3                             l4082 083D  
                           l4250 06EE                             l4242 06CD                             l4234 06BE  
                           l4226 06A7                             l4218 0642                             l4170 0472  
                           l4162 0463                             l4154 0450                             l4146 043D  
                           l4322 0953                             l4314 0924                             l4306 0905  
                           l5210 006B                             l5202 004C                             l4340 13E9  
                           l4332 13E3                             l4420 174D                             l4404 170F  
                           l4068 160C                             l4092 08A5                             l4084 0841  
                           l4076 0803                             l4260 072C                             l4252 06FC  
                           l4244 06E1                             l4228 06B0                             l4236 06C4  
                           l4180 048E                             l4172 047A                             l4164 0467  
                           l4156 0452                             l4148 043E                             l4324 0957  
                           l4316 092E                             l4308 090E                             l3700 13AE  
                           l5300 03FC                             l5220 00CB                             l5212 0080  
                           l5204 0051                             l3710 158A                             l4342 13EC  
                           l4334 13E4                             l4422 1753                             l4414 1730  
                           l4406 1715                             l4350 1525                             l4086 0865  
                           l4078 0819                             l4270 075E                             l4262 0737  
                           l4254 0700                             l4238 06C8                             l4190 04CD  
                           l4174 047C                             l4166 0468                             l4158 045A  
                           l4326 0958                             l4318 0938                             l3702 13B5  
                           l5310 0426                             l5302 03FD                             l5230 0118  
                           l5222 00E6                             l5214 008D                             l5206 0059  
                           l4430 0BD5                             l3720 15AC                             l3712 158F  
                           l3704 156B                             l4336 13E5                             l4416 1739  
                           l4408 172D                             l4360 1536                             l4352 1526  
                           l4344 1515                             l5160 161E                             l4088 0869  
                           l4272 0762                             l4264 0746                             l4256 0719  
                           l4248 06E9                             l4192 04E9                             l4184 0497  
                           l4176 0484                             l4168 046D                             l3800 0E25  
                           l4096 0775                             l5312 0428                             l5304 0408  
                           l5240 01E3                             l5232 0125                             l5224 0101  
                           l5216 00A8                             l5208 005E                             l4520 0CCF  
                           l4512 0CAD                             l4504 0C8E                             l4440 0BDE  
                           l4432 0BD8                             l4424 0BCE                             l5320 0A89  
                           l3722 15B5                             l3714 1596                             l3706 1573  
                           l4338 13E8                             l4418 1747                             l4362 1538  
                           l4370 1542                             l4354 1528                             l4346 151A  
                           l5170 1632                             l5162 1622                             l4274 0763  
                           l4266 0750                             l4258 071F                             l4194 0513  
                           l4186 04A5                             l4178 0489                             l3810 0E64  
                           l3802 0E27                             l3730 0DAD                             l4098 0780  
                           l4290 08D3                             l4282 08AA                             l5306 0415  
                           l5250 0231                             l5242 0226                             l5234 0132  
                           l5226 0105                             l5218 00C3                             l4530 0CF4  
                           l4522 0CD6                             l4514 0CC6                             l4506 0CA7  
                           l4450 0BFA                             l4426 0BCF                             l5330 0AEF  
                           l5322 0A97                             l5314 0A6A                             l3716 1599  
                           l3708 157A                             l4380 155D                             l4372 1547  
                           l4364 153E                             l4348 1520                             l4356 152B  
                           l5180 1648                             l5172 1636                             l5164 1627  
                           l4268 0752                             l4276 0768                             l4196 052F  
                           l4188 04B2                             l3900 0FCF                             l3812 0E66  
                           l3820 0E7A                             l3804 0E28                             l3740 0DC1  
                           l3732 0DAE                             l3724 0DA0                             l4284 08AF  
                           l5308 0423                             l5260 026F                             l5252 0233  
                           l5244 0229                             l5236 015F                             l5228 0113  
                           l4540 0D16                             l4532 0CF7                             l4516 0CCA  
                           l4508 0CAA                             l4452 0BFD                             l4428 0BD2  
                           l5340 0B15                             l5332 0AF4                             l5324 0AA1  
                           l5316 0A6F                             l3718 15A0                             l4382 1563  
                           l4374 154D                             l4366 1540                             l4358 1531  
                           l5190 1668                             l5182 164C                             l5174 1638  
                           l5166 1629                             l5158 161B                             l4278 076C  
                           l4198 054B                             l3910 0FEA                             l3902 0FD3  
                           l3830 0EAD                             l3822 0E84                             l3814 0E6C  
                           l3806 0E3F                             l3750 0DD5                             l3734 0DB3  
                           l3742 0DC3                             l3726 0DA5                             l4294 08DC  
                           l4286 08B3                             l5270 02CA                             l5262 027B  
                           l5254 0235                             l5246 022A                             l5238 01A0  
                           l4542 0D19                             l4534 0CFA                             l4526 0CD8  
                           l4518 0CCC                             l4470 0C25                             l4462 0C06  
                           l4454 0C00                             l4438 0BDB                             l4630 096A  
                           l5350 0B33                             l5342 0B1C                             l5334 0AFD  
                           l5326 0ADF                             l5318 0A7C                             l4392 16EF  
                           l4384 1567                             l4376 1552                             l5192 166F  
                           l5184 1650                             l5176 163E                             l5168 162D  
                           l3920 0FFA                             l3912 0FEB                             l3904 0FD8  
                           l3840 0EC2                             l3832 0EB1                             l3824 0E89  
                           l3816 0E6D                             l3808 0E5B                             l3760 0DE8  
                           l3752 0DD9                             l3744 0DCB                             l3736 0DB8  
                           l3728 0DA9                             l4296 08DF                             l4288 08C3  
                           l5280 0369                             l5272 033B                             l5264 02AC  
                           l5256 024F                             l5248 022B                             l4552 0D39  
                           l4528 0CF1                             l4480 0C31                             l4472 0C28  
                           l4464 0C09                             l4456 0C03                             l4448 0BE1  
                           l4640 0982                             l4632 096F                             l5352 0B38  
                           l5360 0B65                             l5344 0B21                             l5336 0B01  
                           l5328 0AEA                             l3690 1401                             l4378 1557  
                           l5186 1661                             l5178 1641                             l5194 1675  
                           l3930 1489                             l3922 0FFE                             l3914 0FEF  
                           l3906 0FDD                             l3850 0F27                             l3842 0EC3  
                           l3834 0EB5                             l3818 0E76                             l3770 0E05  
                           l3762 0DF0                             l3754 0DDD                             l3746 0DCE  
                           l3738 0DC0                             l4298 08E3                             l5290 03CD  
                           l5274 0349                             l5266 02B8                             l5282 0374  
                           l5258 0255                             l4570 0D58                             l4562 0D3E  
                           l4546 0D1C                             l4538 0CFD                             l4482 0C4E  
                           l4474 0C2B                             l4650 09A4                             l4642 0988  
                           l4634 0973                             l5370 0B7B                             l5362 0B6D  
                           l5354 0B45                             l5346 0B29                             l5338 0B0F  
                           l3684 13EF                             l3940 139A                             l3692 14A2  
                           l4388 1569                             l5196 167A                             l5188 1667  
                           l3932 1498                             l3924 147C                             l3916 0FF1  
                           l3908 0FE5                             l3860 0F57                             l3852 0F2B  
                           l3844 0ECC                             l3836 0EBC                             l3828 0E94  
                           l3780 0E11                             l3772 0E09                             l3764 0DF1  
                           l3756 0DDE                             l3748 0DD4                             l5292 03E8  
                           l5284 038F                             l5276 0357                             l5268 02C4  
                           l5700 0D79                             l4548 0D35                             l4492 0C71  
                           l4476 0C2E                             l4468 0C0C                             l4652 09E4  
                           l4636 0979                             l4644 0989                             l4628 0964  
                           l4660 1766                             l5380 0BA2                             l5372 0B84  
                           l5364 0B75                             l5356 0B52                             l5348 0B31  
                           l3686 13F9                             l3942 139B                             l3950 13A6  
                           l3694 14AC                             l4398 16F2                             l5198 167F  
                           l3934 149D                             l3926 147E                             l3918 0FF5  
                           l3870 0F72                             l3862 0F5C                             l3854 0F2D  
                           l3838 0EBE                             l3846 0ED1                             l3790 0E1B  
                           l3782 0E13                             l3774 0E0B                             l3758 0DE3  
                           l3766 0DF3                             l5294 03EF                             l5286 03AA  
                           l5278 035D                             l4486 0C51                             l4574 0D71  
                           l4654 09EA                             l4646 0996                             l4638 097E  
                           l4670 1780                             l4662 176C                             l5382 0BA6  
                           l5374 0B8D                             l5366 0B77                             l5358 0B5F  
                           l3688 13FB                             l3944 139C                             l3952 13A7  
                           l3696 14BC                             l3928 1485                             l3872 0F77  
                           l3880 0F83                             l3856 0F32                             l3848 0EE9  
                           l3792 0E1D                             l3784 0E15                             l3776 0E0D  
                           l3768 0E01                             l3960 1684                             l5296 03F4  
                           l5288 03B2                             l4488 0C6E                             l4656 0A28  
                           l4648 099E                             l4680 17A0                             l4672 1784  
                           l4664 1771                             l5384 0BA9                             l5376 0B95  
                           l5368 0B78                             l3938 1397                             l3946 1391  
                           l3954 13A8                             l3698 14C4                             l3874 0F7A  
                           l3866 0F65                             l3858 0F41                             l3882 0F87  
                           l3794 0E1F                             l3786 0E17                             l3778 0E0F  
                           l3970 16AC                             l3962 168A                             l5298 03F9  
                           l4498 0C8A                             l4658 0A2E                             l4682 17B5  
                           l4674 178A                             l4666 1775                             l5378 0B9C  
                           l3956 13AB                             l3948 13A2                             l3892 0F9A  
                           l3884 0F88                             l3876 0F7C                             l3868 0F6E  
                           l3796 0E21                             l3788 0E19                             l3980 1454  
                           l3972 16C2                             l3964 168D                             l4684 17DA  
                           l4668 177B                             l4676 178B                             l5388 0BB2  
                           l3958 13C2                             l3894 0F9F                             l3886 0F8C  
                           l3878 0F81                             l3798 0E23                             l3990 1474  
                           l3982 1456                             l3974 16C7                             l3966 1692  
                           l4678 1798                             l3896 0FAD                             l3888 0F92  
                           l3984 145A                             l3976 16D4                             l3968 169F  
                           l5680 0C39                             l3898 0FB1                             l3986 1467  
                           l3978 16E1                             l5690 0CE0                             l5682 0C59  
                           l5674 0BBC                             l3988 146E                             l5692 0D05  
                           l5684 0C79                             l5676 0BE9                             ?_isr 0070  
                           l5694 0D24                             l5686 0C96                             l5678 0C14  
                           l5696 0D46                             l5688 0CB5                             l5698 0D60  
                           STR_1 1060                             STR_2 1117                             STR_3 1041  
                           STR_4 107D                             STR_5 10A2                             STR_6 10E5  
                           STR_7 115C                             STR_8 1162                             STR_9 10F0  
                           u4000 0FD8                             u4001 0FD7                             u4010 0FDD  
                           u4011 0FDC                             u4020 0FEA                             u4100 145A  
                           u4021 0FE9                             u4101 1459                             u4030 0FEF  
                           u4031 0FEE                             u4040 0FFE                             u5000 0957  
                           u4041 0FFD                             u5001 0956                             u5010 1520  
                           u4050 1489                             u4130 1474                             u5011 151F  
                           u4051 1488                             u4131 1473                             u4115 1461  
                           u5100 1563                             u5020 1525                             u5101 1562  
                           u5021 1524                             u4125 1468                             u5110 1715  
                           u5030 1531                             u4310 160C                             u4070 149D  
                           u5111 1714                             u5031 1530                             u4311 160B  
                           u4071 149C                             u5120 1753                             u5040 1536  
                           u4320 1611                             u4240 15C7                             u3600 0DB3  
                           u4400 0780                             u4080 168A                             u5200 177B  
                           u5121 1752                             u5041 1535                             u4321 1610  
                           u4305 1600                             u4241 15C6                             u4065 1490  
                           u3601 0DB2                             u4401 077F                             u4081 1689  
                           u5201 177A                             u5050 153E                             u4250 15D2  
                           u4330 0819                             u3610 0DB8                             u4410 0797  
                           u4090 16BF                             u5130 096A                             u5210 178A  
                           u5051 153D                             u4251 15D1                             u4331 0818  
                           u3611 0DB7                             u4091 16BE                             u5131 0969  
                           u5211 1789                             u5060 1547                             u4260 15DD  
                           u4340 0835                             u4500 043D                             u3700 0E4B  
                           u3620 0DD4                             u4420 07AB                             u5140 0979  
                           u5061 1546                             u4261 15DC                             u4341 0834  
                           u4501 043C                             u3621 0DD3                             u4421 07AA  
                           u5141 0978                             u5070 154D                             u4350 0841  
                           u4510 0443                             u3710 0E5B                             u3630 0DDD  
                           u4430 07B2                             u5150 0988                             u5071 154C  
                           u4351 0840                             u4511 0442                             u3711 0E5A  
                           u3631 0DDC                             u4431 07B1                             u4415 0792  
                           u5151 0987                             u3560 13F6                             u5080 1557  
                           u4280 15EF                             u4520 0448                             u3800 0EC2  
                           u3720 0E6C                             u3640 0DE3                             u5160 09A4  
                           u3561 13F2                             u5081 1556                             u4281 15EE  
                           u4361 0850                             u4601 0521                             u4521 0447  
                           u3801 0EC1                             u3721 0E6B                             u3641 0DE2  
                           u5161 09A3                             u5090 155D                             u4290 15F9  
                           u4370 0869                             u4362 0851                             u4602 0528  
                           u4530 0467                             u3650 0DE8                             u4450 07C4  
                           u5170 09EA                             u5091 155C                             u4291 15F8  
                           u4275 15E1                             u4371 0868                             u4363 0856  
                           u4611 053D                             u4603 052F                             u4531 0466  
                           u3651 0DE7                             u4451 07C3                             u5171 09E9  
                           _PEIE 005E                             u3580 14D4                             u5500 1661  
                           u4364 0857                             u4612 0544                             u4540 046D  
                           u3900 0F77                             u3820 0EE9                             u3740 0E80  
                           u3660 0E01                             u4460 07CB                             u5180 0A2E  
                           u3581 14D3                             u5501 1660                             u4381 0878  
                           u4365 085C                             u4701 065A                             u4613 054B  
                           u4541 046C                             u3901 0F76                             u3821 0EE8  
                           u3741 0E7F                             u3661 0E00                             u4461 07CA  
                           u4445 07B4                             u5181 0A2D                             u3574 13F9  
                           u4390 08A3                             u4382 0879                             u4366 085D  
                           u4710 0676                             u4702 0661                             u4550 0472  
                           u3910 0F81                             u3750 0E84                             u3670 0E05  
                           u3590 0DAD                             u5190 176C                             u4295 15F5  
                           u4391 08A2                             u4383 087E                             u4703 0668  
                           u4631 0571                             u4551 0471                             u3911 0F80  
                           u3831 0F00                             u3823 0EE5                             u3815 0EC5  
                           u3751 0E83                             u3735 0E6F                             u3671 0E04  
                           u3591 0DAC                             u5191 176B                             u5520 1675  
                           u5440 1622                             u4384 087F                             u4800 06E8  
                           u4632 0578                             u4560 0489                             u3920 0F87  
                           u3840 0F14                             u3832 0F01                             u3760 0E89  
                           u3680 0E3F                             u4480 07DC                             u5600 033B  
                           u5521 1674                             u5505 165D                             u5441 1621  
                           u4385 0884                             u4801 06E7                             u4721 0682  
                           u4641 059C                             u4633 057F                             u4625 054D  
                           u4561 0488                             u3921 0F86                             u3841 0F15  
                           u3833 0F06                             u3761 0E88                             u3681 0E3E  
                           u4481 07DB                             u5601 033A                             u5530 167A  
                           u5450 162D                             u4386 0885                             u4810 06EE  
                           u4722 0689                             u4642 05A3                             u4570 048E  
                           u3930 0F8C                             u3850 0F32                             u3842 0F1A  
                           u3834 0F07                             u3690 0E4A                             u4490 07E1  
                           u5610 035D                             u5531 1679                             u5515 1669  
                           u5451 162C                             u4395 089F                             u4811 06ED  
                           u4723 0690                             u4715 0671                             u4643 05AA  
                           u4571 048D                             u3931 0F8B                             u3851 0F31  
                           u3843 0F1B                             u3835 0F0C                             u3771 0E9F  
                           u3691 0E48                             u4491 07E0                             u4475 07CE  
                           u5611 035C                             u5460 163E                             u4820 0700  
                           u3940 0F92                             u3860 0F57                             u3836 0F0D  
                           u3780 0EB1                             u3772 0EA6                             u5620 03EF  
                           u5540 0059                             u5700 0B29                             u5461 163D  
                           u4821 06FF                             u4661 05D0                             u4581 04DB  
                           u3941 0F91                             u3861 0F56                             u3781 0EB0  
                           u3773 0EAD                             u3685 0E3B                             u5621 03EE  
                           u5541 0058                             u5701 0B28                             u4830 070F  
                           u4750 06B4                             u4662 05D7                             u4582 04E2  
                           u3950 0F99                             u3870 0F5C                             u3790 0EB5  
                           u4910 08F2                             u5630 03F4                             u5550 0231  
                           u5710 0B31                             u4751 06B3                             u4735 0692  
                           u4671 05FB                             u4663 05DE                             u4655 05AC  
                           u4591 04F7                             u4583 04E9                             u3951 0F98  
                           u3871 0F5B                             u3791 0EB4                             u4911 08F1  
                           u5631 03F3                             u5551 0230                             u5711 0B30  
                           u5480 1650                             u4840 072C                             u4672 0602  
                           u4592 04FE                             u3960 0F9F                             u5560 0255  
                           u5720 0B6D                             u5640 0ACD                             u5481 164F  
                           u4841 072B                             u4745 06A9                             u4681 0626  
                           u4673 0609                             u4593 0505                             u3961 0F9E  
                           u4905 08E4                             u5561 0254                             u5721 0B6C  
                           u4850 0746                             u4770 06C8                             u4690 064E  
                           u4682 062D                             u3970 0FB1                             u3890 0F72  
                           u4930 0914                             u5570 026F                             u5730 0B75  
                           u5650 0ADF                             u5475 1642                             u4851 0745  
                           u4835 070A                             u4771 06C7                             u4683 0634  
                           u3971 0FB0                             u3891 0F71                             u4931 0913  
                           u5571 026E                             u5731 0B74                             u5651 0ADE  
                           u4860 0762                             u4780 06CD                             u3980 0FC0  
                           u5580 02AC                             u5740 0B95                             u5660 0AEA  
                           u4861 0761                             u4845 0728                             u4781 06CC  
                           u4765 06B7                             u3885 0F67                             u4925 0906  
                           u5581 02AB                             u5741 0B94                             u5661 0AE9  
                           u5645 0AB6                             u4790 06E1                             u3990 0FCF  
                           u4950 0924                             u4870 08AF                             u5590 02CA  
                           u5750 0BA2                             u5670 0B0F                             u5646 0AB9  
                           u5807 1741                             u5495 1651                             u4855 0742  
                           u4791 06E0                             u4695 0649                             u3991 0FCE  
                           u4951 0923                             u4871 08AE                             u5591 02C9  
                           u5575 026B                             u5751 0BA1                             u5671 0B0E  
                           u5647 0AC0                             u4960 092A                             u4880 08B3  
                           u5680 0B15                             u5648 0AC3                             u5817 175B  
                           u3985 0FBB                             u4961 0929                             u4945 0919  
                           u4881 08B2                             u5585 02A8                             u5681 0B14  
                           u5649 0ACA                             u4970 092E                             u4890 08D3  
                           u5690 0B1C                             u5827 156F                             u4971 092D  
                           u4891 08D2                             u5691 0B1B                             u4980 0943  
                           u5837 157E                             u4990 0953                             u5847 158C  
                           u4991 0952                             u5767 010D                             u5857 15A2  
                           u4985 093E                             u5777 041D                             u5867 15B0  
                           u5787 13B9                             u5877 15BE                             u5797 1703  
                           u5887 13FE                             u5897 1408                             _TMR2 0011  
  read_digital_keypad@long_press 006A                             _main 0A6A                             _time 0063  
                           btemp 007E                             start 000C                   clcd_write@byte 0075  
                 clcd_write@mode 0072                     main@delay_93 00CE          __end_of_power_on_screen 1763  
      ??_washing_program_display 0025                            ??_isr 0070                    ___fltol@sign1 0076  
                __end_of___fladd 1000                            ?_main 0070                  __end_of___awdiv 1684  
                          STR_10 113D                            STR_11 10C4                            STR_20 1177  
                          STR_12 1096                            STR_21 1136                            STR_13 1120  
                          STR_30 10AE                            STR_22 116D                            STR_14 10DA  
                          STR_31 1128                            STR_23 117B                            STR_15 1104  
                          STR_24 108A                            STR_32 1021                            STR_40 1000  
                          STR_16 110E                            STR_25 1041                            STR_33 1168  
                          STR_41 1051                            STR_17 10FA                            STR_34 1156  
                          STR_26 1031                            STR_42 1011                            STR_18 10B9  
                          STR_35 1144                            STR_43 112F                            STR_27 106F  
                          STR_19 1172                            STR_36 1156                            STR_28 1150  
                          STR_44 10CF                  __end_of___awmod 161B                            STR_45 10AE  
                          STR_37 1144                            STR_29 114A                            STR_46 1128  
                          STR_38 1144                            STR_47 1021                            STR_39 1168  
                __end_of___flmul 0775                  __end_of___flsub 1454                  __end_of___fltol 07ED  
                ___awdiv@divisor 0072                            _T2CON 0012                            i1l150 150E  
                   ?_init_config 0070                  ___awdiv@counter 0020                            _PORTB 0006  
                          _PORTD 0008                            _TRISB 0086                            _TRISD 0088  
                   ?_init_timer2 0070             __end_of_clear_screen 13BF                            _count 00C8  
                          _level 0079                            pclath 000A                            status 0003  
                          wtemp0 007E                  __initialization 000F                     __end_of_main 0BCE  
                         ??_main 005F                   run_program@key 005E  __end_of_washing_program_display 0A6A  
               ___awdiv@dividend 0074                           i1l3400 1507                           i1l3402 150A  
                         i1l3390 14F1                           i1l3382 14D5                           i1l3392 14F8  
                         i1l3384 14DB                           i1l3394 14FB                           i1l3386 14DF  
                         i1l3396 1500                           i1l3388 14E0                           i1l3398 1505  
                         u350_20 14DB                           u350_21 14DA                           u351_20 14DF  
                         u351_21 14DE                           u352_20 14F1                           u352_21 14F0  
                         u353_20 14F8                           u353_21 14F7                           u354_20 1500  
                         u354_21 14FF                           u355_20 1505                           u355_21 1504  
                         _TMR2IE 0461                           _TMR2IF 0061                           _TMR2ON 0092  
                         _TRISC1 0439                           _TRISC2 043A                           _TRISE1 0449  
                         _TRISE2 044A                 __end_of___xxtofl 0961      __end_of_init_digital_keypad 1397  
                         ___flge 0803          _init_display_controller 156B                        ??___fladd 0028  
                         ___wmul 1454                        ??___awdiv 0076                 ?_power_on_screen 0070  
                      ??___awmod 0076                        ??___flmul 0032                        ??___flsub 0076  
                      ??___fltol 0048                 ___awdiv@quotient 0022                  ___awmod@divisor 0072  
                ___awmod@counter 0076                     __pdataCOMMON 007B                 __end_of_set_time 0DA0  
                         saved_w 007E                       ___flge@ff1 004C                       ___flge@ff2 0050  
                   ___xxtofl@arg 0026                     ___xxtofl@exp 0025                     ___xxtofl@val 0072  
        __end_of__initialization 0045                       ___fltol@f1 0044                   __pcstackCOMMON 0070  
                   __pidataBANK0 0800                     __pidataBANK1 140E                     ?_run_program 0070  
                     __pbssBANK0 0063                       __pbssBANK1 00C2        ??_init_display_controller 0076  
                     _clcd_print 14A2                       _clcd_putch 13BF                       _clcd_write 13EE  
              __end_of__Umul8_16 14A2                       __pmaintext 0A6A                     _clear_screen 13AE  
                        ?___flge 004C                          ?___wmul 0072                       __pintentry 0004  
    __end_of_read_digital_keypad 156B                        ?___xxtofl 0072                       __stringtab 117F  
                      ?_set_time 0070                          ___fladd 0DA0                          ___awdiv 161B  
                        ___awmod 15C2                          ___flmul 0430                          ___flsub 1430  
                        ___fltol 0775                          __ptext1 1763                          __ptext2 0961  
                        __ptext3 0BCE                          __ptext4 0049                          __ptext5 1684  
                        __ptext6 13AE                          __ptext7 08A7                          __ptext8 1454  
                        __ptext9 0775  __end_of_init_display_controller 15C2                __end_of_init_clcd 13A2  
         read_digital_keypad@key 0072                       ??___xxtofl 0020                 ___awmod@dividend 0074  
                        main@key 00D0             end_of_initialization 0045                      ?_clcd_print 0020  
                    ?_clcd_putch 0078                      ?_clcd_write 0072         ?_washing_program_display 0070  
                     _reset_flag 006B                       ??_set_time 0072                     __pstringtext 1000  
                     _rinse_time 00C4                      ___fladd@grs 0075       washing_program_display@key 0027  
                     _program_no 007A                    ___xxtofl@sign 0024                    clcd_print@str 0020  
                    ___flmul@grs 0039                       _total_time 0065                   __end_of___flge 08A7  
                 __end_of___wmul 1479                    __pidataCOMMON 0003              start_initialization 000F  
                    __end_of_isr 1515            water_level_screen@key 0027                         ??___flge 0054  
                       ??___wmul 0076                       init_fetch0 07ED                        __Umul8_16 1479  
     __end_of_water_level_screen 1800                      __pdataBANK0 006A                      __pdataBANK1 00A0  
     read_digital_keypad@pre_key 0068                    ??_init_config 0078                        ___fladd@a 0024  
                      ___fladd@b 0020                    ??_init_timer2 0072                        ___flmul@a 002E  
                      ___flmul@b 002A                      __pbssCOMMON 0079                        ___flsub@a 0044  
                      ___flsub@b 0048                        ___latbits 0002                    __pcstackBANK0 0020  
                  __pcstackBANK1 00CA             power_on_screen@i_196 0029                         ?___fladd 0020  
                       ?___awdiv 0072                         ?___awmod 0072                         ?___flmul 002A  
                       ?___flsub 0044                         ?___fltol 0044                       ?__Umul8_16 0072  
                      __pstrings 117F                        _init_clcd 1397              __end_of_init_config 13EE  
              ??_power_on_screen 0025              __end_of_init_timer2 13AE                  _washing_program 00A0  
       ?_init_display_controller 0070                interrupt_function 0004                   ___wmul@product 0076  
                   ??_clcd_print 0078                     ??_clcd_putch 0079                     ??_clcd_write 0073  
                      _wash_time 00C6                        _spin_time 00C2                      __stringbase 1191  
              ___wmul@multiplier 0072                        main@delay 00CA               __end_of_clcd_print 14D5  
             __end_of_clcd_putch 13D4               __end_of_clcd_write 140E                       ?_init_clcd 0070  
            _init_digital_keypad 1391                      ??__Umul8_16 0074             ?_init_digital_keypad 0070  
             __end_of__stringtab 1191                      _init_config 13D4                         ___xxtofl 08A7  
               _operational_mode 006C                      _init_timer2 13A2                    ??_run_program 0058  
                       __ptext10 1430                         __ptext11 0DA0                         __ptext20 14A2  
                       __ptext12 0430                         __ptext21 13D4                         __ptext13 1479  
                       __ptext22 13A2                         __ptext14 0803                         __ptext23 1391  
                       __ptext15 15C2                         __ptext24 1397                         __ptext16 161B  
                       __ptext25 156B                         __ptext17 1515                         __ptext26 13EE  
                       __ptext18 16EF                         __ptext27 14D5                         __ptext19 13BF  
        read_digital_keypad@mode 0070          read_digital_keypad@once 007B                    ?_clear_screen 0070  
                       _set_time 0BCE            ??_init_digital_keypad 0072                _door_status_check 1684  
             ?_door_status_check 0070              ??_door_status_check 0078                         init_ram0 07F1  
             _water_level_screen 1763                      ??_init_clcd 0078                         intlevel1 0000  
            ?_water_level_screen 0070              __end_of_run_program 0430                        stringcode 1189  
                 ??_clear_screen 0076        __end_of_door_status_check 16EF              _read_digital_keypad 1515  
           ??_water_level_screen 0025          _washing_program_display 0961           __Umul8_16@multiplicand 0072  
                _power_on_screen 16EF                         stringtab 117F                    ___fladd@signs 0072  
           ?_read_digital_keypad 0070                 power_on_screen@i 0028                      _water_level 00B8  
                   ___fladd@aexp 0073                     ___fladd@bexp 0074             __Umul8_16@multiplier 0024  
              __Umul8_16@product 0020  
