

Microchip MPLAB XC8 Assembler V2.45 build 20230818022343 
                                                                                               Sun Jun 22 23:37:51 2025

Microchip MPLAB XC8 C Compiler v2.45 (Free license) build 20230818022343 Og1 
     1                           	processor	16F877A
     2                           	pagewidth 120
     3                           	opt	flic
     4                           	psect	idataCOMMON,global,class=CODE,delta=2,noexec
     5                           	psect	idataBANK0,global,class=CODE,delta=2,noexec
     6                           	psect	idataBANK1,global,class=CODE,delta=2,noexec
     7                           	psect	strings,global,class=STRING,delta=2,noexec
     8                           	psect	stringtext,global,reloc=256,class=STRCODE,delta=2,noexec
     9                           	psect	cinit,global,class=CODE,merge=1,delta=2
    10                           	psect	bssCOMMON,global,class=COMMON,space=1,delta=1,noexec
    11                           	psect	dataCOMMON,global,class=COMMON,space=1,delta=1,noexec
    12                           	psect	bssBANK0,global,class=BANK0,space=1,delta=1,noexec
    13                           	psect	dataBANK0,global,class=BANK0,space=1,delta=1,noexec
    14                           	psect	bssBANK1,global,class=BANK1,space=1,delta=1,noexec
    15                           	psect	dataBANK1,global,class=BANK1,space=1,delta=1,noexec
    16                           	psect	inittext,global,class=CODE,delta=2
    17                           	psect	cstackBANK1,global,class=BANK1,space=1,delta=1,noexec
    18                           	psect	cstackCOMMON,global,class=COMMON,space=1,delta=1,noexec
    19                           	psect	cstackBANK0,global,class=BANK0,space=1,delta=1,noexec
    20                           	psect	maintext,global,class=CODE,split=1,delta=2
    21                           	psect	text1,local,class=CODE,merge=1,delta=2
    22                           	psect	text2,local,class=CODE,merge=1,delta=2
    23                           	psect	text3,local,class=CODE,merge=1,delta=2
    24                           	psect	text4,local,class=CODE,merge=1,delta=2
    25                           	psect	text5,local,class=CODE,merge=1,delta=2
    26                           	psect	text6,local,class=CODE,merge=1,delta=2
    27                           	psect	text7,local,class=CODE,merge=1,delta=2,group=1
    28                           	psect	text8,local,class=CODE,merge=1,delta=2,group=1
    29                           	psect	text9,local,class=CODE,merge=1,delta=2,group=1
    30                           	psect	text10,local,class=CODE,merge=1,delta=2,group=1
    31                           	psect	text11,local,class=CODE,merge=1,delta=2,group=1
    32                           	psect	text12,local,class=CODE,merge=1,delta=2,group=1
    33                           	psect	text13,local,class=CODE,merge=1,delta=2,group=1
    34                           	psect	text14,local,class=CODE,merge=1,delta=2,group=1
    35                           	psect	text15,local,class=CODE,merge=1,delta=2,group=1
    36                           	psect	text16,local,class=CODE,merge=1,delta=2,group=1
    37                           	psect	text17,local,class=CODE,merge=1,delta=2
    38                           	psect	text18,local,class=CODE,merge=1,delta=2
    39                           	psect	text19,local,class=CODE,merge=1,delta=2
    40                           	psect	text20,local,class=CODE,merge=1,delta=2
    41                           	psect	text21,local,class=CODE,merge=1,delta=2
    42                           	psect	text22,local,class=CODE,merge=1,delta=2
    43                           	psect	text23,local,class=CODE,merge=1,delta=2
    44                           	psect	text24,local,class=CODE,merge=1,delta=2
    45                           	psect	text25,local,class=CODE,merge=1,delta=2
    46                           	psect	text26,local,class=CODE,merge=1,delta=2
    47                           	psect	text27,local,class=CODE,merge=1,delta=2
    48                           	psect	intentry,global,class=CODE,delta=2
    49                           	psect	config,global,abs,ovrld,class=CONFIG,space=4,delta=2,noexec
    50                           	dabs	1,0x7E,2
    51     0000                     
    52                           ; Generated 12/10/2023 GMT
    53                           ; 
    54                           ; Copyright © 2023, Microchip Technology Inc. and its subsidiaries ("Microchip")
    55                           ; All rights reserved.
    56                           ; 
    57                           ; This software is developed by Microchip Technology Inc. and its subsidiaries ("Microch
      +                          ip").
    58                           ; 
    59                           ; Redistribution and use in source and binary forms, with or without modification, are
    60                           ; permitted provided that the following conditions are met:
    61                           ; 
    62                           ;     1. Redistributions of source code must retain the above copyright notice, this lis
      +                          t of
    63                           ;        conditions and the following disclaimer.
    64                           ; 
    65                           ;     2. Redistributions in binary form must reproduce the above copyright notice, this 
      +                          list
    66                           ;        of conditions and the following disclaimer in the documentation and/or other
    67                           ;        materials provided with the distribution. Publication is not required when
    68                           ;        this file is used in an embedded application.
    69                           ; 
    70                           ;     3. Microchip's name may not be used to endorse or promote products derived from th
      +                          is
    71                           ;        software without specific prior written permission.
    72                           ; 
    73                           ; THIS SOFTWARE IS PROVIDED BY MICROCHIP "AS IS" AND ANY EXPRESS OR IMPLIED WARRANTIES,
    74                           ; INCLUDING, BUT NOT LIMITED TO, THE IMPLIED WARRANTIES OF MERCHANTABILITY AND FITNESS F
      +                          OR
    75                           ; PURPOSE ARE DISCLAIMED.  IN NO EVENT SHALL MICROCHIP BE LIABLE FOR ANY DIRECT, INDIREC
      +                          T,
    76                           ; INCIDENTAL, SPECIAL, EXEMPLARY, OR CONSEQUENTIAL DAMAGES (INCLUDING BUT NOT LIMITED TO
    77                           ; PROCUREMENT OF SUBSTITUTE GOODS OR SERVICES; LOSS OF USE, DATA OR PROFITS; OR BUSINESS
    78                           ; INTERRUPTION) HOWSOEVER CAUSED AND ON ANY THEORY OF LIABILITY, WHETHER IN CONTRACT, ST
      +                          RICT
    79                           ; LIABILITY, OR TORT (INCLUDING NEGLIGENCE OR OTHERWISE) ARISING IN ANY WAY OUT OF THE U
      +                          SE OF
    80                           ; THIS SOFTWARE, EVEN IF ADVISED OF THE POSSIBILITY OF SUCH DAMAGE.
    81                           ; 
    82                           ; 
    83                           ; Code-generator required, PIC16F877A Definitions
    84                           ; 
    85                           ; SFR Addresses
    86     0000                     	;# 
    87     0001                     	;# 
    88     0002                     	;# 
    89     0003                     	;# 
    90     0004                     	;# 
    91     0005                     	;# 
    92     0006                     	;# 
    93     0007                     	;# 
    94     0008                     	;# 
    95     0009                     	;# 
    96     000A                     	;# 
    97     000B                     	;# 
    98     000C                     	;# 
    99     000D                     	;# 
   100     000E                     	;# 
   101     000E                     	;# 
   102     000F                     	;# 
   103     0010                     	;# 
   104     0011                     	;# 
   105     0012                     	;# 
   106     0013                     	;# 
   107     0014                     	;# 
   108     0015                     	;# 
   109     0015                     	;# 
   110     0016                     	;# 
   111     0017                     	;# 
   112     0018                     	;# 
   113     0019                     	;# 
   114     001A                     	;# 
   115     001B                     	;# 
   116     001B                     	;# 
   117     001C                     	;# 
   118     001D                     	;# 
   119     001E                     	;# 
   120     001F                     	;# 
   121     0081                     	;# 
   122     0085                     	;# 
   123     0086                     	;# 
   124     0087                     	;# 
   125     0088                     	;# 
   126     0089                     	;# 
   127     008C                     	;# 
   128     008D                     	;# 
   129     008E                     	;# 
   130     0091                     	;# 
   131     0092                     	;# 
   132     0093                     	;# 
   133     0094                     	;# 
   134     0098                     	;# 
   135     0099                     	;# 
   136     009C                     	;# 
   137     009D                     	;# 
   138     009E                     	;# 
   139     009F                     	;# 
   140     010C                     	;# 
   141     010D                     	;# 
   142     010E                     	;# 
   143     010F                     	;# 
   144     018C                     	;# 
   145     018D                     	;# 
   146     0000                     	;# 
   147     0001                     	;# 
   148     0002                     	;# 
   149     0003                     	;# 
   150     0004                     	;# 
   151     0005                     	;# 
   152     0006                     	;# 
   153     0007                     	;# 
   154     0008                     	;# 
   155     0009                     	;# 
   156     000A                     	;# 
   157     000B                     	;# 
   158     000C                     	;# 
   159     000D                     	;# 
   160     000E                     	;# 
   161     000E                     	;# 
   162     000F                     	;# 
   163     0010                     	;# 
   164     0011                     	;# 
   165     0012                     	;# 
   166     0013                     	;# 
   167     0014                     	;# 
   168     0015                     	;# 
   169     0015                     	;# 
   170     0016                     	;# 
   171     0017                     	;# 
   172     0018                     	;# 
   173     0019                     	;# 
   174     001A                     	;# 
   175     001B                     	;# 
   176     001B                     	;# 
   177     001C                     	;# 
   178     001D                     	;# 
   179     001E                     	;# 
   180     001F                     	;# 
   181     0081                     	;# 
   182     0085                     	;# 
   183     0086                     	;# 
   184     0087                     	;# 
   185     0088                     	;# 
   186     0089                     	;# 
   187     008C                     	;# 
   188     008D                     	;# 
   189     008E                     	;# 
   190     0091                     	;# 
   191     0092                     	;# 
   192     0093                     	;# 
   193     0094                     	;# 
   194     0098                     	;# 
   195     0099                     	;# 
   196     009C                     	;# 
   197     009D                     	;# 
   198     009E                     	;# 
   199     009F                     	;# 
   200     010C                     	;# 
   201     010D                     	;# 
   202     010E                     	;# 
   203     010F                     	;# 
   204     018C                     	;# 
   205     018D                     	;# 
   206     0000                     	;# 
   207     0001                     	;# 
   208     0002                     	;# 
   209     0003                     	;# 
   210     0004                     	;# 
   211     0005                     	;# 
   212     0006                     	;# 
   213     0007                     	;# 
   214     0008                     	;# 
   215     0009                     	;# 
   216     000A                     	;# 
   217     000B                     	;# 
   218     000C                     	;# 
   219     000D                     	;# 
   220     000E                     	;# 
   221     000E                     	;# 
   222     000F                     	;# 
   223     0010                     	;# 
   224     0011                     	;# 
   225     0012                     	;# 
   226     0013                     	;# 
   227     0014                     	;# 
   228     0015                     	;# 
   229     0015                     	;# 
   230     0016                     	;# 
   231     0017                     	;# 
   232     0018                     	;# 
   233     0019                     	;# 
   234     001A                     	;# 
   235     001B                     	;# 
   236     001B                     	;# 
   237     001C                     	;# 
   238     001D                     	;# 
   239     001E                     	;# 
   240     001F                     	;# 
   241     0081                     	;# 
   242     0085                     	;# 
   243     0086                     	;# 
   244     0087                     	;# 
   245     0088                     	;# 
   246     0089                     	;# 
   247     008C                     	;# 
   248     008D                     	;# 
   249     008E                     	;# 
   250     0091                     	;# 
   251     0092                     	;# 
   252     0093                     	;# 
   253     0094                     	;# 
   254     0098                     	;# 
   255     0099                     	;# 
   256     009C                     	;# 
   257     009D                     	;# 
   258     009E                     	;# 
   259     009F                     	;# 
   260     010C                     	;# 
   261     010D                     	;# 
   262     010E                     	;# 
   263     010F                     	;# 
   264     018C                     	;# 
   265     018D                     	;# 
   266     0000                     	;# 
   267     0001                     	;# 
   268     0002                     	;# 
   269     0003                     	;# 
   270     0004                     	;# 
   271     0005                     	;# 
   272     0006                     	;# 
   273     0007                     	;# 
   274     0008                     	;# 
   275     0009                     	;# 
   276     000A                     	;# 
   277     000B                     	;# 
   278     000C                     	;# 
   279     000D                     	;# 
   280     000E                     	;# 
   281     000E                     	;# 
   282     000F                     	;# 
   283     0010                     	;# 
   284     0011                     	;# 
   285     0012                     	;# 
   286     0013                     	;# 
   287     0014                     	;# 
   288     0015                     	;# 
   289     0015                     	;# 
   290     0016                     	;# 
   291     0017                     	;# 
   292     0018                     	;# 
   293     0019                     	;# 
   294     001A                     	;# 
   295     001B                     	;# 
   296     001B                     	;# 
   297     001C                     	;# 
   298     001D                     	;# 
   299     001E                     	;# 
   300     001F                     	;# 
   301     0081                     	;# 
   302     0085                     	;# 
   303     0086                     	;# 
   304     0087                     	;# 
   305     0088                     	;# 
   306     0089                     	;# 
   307     008C                     	;# 
   308     008D                     	;# 
   309     008E                     	;# 
   310     0091                     	;# 
   311     0092                     	;# 
   312     0093                     	;# 
   313     0094                     	;# 
   314     0098                     	;# 
   315     0099                     	;# 
   316     009C                     	;# 
   317     009D                     	;# 
   318     009E                     	;# 
   319     009F                     	;# 
   320     010C                     	;# 
   321     010D                     	;# 
   322     010E                     	;# 
   323     010F                     	;# 
   324     018C                     	;# 
   325     018D                     	;# 
   326     0000                     	;# 
   327     0001                     	;# 
   328     0002                     	;# 
   329     0003                     	;# 
   330     0004                     	;# 
   331     0005                     	;# 
   332     0006                     	;# 
   333     0007                     	;# 
   334     0008                     	;# 
   335     0009                     	;# 
   336     000A                     	;# 
   337     000B                     	;# 
   338     000C                     	;# 
   339     000D                     	;# 
   340     000E                     	;# 
   341     000E                     	;# 
   342     000F                     	;# 
   343     0010                     	;# 
   344     0011                     	;# 
   345     0012                     	;# 
   346     0013                     	;# 
   347     0014                     	;# 
   348     0015                     	;# 
   349     0015                     	;# 
   350     0016                     	;# 
   351     0017                     	;# 
   352     0018                     	;# 
   353     0019                     	;# 
   354     001A                     	;# 
   355     001B                     	;# 
   356     001B                     	;# 
   357     001C                     	;# 
   358     001D                     	;# 
   359     001E                     	;# 
   360     001F                     	;# 
   361     0081                     	;# 
   362     0085                     	;# 
   363     0086                     	;# 
   364     0087                     	;# 
   365     0088                     	;# 
   366     0089                     	;# 
   367     008C                     	;# 
   368     008D                     	;# 
   369     008E                     	;# 
   370     0091                     	;# 
   371     0092                     	;# 
   372     0093                     	;# 
   373     0094                     	;# 
   374     0098                     	;# 
   375     0099                     	;# 
   376     009C                     	;# 
   377     009D                     	;# 
   378     009E                     	;# 
   379     009F                     	;# 
   380     010C                     	;# 
   381     010D                     	;# 
   382     010E                     	;# 
   383     010F                     	;# 
   384     018C                     	;# 
   385     018D                     	;# 
   386     0000                     	;# 
   387     0001                     	;# 
   388     0002                     	;# 
   389     0003                     	;# 
   390     0004                     	;# 
   391     0005                     	;# 
   392     0006                     	;# 
   393     0007                     	;# 
   394     0008                     	;# 
   395     0009                     	;# 
   396     000A                     	;# 
   397     000B                     	;# 
   398     000C                     	;# 
   399     000D                     	;# 
   400     000E                     	;# 
   401     000E                     	;# 
   402     000F                     	;# 
   403     0010                     	;# 
   404     0011                     	;# 
   405     0012                     	;# 
   406     0013                     	;# 
   407     0014                     	;# 
   408     0015                     	;# 
   409     0015                     	;# 
   410     0016                     	;# 
   411     0017                     	;# 
   412     0018                     	;# 
   413     0019                     	;# 
   414     001A                     	;# 
   415     001B                     	;# 
   416     001B                     	;# 
   417     001C                     	;# 
   418     001D                     	;# 
   419     001E                     	;# 
   420     001F                     	;# 
   421     0081                     	;# 
   422     0085                     	;# 
   423     0086                     	;# 
   424     0087                     	;# 
   425     0088                     	;# 
   426     0089                     	;# 
   427     008C                     	;# 
   428     008D                     	;# 
   429     008E                     	;# 
   430     0091                     	;# 
   431     0092                     	;# 
   432     0093                     	;# 
   433     0094                     	;# 
   434     0098                     	;# 
   435     0099                     	;# 
   436     009C                     	;# 
   437     009D                     	;# 
   438     009E                     	;# 
   439     009F                     	;# 
   440     010C                     	;# 
   441     010D                     	;# 
   442     010E                     	;# 
   443     010F                     	;# 
   444     018C                     	;# 
   445     018D                     	;# 
   446     0000                     	;# 
   447     0001                     	;# 
   448     0002                     	;# 
   449     0003                     	;# 
   450     0004                     	;# 
   451     0005                     	;# 
   452     0006                     	;# 
   453     0007                     	;# 
   454     0008                     	;# 
   455     0009                     	;# 
   456     000A                     	;# 
   457     000B                     	;# 
   458     000C                     	;# 
   459     000D                     	;# 
   460     000E                     	;# 
   461     000E                     	;# 
   462     000F                     	;# 
   463     0010                     	;# 
   464     0011                     	;# 
   465     0012                     	;# 
   466     0013                     	;# 
   467     0014                     	;# 
   468     0015                     	;# 
   469     0015                     	;# 
   470     0016                     	;# 
   471     0017                     	;# 
   472     0018                     	;# 
   473     0019                     	;# 
   474     001A                     	;# 
   475     001B                     	;# 
   476     001B                     	;# 
   477     001C                     	;# 
   478     001D                     	;# 
   479     001E                     	;# 
   480     001F                     	;# 
   481     0081                     	;# 
   482     0085                     	;# 
   483     0086                     	;# 
   484     0087                     	;# 
   485     0088                     	;# 
   486     0089                     	;# 
   487     008C                     	;# 
   488     008D                     	;# 
   489     008E                     	;# 
   490     0091                     	;# 
   491     0092                     	;# 
   492     0093                     	;# 
   493     0094                     	;# 
   494     0098                     	;# 
   495     0099                     	;# 
   496     009C                     	;# 
   497     009D                     	;# 
   498     009E                     	;# 
   499     009F                     	;# 
   500     010C                     	;# 
   501     010D                     	;# 
   502     010E                     	;# 
   503     010F                     	;# 
   504     018C                     	;# 
   505     018D                     	;# 
   506                           
   507                           	psect	idataCOMMON
   508     0003                     __pidataCOMMON:
   509                           
   510                           ;initializer for read_digital_keypad@once
   511     0003  3401               	retlw	1
   512                           
   513                           	psect	idataBANK0
   514     0800                     __pidataBANK0:
   515                           
   516                           ;initializer for read_digital_keypad@long_press
   517     0800  3401               	retlw	1
   518                           
   519                           ;initializer for _reset_flag
   520     0801  3411               	retlw	17
   521                           
   522                           ;initializer for _operational_mode
   523     0802  3401               	retlw	1
   524                           
   525                           	psect	idataBANK1
   526     1410                     __pidataBANK1:
   527                           
   528                           ;initializer for _washing_program
   529     1410  345C               	retlw	low (STR_7| (0+32768))
   530     1411  3491               	retlw	high (STR_7| (0+32768))
   531     1412  3462               	retlw	low (STR_8| (0+32768))
   532     1413  3491               	retlw	high (STR_8| (0+32768))
   533     1414  34F0               	retlw	low (STR_9| (0+32768))
   534     1415  3490               	retlw	high (STR_9| (0+32768))
   535     1416  343D               	retlw	low (STR_10| (0+32768))
   536     1417  3491               	retlw	high (STR_10| (0+32768))
   537     1418  34C4               	retlw	low (STR_11| (0+32768))
   538     1419  3490               	retlw	high (STR_11| (0+32768))
   539     141A  3496               	retlw	low (STR_12| (0+32768))
   540     141B  3490               	retlw	high (STR_12| (0+32768))
   541     141C  3420               	retlw	low (STR_13| (0+32768))
   542     141D  3491               	retlw	high (STR_13| (0+32768))
   543     141E  34DA               	retlw	low (STR_14| (0+32768))
   544     141F  3490               	retlw	high (STR_14| (0+32768))
   545     1420  3404               	retlw	low (STR_15| (0+32768))
   546     1421  3491               	retlw	high (STR_15| (0+32768))
   547     1422  340E               	retlw	low (STR_16| (0+32768))
   548     1423  3491               	retlw	high (STR_16| (0+32768))
   549     1424  34FA               	retlw	low (STR_17| (0+32768))
   550     1425  3490               	retlw	high (STR_17| (0+32768))
   551     1426  34B9               	retlw	low (STR_18| (0+32768))
   552     1427  3490               	retlw	high (STR_18| (0+32768))
   553                           
   554                           ;initializer for _water_level
   555     1428  3472               	retlw	low (STR_19| (0+32768))
   556     1429  3491               	retlw	high (STR_19| (0+32768))
   557     142A  3477               	retlw	low (STR_20| (0+32768))
   558     142B  3491               	retlw	high (STR_20| (0+32768))
   559     142C  3436               	retlw	low (STR_21| (0+32768))
   560     142D  3491               	retlw	high (STR_21| (0+32768))
   561     142E  346D               	retlw	low (STR_22| (0+32768))
   562     142F  3491               	retlw	high (STR_22| (0+32768))
   563     1430  347B               	retlw	low (STR_23| (0+32768))
   564     1431  3491               	retlw	high (STR_23| (0+32768))
   565     0011                     _TMR2	set	17
   566     0006                     _PORTB	set	6
   567     0008                     _PORTD	set	8
   568     0030                     _RB0	set	48
   569     0093                     _TOUTPS0	set	147
   570     0094                     _TOUTPS1	set	148
   571     0095                     _TOUTPS2	set	149
   572     0096                     _TOUTPS3	set	150
   573     0090                     _T2CKPS0	set	144
   574     0091                     _T2CKPS1	set	145
   575     0061                     _TMR2IF	set	97
   576     0049                     _RE1	set	73
   577     004A                     _RE2	set	74
   578     0092                     _TMR2ON	set	146
   579     003A                     _RC2	set	58
   580     0039                     _RC1	set	57
   581     005E                     _PEIE	set	94
   582     005F                     _GIE	set	95
   583     0092                     _PR2	set	146
   584     0086                     _TRISB	set	134
   585     0088                     _TRISD	set	136
   586     0461                     _TMR2IE	set	1121
   587     0449                     _TRISE1	set	1097
   588     044A                     _TRISE2	set	1098
   589     043A                     _TRISC2	set	1082
   590     0439                     _TRISC1	set	1081
   591                           
   592                           	psect	strings
   593     117F                     __pstrings:
   594     117F                     stringtab:
   595     117F                     __stringtab:
   596                           
   597                           ;	String table - string pointers are 2 bytes each
   598     117F  1BFF               	btfsc	btemp+1,7
   599     1180  2989               	ljmp	stringcode
   600     1181  1383               	bcf	3,7
   601     1182  187F               	btfsc	btemp+1,0
   602     1183  1783               	bsf	3,7
   603     1184  0800               	movf	0,w
   604     1185  0A84               	incf	4,f
   605     1186  1903               	skipnz
   606     1187  0AFF               	incf	btemp+1,f
   607     1188  0008               	return
   608     1189                     stringcode:
   609     1189  087F               	movf	btemp+1,w
   610     118A  397F               	andlw	127
   611     118B  008A               	movwf	10
   612     118C  0804               	movf	4,w
   613     118D  0A84               	incf	4,f
   614     118E  1903               	skipnz
   615     118F  0AFF               	incf	btemp+1,f
   616     1190  0082               	movwf	2
   617     1191                     __stringbase:
   618     1191                     __end_of__stringtab:
   619                           
   620                           	psect	stringtext
   621     1000                     __pstringtext:
   622     1000                     STR_40:
   623     1000  3450               	retlw	80	;'P'
   624     1001  3472               	retlw	114	;'r'
   625     1002  346F               	retlw	111	;'o'
   626     1003  3467               	retlw	103	;'g'
   627     1004  3472               	retlw	114	;'r'
   628     1005  3461               	retlw	97	;'a'
   629     1006  346D               	retlw	109	;'m'
   630     1007  3420               	retlw	32	;' '
   631     1008  3443               	retlw	67	;'C'
   632     1009  346F               	retlw	111	;'o'
   633     100A  346D               	retlw	109	;'m'
   634     100B  3470               	retlw	112	;'p'
   635     100C  346C               	retlw	108	;'l'
   636     100D  3465               	retlw	101	;'e'
   637     100E  3474               	retlw	116	;'t'
   638     100F  3465               	retlw	101	;'e'
   639     1010  3400               	retlw	0
   640     1011                     STR_42:
   641     1011  3444               	retlw	68	;'D'
   642     1012  344F               	retlw	79	;'O'
   643     1013  344F               	retlw	79	;'O'
   644     1014  3452               	retlw	82	;'R'
   645     1015  3420               	retlw	32	;' '
   646     1016  3449               	retlw	73	;'I'
   647     1017  3453               	retlw	83	;'S'
   648     1018  3420               	retlw	32	;' '
   649     1019  344F               	retlw	79	;'O'
   650     101A  3450               	retlw	80	;'P'
   651     101B  3445               	retlw	69	;'E'
   652     101C  344E               	retlw	78	;'N'
   653     101D  3421               	retlw	33	;'!'
   654     101E  3421               	retlw	33	;'!'
   655     101F  3421               	retlw	33	;'!'
   656     1020  3400               	retlw	0
   657     1021                     STR_32:
   658     1021  3435               	retlw	53	;'5'
   659     1022  343A               	retlw	58	;':'
   660     1023  3453               	retlw	83	;'S'
   661     1024  3454               	retlw	84	;'T'
   662     1025  3441               	retlw	65	;'A'
   663     1026  3452               	retlw	82	;'R'
   664     1027  3454               	retlw	84	;'T'
   665     1028  3420               	retlw	32	;' '
   666     1029  3436               	retlw	54	;'6'
   667     102A  343A               	retlw	58	;':'
   668     102B  3450               	retlw	80	;'P'
   669     102C  3441               	retlw	65	;'A'
   670     102D  3455               	retlw	85	;'U'
   671     102E  3453               	retlw	83	;'S'
   672     102F  3445               	retlw	69	;'E'
   673     1030  3400               	retlw	0
   674     1031                     STR_26:
   675     1031  3457               	retlw	87	;'W'
   676     1032  3461               	retlw	97	;'a'
   677     1033  3473               	retlw	115	;'s'
   678     1034  3468               	retlw	104	;'h'
   679     1035  3469               	retlw	105	;'i'
   680     1036  346E               	retlw	110	;'n'
   681     1037  3467               	retlw	103	;'g'
   682     1038  3420               	retlw	32	;' '
   683     1039  3450               	retlw	80	;'P'
   684     103A  3472               	retlw	114	;'r'
   685     103B  346F               	retlw	111	;'o'
   686     103C  3467               	retlw	103	;'g'
   687     103D  3472               	retlw	114	;'r'
   688     103E  3461               	retlw	97	;'a'
   689     103F  346D               	retlw	109	;'m'
   690     1040  3400               	retlw	0
   691     1041                     STR_3:
   692     1041  3457               	retlw	87	;'W'
   693     1042  3461               	retlw	97	;'a'
   694     1043  3473               	retlw	115	;'s'
   695     1044  3468               	retlw	104	;'h'
   696     1045  3469               	retlw	105	;'i'
   697     1046  346E               	retlw	110	;'n'
   698     1047  3467               	retlw	103	;'g'
   699     1048  3420               	retlw	32	;' '
   700     1049  344D               	retlw	77	;'M'
   701     104A  3461               	retlw	97	;'a'
   702     104B  3463               	retlw	99	;'c'
   703     104C  3468               	retlw	104	;'h'
   704     104D  3469               	retlw	105	;'i'
   705     104E  346E               	retlw	110	;'n'
   706     104F  3465               	retlw	101	;'e'
   707     1050  3400               	retlw	0
   708     1051                     STR_41:
   709     1051  3452               	retlw	82	;'R'
   710     1052  3465               	retlw	101	;'e'
   711     1053  346D               	retlw	109	;'m'
   712     1054  346F               	retlw	111	;'o'
   713     1055  3476               	retlw	118	;'v'
   714     1056  3465               	retlw	101	;'e'
   715     1057  3420               	retlw	32	;' '
   716     1058  3443               	retlw	67	;'C'
   717     1059  346C               	retlw	108	;'l'
   718     105A  346F               	retlw	111	;'o'
   719     105B  3474               	retlw	116	;'t'
   720     105C  3468               	retlw	104	;'h'
   721     105D  3465               	retlw	101	;'e'
   722     105E  3473               	retlw	115	;'s'
   723     105F  3400               	retlw	0
   724     1060                     STR_1:
   725     1060  3450               	retlw	80	;'P'
   726     1061  3472               	retlw	114	;'r'
   727     1062  3465               	retlw	101	;'e'
   728     1063  3473               	retlw	115	;'s'
   729     1064  3473               	retlw	115	;'s'
   730     1065  3420               	retlw	32	;' '
   731     1066  344B               	retlw	75	;'K'
   732     1067  3445               	retlw	69	;'E'
   733     1068  3459               	retlw	89	;'Y'
   734     1069  3420               	retlw	32	;' '
   735     106A  3435               	retlw	53	;'5'
   736     106B  3420               	retlw	32	;' '
   737     106C  3474               	retlw	116	;'t'
   738     106D  346F               	retlw	111	;'o'
   739     106E  3400               	retlw	0
   740     106F                     STR_27:
   741     106F  3457               	retlw	87	;'W'
   742     1070  3461               	retlw	97	;'a'
   743     1071  3474               	retlw	116	;'t'
   744     1072  3465               	retlw	101	;'e'
   745     1073  3472               	retlw	114	;'r'
   746     1074  3420               	retlw	32	;' '
   747     1075  344C               	retlw	76	;'L'
   748     1076  3465               	retlw	101	;'e'
   749     1077  3476               	retlw	118	;'v'
   750     1078  3465               	retlw	101	;'e'
   751     1079  346C               	retlw	108	;'l'
   752     107A  3420               	retlw	32	;' '
   753     107B  343A               	retlw	58	;':'
   754     107C  3400               	retlw	0
   755     107D                     STR_4:
   756     107D  3450               	retlw	80	;'P'
   757     107E  3472               	retlw	114	;'r'
   758     107F  3465               	retlw	101	;'e'
   759     1080  3473               	retlw	115	;'s'
   760     1081  3473               	retlw	115	;'s'
   761     1082  3420               	retlw	32	;' '
   762     1083  3453               	retlw	83	;'S'
   763     1084  3477               	retlw	119	;'w'
   764     1085  3469               	retlw	105	;'i'
   765     1086  3474               	retlw	116	;'t'
   766     1087  3463               	retlw	99	;'c'
   767     1088  3468               	retlw	104	;'h'
   768     1089  3400               	retlw	0
   769     108A                     STR_24:
   770     108A  3450               	retlw	80	;'P'
   771     108B  346F               	retlw	111	;'o'
   772     108C  3477               	retlw	119	;'w'
   773     108D  3465               	retlw	101	;'e'
   774     108E  3472               	retlw	114	;'r'
   775     108F  3469               	retlw	105	;'i'
   776     1090  346E               	retlw	110	;'n'
   777     1091  3467               	retlw	103	;'g'
   778     1092  3420               	retlw	32	;' '
   779     1093  344F               	retlw	79	;'O'
   780     1094  344E               	retlw	78	;'N'
   781     1095  3400               	retlw	0
   782     1096                     STR_12:
   783     1096  3445               	retlw	69	;'E'
   784     1097  3463               	retlw	99	;'c'
   785     1098  346F               	retlw	111	;'o'
   786     1099  3420               	retlw	32	;' '
   787     109A  3463               	retlw	99	;'c'
   788     109B  346F               	retlw	111	;'o'
   789     109C  3474               	retlw	116	;'t'
   790     109D  3474               	retlw	116	;'t'
   791     109E  346F               	retlw	111	;'o'
   792     109F  346E               	retlw	110	;'n'
   793     10A0  3473               	retlw	115	;'s'
   794     10A1  3400               	retlw	0
   795     10A2                     STR_5:
   796     10A2  3453               	retlw	83	;'S'
   797     10A3  3457               	retlw	87	;'W'
   798     10A4  3435               	retlw	53	;'5'
   799     10A5  3420               	retlw	32	;' '
   800     10A6  343A               	retlw	58	;':'
   801     10A7  3420               	retlw	32	;' '
   802     10A8  3453               	retlw	83	;'S'
   803     10A9  3454               	retlw	84	;'T'
   804     10AA  3441               	retlw	65	;'A'
   805     10AB  3452               	retlw	82	;'R'
   806     10AC  3454               	retlw	84	;'T'
   807     10AD  3400               	retlw	0
   808     10AE                     STR_30:
   809     10AE  3446               	retlw	70	;'F'
   810     10AF  3475               	retlw	117	;'u'
   811     10B0  346E               	retlw	110	;'n'
   812     10B1  3463               	retlw	99	;'c'
   813     10B2  3474               	retlw	116	;'t'
   814     10B3  3469               	retlw	105	;'i'
   815     10B4  346F               	retlw	111	;'o'
   816     10B5  346E               	retlw	110	;'n'
   817     10B6  343A               	retlw	58	;':'
   818     10B7  3420               	retlw	32	;' '
   819     10B8  3400               	retlw	0
   820     10B9                     STR_18:
   821     10B9  3441               	retlw	65	;'A'
   822     10BA  3471               	retlw	113	;'q'
   823     10BB  3475               	retlw	117	;'u'
   824     10BC  3461               	retlw	97	;'a'
   825     10BD  3420               	retlw	32	;' '
   826     10BE  3473               	retlw	115	;'s'
   827     10BF  3474               	retlw	116	;'t'
   828     10C0  346F               	retlw	111	;'o'
   829     10C1  3472               	retlw	114	;'r'
   830     10C2  3465               	retlw	101	;'e'
   831     10C3  3400               	retlw	0
   832     10C4                     STR_11:
   833     10C4  3453               	retlw	83	;'S'
   834     10C5  3474               	retlw	116	;'t'
   835     10C6  3461               	retlw	97	;'a'
   836     10C7  3469               	retlw	105	;'i'
   837     10C8  346E               	retlw	110	;'n'
   838     10C9  3420               	retlw	32	;' '
   839     10CA  3477               	retlw	119	;'w'
   840     10CB  3461               	retlw	97	;'a'
   841     10CC  3473               	retlw	115	;'s'
   842     10CD  3468               	retlw	104	;'h'
   843     10CE  3400               	retlw	0
   844     10CF                     STR_44:
   845     10CF  3463               	retlw	99	;'c'
   846     10D0  346C               	retlw	108	;'l'
   847     10D1  346F               	retlw	111	;'o'
   848     10D2  3473               	retlw	115	;'s'
   849     10D3  3465               	retlw	101	;'e'
   850     10D4  3420               	retlw	32	;' '
   851     10D5  3464               	retlw	100	;'d'
   852     10D6  346F               	retlw	111	;'o'
   853     10D7  346F               	retlw	111	;'o'
   854     10D8  3472               	retlw	114	;'r'
   855     10D9  3400               	retlw	0
   856     10DA                     STR_14:
   857     10DA  3442               	retlw	66	;'B'
   858     10DB  3465               	retlw	101	;'e'
   859     10DC  3464               	retlw	100	;'d'
   860     10DD  3420               	retlw	32	;' '
   861     10DE  3473               	retlw	115	;'s'
   862     10DF  3468               	retlw	104	;'h'
   863     10E0  3465               	retlw	101	;'e'
   864     10E1  3465               	retlw	101	;'e'
   865     10E2  3474               	retlw	116	;'t'
   866     10E3  3473               	retlw	115	;'s'
   867     10E4  3400               	retlw	0
   868     10E5                     STR_6:
   869     10E5  3453               	retlw	83	;'S'
   870     10E6  3457               	retlw	87	;'W'
   871     10E7  3436               	retlw	54	;'6'
   872     10E8  3420               	retlw	32	;' '
   873     10E9  343A               	retlw	58	;':'
   874     10EA  3420               	retlw	32	;' '
   875     10EB  3453               	retlw	83	;'S'
   876     10EC  3454               	retlw	84	;'T'
   877     10ED  344F               	retlw	79	;'O'
   878     10EE  3450               	retlw	80	;'P'
   879     10EF  3400               	retlw	0
   880     10F0                     STR_9:
   881     10F0  3444               	retlw	68	;'D'
   882     10F1  3465               	retlw	101	;'e'
   883     10F2  346C               	retlw	108	;'l'
   884     10F3  3469               	retlw	105	;'i'
   885     10F4  3463               	retlw	99	;'c'
   886     10F5  3461               	retlw	97	;'a'
   887     10F6  3474               	retlw	116	;'t'
   888     10F7  3465               	retlw	101	;'e'
   889     10F8  3473               	retlw	115	;'s'
   890     10F9  3400               	retlw	0
   891     10FA                     STR_17:
   892     10FA  3457               	retlw	87	;'W'
   893     10FB  3461               	retlw	97	;'a'
   894     10FC  3473               	retlw	115	;'s'
   895     10FD  3468               	retlw	104	;'h'
   896     10FE  3420               	retlw	32	;' '
   897     10FF  346F               	retlw	111	;'o'
   898     1100  346E               	retlw	110	;'n'
   899     1101  346C               	retlw	108	;'l'
   900     1102  3479               	retlw	121	;'y'
   901     1103  3400               	retlw	0
   902     1104                     STR_15:
   903     1104  3452               	retlw	82	;'R'
   904     1105  3469               	retlw	105	;'i'
   905     1106  346E               	retlw	110	;'n'
   906     1107  3473               	retlw	115	;'s'
   907     1108  3465               	retlw	101	;'e'
   908     1109  342B               	retlw	43	;'+'
   909     110A  3444               	retlw	68	;'D'
   910     110B  3472               	retlw	114	;'r'
   911     110C  3479               	retlw	121	;'y'
   912     110D  3400               	retlw	0
   913     110E                     STR_16:
   914     110E  3444               	retlw	68	;'D'
   915     110F  3472               	retlw	114	;'r'
   916     1110  3479               	retlw	121	;'y'
   917     1111  3420               	retlw	32	;' '
   918     1112  346F               	retlw	111	;'o'
   919     1113  346E               	retlw	110	;'n'
   920     1114  346C               	retlw	108	;'l'
   921     1115  3479               	retlw	121	;'y'
   922     1116  3400               	retlw	0
   923     1117                     STR_2:
   924     1117  3450               	retlw	80	;'P'
   925     1118  346F               	retlw	111	;'o'
   926     1119  3477               	retlw	119	;'w'
   927     111A  3465               	retlw	101	;'e'
   928     111B  3472               	retlw	114	;'r'
   929     111C  3420               	retlw	32	;' '
   930     111D  344F               	retlw	79	;'O'
   931     111E  344E               	retlw	78	;'N'
   932     111F  3400               	retlw	0
   933     1120                     STR_13:
   934     1120  3457               	retlw	87	;'W'
   935     1121  346F               	retlw	111	;'o'
   936     1122  346F               	retlw	111	;'o'
   937     1123  346C               	retlw	108	;'l'
   938     1124  3465               	retlw	101	;'e'
   939     1125  346E               	retlw	110	;'n'
   940     1126  3473               	retlw	115	;'s'
   941     1127  3400               	retlw	0
   942     1128                     STR_31:
   943     1128  3454               	retlw	84	;'T'
   944     1129  3469               	retlw	105	;'i'
   945     112A  346D               	retlw	109	;'m'
   946     112B  3465               	retlw	101	;'e'
   947     112C  343A               	retlw	58	;':'
   948     112D  3420               	retlw	32	;' '
   949     112E  3400               	retlw	0
   950     112F                     STR_43:
   951     112F  3450               	retlw	80	;'P'
   952     1130  346C               	retlw	108	;'l'
   953     1131  3465               	retlw	101	;'e'
   954     1132  3461               	retlw	97	;'a'
   955     1133  3473               	retlw	115	;'s'
   956     1134  3465               	retlw	101	;'e'
   957     1135  3400               	retlw	0
   958     1136                     STR_21:
   959     1136  344D               	retlw	77	;'M'
   960     1137  3465               	retlw	101	;'e'
   961     1138  3464               	retlw	100	;'d'
   962     1139  3469               	retlw	105	;'i'
   963     113A  3475               	retlw	117	;'u'
   964     113B  346D               	retlw	109	;'m'
   965     113C  3400               	retlw	0
   966     113D                     STR_10:
   967     113D  3457               	retlw	87	;'W'
   968     113E  3468               	retlw	104	;'h'
   969     113F  3469               	retlw	105	;'i'
   970     1140  3474               	retlw	116	;'t'
   971     1141  3465               	retlw	101	;'e'
   972     1142  3473               	retlw	115	;'s'
   973     1143  3400               	retlw	0
   974     1144                     STR_35:
   975     1144  3453               	retlw	83	;'S'
   976     1145  3450               	retlw	80	;'P'
   977     1146  3449               	retlw	73	;'I'
   978     1147  344E               	retlw	78	;'N'
   979     1148  3420               	retlw	32	;' '
   980     1149  3400               	retlw	0
   981     114A                     STR_29:
   982     114A  3454               	retlw	84	;'T'
   983     114B  3469               	retlw	105	;'i'
   984     114C  346D               	retlw	109	;'m'
   985     114D  3465               	retlw	101	;'e'
   986     114E  343A               	retlw	58	;':'
   987     114F  3400               	retlw	0
   988     1150                     STR_28:
   989     1150  3450               	retlw	80	;'P'
   990     1151  3472               	retlw	114	;'r'
   991     1152  346F               	retlw	111	;'o'
   992     1153  3467               	retlw	103	;'g'
   993     1154  343A               	retlw	58	;':'
   994     1155  3400               	retlw	0
   995     1156                     STR_34:
   996     1156  3452               	retlw	82	;'R'
   997     1157  3449               	retlw	73	;'I'
   998     1158  344E               	retlw	78	;'N'
   999     1159  3453               	retlw	83	;'S'
  1000     115A  3445               	retlw	69	;'E'
  1001     115B  3400               	retlw	0
  1002     115C                     STR_7:
  1003     115C  3444               	retlw	68	;'D'
  1004     115D  3461               	retlw	97	;'a'
  1005     115E  3469               	retlw	105	;'i'
  1006     115F  346C               	retlw	108	;'l'
  1007     1160  3479               	retlw	121	;'y'
  1008     1161  3400               	retlw	0
  1009     1162                     STR_8:
  1010     1162  3448               	retlw	72	;'H'
  1011     1163  3465               	retlw	101	;'e'
  1012     1164  3461               	retlw	97	;'a'
  1013     1165  3476               	retlw	118	;'v'
  1014     1166  3479               	retlw	121	;'y'
  1015     1167  3400               	retlw	0
  1016     1168                     STR_33:
  1017     1168  3457               	retlw	87	;'W'
  1018     1169  3441               	retlw	65	;'A'
  1019     116A  3453               	retlw	83	;'S'
  1020     116B  3448               	retlw	72	;'H'
  1021     116C  3400               	retlw	0
  1022     116D                     STR_22:
  1023     116D  3448               	retlw	72	;'H'
  1024     116E  3469               	retlw	105	;'i'
  1025     116F  3467               	retlw	103	;'g'
  1026     1170  3468               	retlw	104	;'h'
  1027     1171  3400               	retlw	0
  1028     1172                     STR_19:
  1029     1172  3441               	retlw	65	;'A'
  1030     1173  3475               	retlw	117	;'u'
  1031     1174  3474               	retlw	116	;'t'
  1032     1175  346F               	retlw	111	;'o'
  1033     1176  3400               	retlw	0
  1034     1177                     STR_20:
  1035     1177  344C               	retlw	76	;'L'
  1036     1178  346F               	retlw	111	;'o'
  1037     1179  3477               	retlw	119	;'w'
  1038     117A  3400               	retlw	0
  1039     117B                     STR_23:
  1040     117B  344D               	retlw	77	;'M'
  1041     117C  3461               	retlw	97	;'a'
  1042     117D  3478               	retlw	120	;'x'
  1043     117E  3400               	retlw	0
  1044     1128                     
  1045                           	psect	cinit
  1046     000F                     start_initialization:	
  1047                           ; #config settings
  1048                           
  1049     000F                     __initialization:
  1050                           
  1051                           ; Initialize objects allocated to BANK1
  1052     000F  1383               	bcf	3,7	;select IRP bank0
  1053     0010  30C2               	movlw	low (__pdataBANK1+34)
  1054     0011  00FD               	movwf	btemp+-1
  1055     0012  3014               	movlw	high __pidataBANK1
  1056     0013  00FE               	movwf	btemp
  1057     0014  3010               	movlw	low __pidataBANK1
  1058     0015  00FF               	movwf	btemp+1
  1059     0016  30A0               	movlw	low __pdataBANK1
  1060     0017  0084               	movwf	4
  1061     0018  120A  118A  27F1  120A  118A  	fcall	init_ram0
  1062                           
  1063                           ; Initialize objects allocated to BANK0
  1064     001D  306D               	movlw	low (__pdataBANK0+3)
  1065     001E  00FD               	movwf	btemp+-1
  1066     001F  3008               	movlw	high __pidataBANK0
  1067     0020  00FE               	movwf	btemp
  1068     0021  3000               	movlw	low __pidataBANK0
  1069     0022  00FF               	movwf	btemp+1
  1070     0023  306A               	movlw	low __pdataBANK0
  1071     0024  0084               	movwf	4
  1072     0025  120A  118A  27F1  120A  118A  	fcall	init_ram0
  1073                           
  1074                           ; Initialize objects allocated to COMMON
  1075     002A  120A  118A  2003  120A  118A  	fcall	__pidataCOMMON	;fetch initializer
  1076     002F  00FB               	movwf	__pdataCOMMON& (0+127)
  1077                           
  1078                           ; Clear objects allocated to BANK1
  1079     0030  1683               	bsf	3,5	;RP0=1, select bank1
  1080     0031  1303               	bcf	3,6	;RP1=0, select bank1
  1081     0032  01C2               	clrf	__pbssBANK1& (0+127)
  1082     0033  01C3               	clrf	(__pbssBANK1+1)& (0+127)
  1083     0034  01C4               	clrf	(__pbssBANK1+2)& (0+127)
  1084     0035  01C5               	clrf	(__pbssBANK1+3)& (0+127)
  1085     0036  01C6               	clrf	(__pbssBANK1+4)& (0+127)
  1086     0037  01C7               	clrf	(__pbssBANK1+5)& (0+127)
  1087     0038  01C8               	clrf	(__pbssBANK1+6)& (0+127)
  1088     0039  01C9               	clrf	(__pbssBANK1+7)& (0+127)
  1089                           
  1090                           ; Clear objects allocated to BANK0
  1091     003A  1283               	bcf	3,5	;RP0=0, select bank0
  1092     003B  1303               	bcf	3,6	;RP1=0, select bank0
  1093     003C  01E3               	clrf	__pbssBANK0& (0+127)
  1094     003D  01E4               	clrf	(__pbssBANK0+1)& (0+127)
  1095     003E  01E5               	clrf	(__pbssBANK0+2)& (0+127)
  1096     003F  01E6               	clrf	(__pbssBANK0+3)& (0+127)
  1097     0040  01E7               	clrf	(__pbssBANK0+4)& (0+127)
  1098     0041  01E8               	clrf	(__pbssBANK0+5)& (0+127)
  1099     0042  01E9               	clrf	(__pbssBANK0+6)& (0+127)
  1100                           
  1101                           ; Clear objects allocated to COMMON
  1102     0043  01F9               	clrf	__pbssCOMMON& (0+127)
  1103     0044  01FA               	clrf	(__pbssCOMMON+1)& (0+127)
  1104     0045                     end_of_initialization:	
  1105                           ;End of C runtime variable initialization code
  1106                           
  1107     0045                     __end_of__initialization:
  1108     0045  0183               	clrf	3
  1109     0046  120A  158A  2A6A   	ljmp	_main	;jump to C main() function
  1110                           
  1111                           	psect	bssCOMMON
  1112     0079                     __pbssCOMMON:
  1113     0079                     _level:
  1114     0079                     	ds	1
  1115     007A                     _program_no:
  1116     007A                     	ds	1
  1117                           
  1118                           	psect	dataCOMMON
  1119     007B                     __pdataCOMMON:
  1120     007B                     read_digital_keypad@once:
  1121     007B                     	ds	1
  1122                           
  1123                           	psect	bssBANK0
  1124     0063                     __pbssBANK0:
  1125     0063                     _time:
  1126     0063                     	ds	2
  1127     0065                     _total_time:
  1128     0065                     	ds	2
  1129     0067                     _sec:
  1130     0067                     	ds	1
  1131     0068                     read_digital_keypad@pre_key:
  1132     0068                     	ds	1
  1133     0069                     _min:
  1134     0069                     	ds	1
  1135                           
  1136                           	psect	dataBANK0
  1137     006A                     __pdataBANK0:
  1138     006A                     read_digital_keypad@long_press:
  1139     006A                     	ds	1
  1140     006B                     _reset_flag:
  1141     006B                     	ds	1
  1142     006C                     _operational_mode:
  1143     006C                     	ds	1
  1144                           
  1145                           	psect	bssBANK1
  1146     00C2                     __pbssBANK1:
  1147     00C2                     _spin_time:
  1148     00C2                     	ds	2
  1149     00C4                     _rinse_time:
  1150     00C4                     	ds	2
  1151     00C6                     _wash_time:
  1152     00C6                     	ds	2
  1153     00C8                     _count:
  1154     00C8                     	ds	2
  1155                           
  1156                           	psect	dataBANK1
  1157     00A0                     __pdataBANK1:
  1158     00A0                     _washing_program:
  1159     00A0                     	ds	24
  1160     00B8                     _water_level:
  1161     00B8                     	ds	10
  1162                           
  1163                           	psect	inittext
  1164     07ED                     init_fetch0:	
  1165                           ;	Called with low address in FSR and high address in W
  1166                           
  1167     07ED  087E               	movf	btemp,w
  1168     07EE  008A               	movwf	10
  1169     07EF  087F               	movf	btemp+1,w
  1170     07F0  0082               	movwf	2
  1171     07F1                     init_ram0:	
  1172                           ;Called with:
  1173                           ;	high address of idata address in btemp 
  1174                           ;	low address of idata address in btemp+1 
  1175                           ;	low address of data in FSR
  1176                           ;	high address + 1 of data in btemp-1
  1177                           
  1178     07F1  120A  118A  27ED  120A  118A  	fcall	init_fetch0
  1179     07F6  0080               	movwf	0
  1180     07F7  0A84               	incf	4,f
  1181     07F8  0804               	movf	4,w
  1182     07F9  067D               	xorwf	btemp+-1,w
  1183     07FA  1903               	btfsc	3,2
  1184     07FB  3400               	retlw	0
  1185     07FC  0AFF               	incf	btemp+1,f
  1186     07FD  1903               	btfsc	3,2
  1187     07FE  0AFE               	incf	btemp,f
  1188     07FF  2FF1               	goto	init_ram0
  1189                           
  1190                           	psect	cstackBANK1
  1191     00CA                     __pcstackBANK1:
  1192     00CA                     main@delay:
  1193                           
  1194                           ; 4 bytes @ 0x0
  1195     00CA                     	ds	4
  1196     00CE                     main@delay_93:
  1197                           
  1198                           ; 2 bytes @ 0x4
  1199     00CE                     	ds	2
  1200     00D0                     main@key:
  1201                           
  1202                           ; 1 bytes @ 0x6
  1203     00D0                     	ds	1
  1204                           
  1205                           	psect	cstackCOMMON
  1206     0070                     __pcstackCOMMON:
  1207     0070                     ?_init_clcd:
  1208     0070                     ?_init_digital_keypad:	
  1209                           ; 1 bytes @ 0x0
  1210                           
  1211     0070                     ?_init_timer2:	
  1212                           ; 1 bytes @ 0x0
  1213                           
  1214     0070                     ?_read_digital_keypad:	
  1215                           ; 1 bytes @ 0x0
  1216                           
  1217     0070                     ?_clear_screen:	
  1218                           ; 1 bytes @ 0x0
  1219                           
  1220     0070                     ?_power_on_screen:	
  1221                           ; 1 bytes @ 0x0
  1222                           
  1223     0070                     ?_set_time:	
  1224                           ; 1 bytes @ 0x0
  1225                           
  1226     0070                     ?_washing_program_display:	
  1227                           ; 1 bytes @ 0x0
  1228                           
  1229     0070                     ?_water_level_screen:	
  1230                           ; 1 bytes @ 0x0
  1231                           
  1232     0070                     ?_run_program:	
  1233                           ; 1 bytes @ 0x0
  1234                           
  1235     0070                     ?_door_status_check:	
  1236                           ; 1 bytes @ 0x0
  1237                           
  1238     0070                     ?_init_config:	
  1239                           ; 1 bytes @ 0x0
  1240                           
  1241     0070                     ?_main:	
  1242                           ; 1 bytes @ 0x0
  1243                           
  1244     0070                     ?_init_display_controller:	
  1245                           ; 1 bytes @ 0x0
  1246                           
  1247     0070                     ?_isr:	
  1248                           ; 1 bytes @ 0x0
  1249                           
  1250     0070                     ??_isr:	
  1251                           ; 1 bytes @ 0x0
  1252                           
  1253     0070                     read_digital_keypad@mode:	
  1254                           ; 1 bytes @ 0x0
  1255                           
  1256                           
  1257                           ; 1 bytes @ 0x0
  1258     0070                     	ds	2
  1259     0072                     ??_init_digital_keypad:
  1260     0072                     ??_init_timer2:	
  1261                           ; 1 bytes @ 0x2
  1262                           
  1263     0072                     ??_read_digital_keypad:	
  1264                           ; 1 bytes @ 0x2
  1265                           
  1266     0072                     ??_set_time:	
  1267                           ; 1 bytes @ 0x2
  1268                           
  1269     0072                     ?_clcd_write:	
  1270                           ; 1 bytes @ 0x2
  1271                           
  1272     0072                     ?__Umul8_16:	
  1273                           ; 1 bytes @ 0x2
  1274                           
  1275     0072                     ?___wmul:	
  1276                           ; 2 bytes @ 0x2
  1277                           
  1278     0072                     ?___awdiv:	
  1279                           ; 2 bytes @ 0x2
  1280                           
  1281     0072                     ?___awmod:	
  1282                           ; 2 bytes @ 0x2
  1283                           
  1284     0072                     ?___xxtofl:	
  1285                           ; 2 bytes @ 0x2
  1286                           
  1287     0072                     clcd_write@mode:	
  1288                           ; 4 bytes @ 0x2
  1289                           
  1290     0072                     read_digital_keypad@key:	
  1291                           ; 1 bytes @ 0x2
  1292                           
  1293     0072                     ___fladd@signs:	
  1294                           ; 1 bytes @ 0x2
  1295                           
  1296     0072                     __Umul8_16@multiplicand:	
  1297                           ; 1 bytes @ 0x2
  1298                           
  1299     0072                     ___wmul@multiplier:	
  1300                           ; 1 bytes @ 0x2
  1301                           
  1302     0072                     ___awdiv@divisor:	
  1303                           ; 2 bytes @ 0x2
  1304                           
  1305     0072                     ___awmod@divisor:	
  1306                           ; 2 bytes @ 0x2
  1307                           
  1308     0072                     ___xxtofl@val:	
  1309                           ; 2 bytes @ 0x2
  1310                           
  1311                           
  1312                           ; 4 bytes @ 0x2
  1313     0072                     	ds	1
  1314     0073                     ??_clcd_write:
  1315     0073                     ___fladd@aexp:	
  1316                           ; 1 bytes @ 0x3
  1317                           
  1318                           
  1319                           ; 1 bytes @ 0x3
  1320     0073                     	ds	1
  1321     0074                     ??__Umul8_16:
  1322     0074                     ___fladd@bexp:	
  1323                           ; 1 bytes @ 0x4
  1324                           
  1325     0074                     ___wmul@multiplicand:	
  1326                           ; 1 bytes @ 0x4
  1327                           
  1328     0074                     ___awdiv@dividend:	
  1329                           ; 2 bytes @ 0x4
  1330                           
  1331     0074                     ___awmod@dividend:	
  1332                           ; 2 bytes @ 0x4
  1333                           
  1334                           
  1335                           ; 2 bytes @ 0x4
  1336     0074                     	ds	1
  1337     0075                     clcd_write@byte:
  1338     0075                     ___fladd@grs:	
  1339                           ; 1 bytes @ 0x5
  1340                           
  1341                           
  1342                           ; 1 bytes @ 0x5
  1343     0075                     	ds	1
  1344     0076                     ??_clear_screen:
  1345     0076                     ??_init_display_controller:	
  1346                           ; 1 bytes @ 0x6
  1347                           
  1348     0076                     ??___wmul:	
  1349                           ; 1 bytes @ 0x6
  1350                           
  1351     0076                     ??___awdiv:	
  1352                           ; 1 bytes @ 0x6
  1353                           
  1354     0076                     ??___awmod:	
  1355                           ; 1 bytes @ 0x6
  1356                           
  1357     0076                     ??___flsub:	
  1358                           ; 1 bytes @ 0x6
  1359                           
  1360     0076                     ___awmod@counter:	
  1361                           ; 1 bytes @ 0x6
  1362                           
  1363     0076                     ___fltol@sign1:	
  1364                           ; 1 bytes @ 0x6
  1365                           
  1366     0076                     ___wmul@product:	
  1367                           ; 1 bytes @ 0x6
  1368                           
  1369                           
  1370                           ; 2 bytes @ 0x6
  1371     0076                     	ds	1
  1372     0077                     ___awmod@sign:
  1373     0077                     ___fltol@exp1:	
  1374                           ; 1 bytes @ 0x7
  1375                           
  1376                           
  1377                           ; 1 bytes @ 0x7
  1378     0077                     	ds	1
  1379     0078                     ??_init_clcd:
  1380     0078                     ??_clcd_print:	
  1381                           ; 1 bytes @ 0x8
  1382                           
  1383     0078                     ??_door_status_check:	
  1384                           ; 1 bytes @ 0x8
  1385                           
  1386     0078                     ??_init_config:	
  1387                           ; 1 bytes @ 0x8
  1388                           
  1389     0078                     ?_clcd_putch:	
  1390                           ; 1 bytes @ 0x8
  1391                           
  1392     0078                     clcd_putch@addr:	
  1393                           ; 1 bytes @ 0x8
  1394                           
  1395                           
  1396                           ; 1 bytes @ 0x8
  1397     0078                     	ds	1
  1398     0079                     ??_clcd_putch:
  1399                           
  1400                           	psect	cstackBANK0
  1401     0020                     __pcstackBANK0:	
  1402                           ; 1 bytes @ 0x9
  1403                           
  1404     0020                     ?_clcd_print:
  1405     0020                     ??___xxtofl:	
  1406                           ; 1 bytes @ 0x0
  1407                           
  1408     0020                     ?___fladd:	
  1409                           ; 1 bytes @ 0x0
  1410                           
  1411     0020                     ___awdiv@counter:	
  1412                           ; 4 bytes @ 0x0
  1413                           
  1414     0020                     clcd_print@str:	
  1415                           ; 1 bytes @ 0x0
  1416                           
  1417     0020                     __Umul8_16@product:	
  1418                           ; 2 bytes @ 0x0
  1419                           
  1420     0020                     ___fladd@b:	
  1421                           ; 2 bytes @ 0x0
  1422                           
  1423                           
  1424                           ; 4 bytes @ 0x0
  1425     0020                     	ds	1
  1426     0021                     ___awdiv@sign:
  1427                           
  1428                           ; 1 bytes @ 0x1
  1429     0021                     	ds	1
  1430     0022                     clcd_print@addr:
  1431     0022                     ___awdiv@quotient:	
  1432                           ; 1 bytes @ 0x2
  1433                           
  1434     0022                     __Umul8_16@word_mpld:	
  1435                           ; 2 bytes @ 0x2
  1436                           
  1437                           
  1438                           ; 2 bytes @ 0x2
  1439     0022                     	ds	2
  1440     0024                     clcd_putch@data:
  1441     0024                     __Umul8_16@multiplier:	
  1442                           ; 1 bytes @ 0x4
  1443                           
  1444     0024                     ___xxtofl@sign:	
  1445                           ; 1 bytes @ 0x4
  1446                           
  1447     0024                     ___fladd@a:	
  1448                           ; 1 bytes @ 0x4
  1449                           
  1450                           
  1451                           ; 4 bytes @ 0x4
  1452     0024                     	ds	1
  1453     0025                     ??_power_on_screen:
  1454     0025                     ??_washing_program_display:	
  1455                           ; 1 bytes @ 0x5
  1456                           
  1457     0025                     ??_water_level_screen:	
  1458                           ; 1 bytes @ 0x5
  1459                           
  1460     0025                     ___xxtofl@exp:	
  1461                           ; 1 bytes @ 0x5
  1462                           
  1463                           
  1464                           ; 1 bytes @ 0x5
  1465     0025                     	ds	1
  1466     0026                     ___xxtofl@arg:
  1467                           
  1468                           ; 4 bytes @ 0x6
  1469     0026                     	ds	1
  1470     0027                     washing_program_display@key:
  1471     0027                     water_level_screen@key:	
  1472                           ; 1 bytes @ 0x7
  1473                           
  1474                           
  1475                           ; 1 bytes @ 0x7
  1476     0027                     	ds	1
  1477     0028                     ??___fladd:
  1478     0028                     power_on_screen@i:	
  1479                           ; 1 bytes @ 0x8
  1480                           
  1481                           
  1482                           ; 1 bytes @ 0x8
  1483     0028                     	ds	1
  1484     0029                     power_on_screen@i_201:
  1485                           
  1486                           ; 1 bytes @ 0x9
  1487     0029                     	ds	1
  1488     002A                     ?___flmul:
  1489     002A                     ___flmul@b:	
  1490                           ; 4 bytes @ 0xA
  1491                           
  1492                           
  1493                           ; 4 bytes @ 0xA
  1494     002A                     	ds	4
  1495     002E                     ___flmul@a:
  1496                           
  1497                           ; 4 bytes @ 0xE
  1498     002E                     	ds	4
  1499     0032                     ??___flmul:
  1500                           
  1501                           ; 1 bytes @ 0x12
  1502     0032                     	ds	5
  1503     0037                     ___flmul@sign:
  1504                           
  1505                           ; 1 bytes @ 0x17
  1506     0037                     	ds	1
  1507     0038                     ___flmul@aexp:
  1508                           
  1509                           ; 1 bytes @ 0x18
  1510     0038                     	ds	1
  1511     0039                     ___flmul@grs:
  1512                           
  1513                           ; 4 bytes @ 0x19
  1514     0039                     	ds	4
  1515     003D                     ___flmul@bexp:
  1516                           
  1517                           ; 1 bytes @ 0x1D
  1518     003D                     	ds	1
  1519     003E                     ___flmul@prod:
  1520                           
  1521                           ; 4 bytes @ 0x1E
  1522     003E                     	ds	4
  1523     0042                     ___flmul@temp:
  1524                           
  1525                           ; 2 bytes @ 0x22
  1526     0042                     	ds	2
  1527     0044                     ?___fltol:
  1528     0044                     ?___flsub:	
  1529                           ; 4 bytes @ 0x24
  1530                           
  1531     0044                     ___fltol@f1:	
  1532                           ; 4 bytes @ 0x24
  1533                           
  1534     0044                     ___flsub@a:	
  1535                           ; 4 bytes @ 0x24
  1536                           
  1537                           
  1538                           ; 4 bytes @ 0x24
  1539     0044                     	ds	4
  1540     0048                     ??___fltol:
  1541     0048                     ___flsub@b:	
  1542                           ; 1 bytes @ 0x28
  1543                           
  1544                           
  1545                           ; 4 bytes @ 0x28
  1546     0048                     	ds	4
  1547     004C                     ?___flge:
  1548     004C                     ___flge@ff1:	
  1549                           ; 1 bit 
  1550                           
  1551                           
  1552                           ; 4 bytes @ 0x2C
  1553     004C                     	ds	4
  1554     0050                     ___flge@ff2:
  1555                           
  1556                           ; 4 bytes @ 0x30
  1557     0050                     	ds	4
  1558     0054                     ??___flge:
  1559                           
  1560                           ; 1 bytes @ 0x34
  1561     0054                     	ds	4
  1562     0058                     ??_run_program:
  1563                           
  1564                           ; 1 bytes @ 0x38
  1565     0058                     	ds	6
  1566     005E                     run_program@key:
  1567                           
  1568                           ; 1 bytes @ 0x3E
  1569     005E                     	ds	1
  1570     005F                     ??_main:
  1571                           
  1572                           ; 1 bytes @ 0x3F
  1573     005F                     	ds	4
  1574                           
  1575                           	psect	maintext
  1576     0A6A                     __pmaintext:	
  1577 ;;
  1578 ;;Main: autosize = 0, tempsize = 4, incstack = 0, save=0
  1579 ;;
  1580 ;; *************** function _main *****************
  1581 ;; Defined at:
  1582 ;;		line 25 in file "main.c"
  1583 ;; Parameters:    Size  Location     Type
  1584 ;;		None
  1585 ;; Auto vars:     Size  Location     Type
  1586 ;;  delay           2    4[BANK1 ] unsigned int 
  1587 ;;  delay           4    0[BANK1 ] unsigned long 
  1588 ;;  key             1    6[BANK1 ] unsigned char 
  1589 ;; Return value:  Size  Location     Type
  1590 ;;                  1    wreg      void 
  1591 ;; Registers used:
  1592 ;;		wreg, fsr0l, fsr0h, status,2, status,0, btemp+1, pclath, cstack
  1593 ;; Tracked objects:
  1594 ;;		On entry : B00/0
  1595 ;;		On exit  : 0/0
  1596 ;;		Unchanged: 0/0
  1597 ;; Data sizes:     COMMON   BANK0   BANK1   BANK3   BANK2
  1598 ;;      Params:         0       0       0       0       0
  1599 ;;      Locals:         0       0       7       0       0
  1600 ;;      Temps:          0       4       0       0       0
  1601 ;;      Totals:         0       4       7       0       0
  1602 ;;Total ram usage:       11 bytes
  1603 ;; Hardware stack levels required when called: 5
  1604 ;; This function calls:
  1605 ;;		_clcd_print
  1606 ;;		_clear_screen
  1607 ;;		_init_config
  1608 ;;		_power_on_screen
  1609 ;;		_read_digital_keypad
  1610 ;;		_run_program
  1611 ;;		_set_time
  1612 ;;		_washing_program_display
  1613 ;;		_water_level_screen
  1614 ;; This function is called by:
  1615 ;;		Startup code after reset
  1616 ;; This function uses a non-reentrant model
  1617 ;;
  1618                           
  1619     0A6A                     _main:	
  1620                           ;psect for function _main
  1621                           
  1622     0A6A                     l5359:	
  1623                           ;incstack = 0
  1624                           ; Regs used in _main: [wreg-fsr0h+status,2+status,0+btemp+1+pclath+cstack]
  1625                           
  1626                           
  1627                           ;main.c: 26:         power_on_screen();
  1628     0A6A  160A  118A  23D6  120A  158A  	fcall	_init_config
  1629     0A6F                     l5361:
  1630                           
  1631                           ;main.c: 27:     while(1);main.c: 28:     {
  1632     0A6F  3060               	movlw	low (STR_1| (0+32768))
  1633     0A70  1283               	bcf	3,5	;RP0=0, select bank0
  1634     0A71  1303               	bcf	3,6	;RP1=0, select bank0
  1635     0A72  00A0               	movwf	clcd_print@str
  1636     0A73  3090               	movlw	high (STR_1| (0+32768))
  1637     0A74  00A1               	movwf	clcd_print@str+1
  1638     0A75  3081               	movlw	129
  1639     0A76  00A2               	movwf	clcd_print@addr
  1640     0A77  160A  118A  24A4  120A  158A  	fcall	_clcd_print
  1641     0A7C                     l5363:
  1642                           
  1643                           ;main.c: 29:        key=read_digital_keypad(1);
  1644     0A7C  3017               	movlw	low (STR_2| (0+32768))
  1645     0A7D  1283               	bcf	3,5	;RP0=0, select bank0
  1646     0A7E  1303               	bcf	3,6	;RP1=0, select bank0
  1647     0A7F  00A0               	movwf	clcd_print@str
  1648     0A80  3091               	movlw	high (STR_2| (0+32768))
  1649     0A81  00A1               	movwf	clcd_print@str+1
  1650     0A82  30C4               	movlw	196
  1651     0A83  00A2               	movwf	clcd_print@addr
  1652     0A84  160A  118A  24A4  120A  158A  	fcall	_clcd_print
  1653     0A89                     l5365:
  1654                           
  1655                           ;main.c: 30: 
  1656     0A89  3041               	movlw	low (STR_3| (0+32768))
  1657     0A8A  1283               	bcf	3,5	;RP0=0, select bank0
  1658     0A8B  1303               	bcf	3,6	;RP1=0, select bank0
  1659     0A8C  00A0               	movwf	clcd_print@str
  1660     0A8D  3090               	movlw	high (STR_3| (0+32768))
  1661     0A8E  00A1               	movwf	clcd_print@str+1
  1662     0A8F  3091               	movlw	145
  1663     0A90  00A2               	movwf	clcd_print@addr
  1664     0A91  160A  118A  24A4  120A  158A  	fcall	_clcd_print
  1665                           
  1666                           ;main.c: 31:        for(unsigned int delay=10000;delay--;);
  1667     0A96  2ADF               	goto	l5371
  1668     0A97                     l5367:
  1669                           
  1670                           ;main.c: 32: ;main.c: 33:        if((key==0x99) && (operational_mode==0x01))
  1671     0A97  3000               	movlw	0
  1672     0A98  1683               	bsf	3,5	;RP0=1, select bank1
  1673     0A99  1303               	bcf	3,6	;RP1=0, select bank1
  1674     0A9A  00CD               	movwf	(main@delay+3)^(0+128)
  1675     0A9B  3000               	movlw	0
  1676     0A9C  00CC               	movwf	(main@delay+2)^(0+128)
  1677     0A9D  3027               	movlw	39
  1678     0A9E  00CB               	movwf	(main@delay+1)^(0+128)
  1679     0A9F  3010               	movlw	16
  1680     0AA0  00CA               	movwf	main@delay^(0+128)
  1681     0AA1                     l5369:
  1682     0AA1  3001               	movlw	1
  1683     0AA2  1283               	bcf	3,5	;RP0=0, select bank0
  1684     0AA3  1303               	bcf	3,6	;RP1=0, select bank0
  1685     0AA4  00DF               	movwf	??_main
  1686     0AA5  3000               	movlw	0
  1687     0AA6  00E0               	movwf	??_main+1
  1688     0AA7  3000               	movlw	0
  1689     0AA8  00E1               	movwf	??_main+2
  1690     0AA9  3000               	movlw	0
  1691     0AAA  00E2               	movwf	??_main+3
  1692     0AAB  085F               	movf	??_main,w
  1693     0AAC  1683               	bsf	3,5	;RP0=1, select bank1
  1694     0AAD  1303               	bcf	3,6	;RP1=0, select bank1
  1695     0AAE  02CA               	subwf	main@delay^(0+128),f
  1696     0AAF  1283               	bcf	3,5	;RP0=0, select bank0
  1697     0AB0  1303               	bcf	3,6	;RP1=0, select bank0
  1698     0AB1  0860               	movf	??_main+1,w
  1699     0AB2  1C03               	skipc
  1700     0AB3  0F60               	incfsz	??_main+1,w
  1701     0AB4  2AB6               	goto	u5645
  1702     0AB5  2AB9               	goto	u5646
  1703     0AB6                     u5645:
  1704     0AB6  1683               	bsf	3,5	;RP0=1, select bank1
  1705     0AB7  1303               	bcf	3,6	;RP1=0, select bank1
  1706     0AB8  02CB               	subwf	(main@delay+1)^(0+128),f
  1707     0AB9                     u5646:
  1708     0AB9  1283               	bcf	3,5	;RP0=0, select bank0
  1709     0ABA  1303               	bcf	3,6	;RP1=0, select bank0
  1710     0ABB  0861               	movf	??_main+2,w
  1711     0ABC  1C03               	skipc
  1712     0ABD  0F61               	incfsz	??_main+2,w
  1713     0ABE  2AC0               	goto	u5647
  1714     0ABF  2AC3               	goto	u5648
  1715     0AC0                     u5647:
  1716     0AC0  1683               	bsf	3,5	;RP0=1, select bank1
  1717     0AC1  1303               	bcf	3,6	;RP1=0, select bank1
  1718     0AC2  02CC               	subwf	(main@delay+2)^(0+128),f
  1719     0AC3                     u5648:
  1720     0AC3  1283               	bcf	3,5	;RP0=0, select bank0
  1721     0AC4  1303               	bcf	3,6	;RP1=0, select bank0
  1722     0AC5  0862               	movf	??_main+3,w
  1723     0AC6  1C03               	skipc
  1724     0AC7  0F62               	incfsz	??_main+3,w
  1725     0AC8  2ACA               	goto	u5649
  1726     0AC9  2ACD               	goto	u5640
  1727     0ACA                     u5649:
  1728     0ACA  1683               	bsf	3,5	;RP0=1, select bank1
  1729     0ACB  1303               	bcf	3,6	;RP1=0, select bank1
  1730     0ACC  02CD               	subwf	(main@delay+3)^(0+128),f
  1731     0ACD                     u5640:
  1732     0ACD  1283               	bcf	3,5	;RP0=0, select bank0
  1733     0ACE  1303               	bcf	3,6	;RP1=0, select bank0
  1734     0ACF  1683               	bsf	3,5	;RP0=1, select bank1
  1735     0AD0  1303               	bcf	3,6	;RP1=0, select bank1
  1736     0AD1  0A4A               	incf	main@delay^(0+128),w
  1737     0AD2  1D03               	skipz
  1738     0AD3  2ADE               	goto	u5651
  1739     0AD4  0A4B               	incf	(main@delay+1)^(0+128),w
  1740     0AD5  1D03               	skipz
  1741     0AD6  2ADE               	goto	u5651
  1742     0AD7  0A4C               	incf	(main@delay+2)^(0+128),w
  1743     0AD8  1D03               	skipz
  1744     0AD9  2ADE               	goto	u5651
  1745     0ADA  0A4D               	incf	(main@delay+3)^(0+128),w
  1746     0ADB  1D03               	btfss	3,2
  1747     0ADC  2ADE               	goto	u5651
  1748     0ADD  2ADF               	goto	u5650
  1749     0ADE                     u5651:
  1750     0ADE  2AA1               	goto	l5369
  1751     0ADF                     u5650:
  1752     0ADF                     l5371:
  1753                           
  1754                           ;main.c: 31:        for(unsigned int delay=10000;delay--;);
  1755     0ADF  3001               	movlw	1
  1756     0AE0  160A  118A  2515  120A  158A  	fcall	_read_digital_keypad
  1757     0AE5  3A2F               	xorlw	47
  1758     0AE6  1D03               	skipz
  1759     0AE7  2AE9               	goto	u5661
  1760     0AE8  2AEA               	goto	u5660
  1761     0AE9                     u5661:
  1762     0AE9  2A97               	goto	l5367
  1763     0AEA                     u5660:
  1764     0AEA                     l5373:
  1765                           
  1766                           ;main.c: 35: 
  1767     0AEA  160A  118A  23B0  120A  158A  	fcall	_clear_screen
  1768     0AEF                     l5375:
  1769                           
  1770                           ;main.c: 36:            operational_mode = 0x02;
  1771     0AEF  160A  118A  26EF  120A  158A  	fcall	_power_on_screen
  1772     0AF4                     l5377:
  1773                           
  1774                           ;main.c: 38:        };main.c: 39:        else if(key==0x99 && operational_mode==0x02)
  1775     0AF4  3001               	movlw	1
  1776     0AF5  160A  118A  2515  120A  158A  	fcall	_read_digital_keypad
  1777     0AFA  1683               	bsf	3,5	;RP0=1, select bank1
  1778     0AFB  1303               	bcf	3,6	;RP1=0, select bank1
  1779     0AFC  00D0               	movwf	main@key^(0+128)
  1780     0AFD                     l5379:
  1781                           
  1782                           ;main.c: 41:            operational_mode = 0x03;
  1783     0AFD  3010               	movlw	16
  1784     0AFE  00CE               	movwf	main@delay_93^(0+128)
  1785     0AFF  3027               	movlw	39
  1786     0B00  00CF               	movwf	(main@delay_93^(0+128)+1)
  1787     0B01                     l5381:
  1788     0B01  3001               	movlw	1
  1789     0B02  02CE               	subwf	main@delay_93^(0+128),f
  1790     0B03  3000               	movlw	0
  1791     0B04  1C03               	skipc
  1792     0B05  03CF               	decf	(main@delay_93+1)^(0+128),f
  1793     0B06  02CF               	subwf	(main@delay_93+1)^(0+128),f
  1794     0B07  0A4E               	incf	main@delay_93^(0+128),w
  1795     0B08  1D03               	skipz
  1796     0B09  2B0E               	goto	u5671
  1797     0B0A  0A4F               	incf	(main@delay_93+1)^(0+128),w
  1798     0B0B  1D03               	btfss	3,2
  1799     0B0C  2B0E               	goto	u5671
  1800     0B0D  2B0F               	goto	u5670
  1801     0B0E                     u5671:
  1802     0B0E  2B01               	goto	l5381
  1803     0B0F                     u5670:
  1804     0B0F                     l5383:
  1805                           
  1806                           ;main.c: 43:            clcd_print("Press Switch",(0x80 + 0));
  1807     0B0F  3099               	movlw	153
  1808     0B10  0650               	xorwf	main@key^(0+128),w
  1809     0B11  1D03               	btfss	3,2
  1810     0B12  2B14               	goto	u5681
  1811     0B13  2B15               	goto	u5680
  1812     0B14                     u5681:
  1813     0B14  2B21               	goto	l5389
  1814     0B15                     u5680:
  1815     0B15                     l5385:
  1816     0B15  1283               	bcf	3,5	;RP0=0, select bank0
  1817     0B16  1303               	bcf	3,6	;RP1=0, select bank0
  1818     0B17  036C               	decf	_operational_mode,w
  1819     0B18  1D03               	btfss	3,2
  1820     0B19  2B1B               	goto	u5691
  1821     0B1A  2B1C               	goto	u5690
  1822     0B1B                     u5691:
  1823     0B1B  2B21               	goto	l5389
  1824     0B1C                     u5690:
  1825     0B1C                     l5387:
  1826                           
  1827                           ;main.c: 44:            clcd_print("SW5 : START",(0xC0 + 0));;main.c: 46:            set
      +                          _time();
  1828     0B1C  3002               	movlw	2
  1829     0B1D  00EC               	movwf	_operational_mode
  1830                           
  1831                           ;main.c: 47:        }
  1832     0B1E  3022               	movlw	34
  1833     0B1F  00EB               	movwf	_reset_flag
  1834                           
  1835                           ;main.c: 48:        else if(key==0x2F&&operational_mode==0x44)
  1836     0B20  2BB2               	goto	l5433
  1837     0B21                     l5389:
  1838     0B21  3099               	movlw	153
  1839     0B22  1683               	bsf	3,5	;RP0=1, select bank1
  1840     0B23  1303               	bcf	3,6	;RP1=0, select bank1
  1841     0B24  0650               	xorwf	main@key^(0+128),w
  1842     0B25  1D03               	btfss	3,2
  1843     0B26  2B28               	goto	u5701
  1844     0B27  2B29               	goto	u5700
  1845     0B28                     u5701:
  1846     0B28  2B65               	goto	l5405
  1847     0B29                     u5700:
  1848     0B29                     l5391:
  1849     0B29  3002               	movlw	2
  1850     0B2A  1283               	bcf	3,5	;RP0=0, select bank0
  1851     0B2B  1303               	bcf	3,6	;RP1=0, select bank0
  1852     0B2C  066C               	xorwf	_operational_mode,w
  1853     0B2D  1D03               	btfss	3,2
  1854     0B2E  2B30               	goto	u5711
  1855     0B2F  2B31               	goto	u5710
  1856     0B30                     u5711:
  1857     0B30  2B65               	goto	l5405
  1858     0B31                     u5710:
  1859     0B31                     l5393:
  1860                           
  1861                           ;main.c: 50:            operational_mode=0x04;;main.c: 51:            TMR2ON=1;
  1862     0B31  3003               	movlw	3
  1863     0B32  00EC               	movwf	_operational_mode
  1864     0B33                     l5395:
  1865                           
  1866                           ;main.c: 52:            RC2=1;
  1867     0B33  160A  118A  23B0  120A  158A  	fcall	_clear_screen
  1868     0B38                     l5397:
  1869                           
  1870                           ;main.c: 53:        }
  1871     0B38  307D               	movlw	low (STR_4| (0+32768))
  1872     0B39  1283               	bcf	3,5	;RP0=0, select bank0
  1873     0B3A  1303               	bcf	3,6	;RP1=0, select bank0
  1874     0B3B  00A0               	movwf	clcd_print@str
  1875     0B3C  3090               	movlw	high (STR_4| (0+32768))
  1876     0B3D  00A1               	movwf	clcd_print@str+1
  1877     0B3E  3080               	movlw	128
  1878     0B3F  00A2               	movwf	clcd_print@addr
  1879     0B40  160A  118A  24A4  120A  158A  	fcall	_clcd_print
  1880     0B45                     l5399:
  1881                           
  1882                           ;main.c: 54: 
  1883     0B45  30A2               	movlw	low (STR_5| (0+32768))
  1884     0B46  1283               	bcf	3,5	;RP0=0, select bank0
  1885     0B47  1303               	bcf	3,6	;RP1=0, select bank0
  1886     0B48  00A0               	movwf	clcd_print@str
  1887     0B49  3090               	movlw	high (STR_5| (0+32768))
  1888     0B4A  00A1               	movwf	clcd_print@str+1
  1889     0B4B  30C0               	movlw	192
  1890     0B4C  00A2               	movwf	clcd_print@addr
  1891     0B4D  160A  118A  24A4  120A  158A  	fcall	_clcd_print
  1892     0B52                     l5401:
  1893                           
  1894                           ;main.c: 55:        switch(operational_mode)
  1895     0B52  30E5               	movlw	low (STR_6| (0+32768))
  1896     0B53  1283               	bcf	3,5	;RP0=0, select bank0
  1897     0B54  1303               	bcf	3,6	;RP1=0, select bank0
  1898     0B55  00A0               	movwf	clcd_print@str
  1899     0B56  3090               	movlw	high (STR_6| (0+32768))
  1900     0B57  00A1               	movwf	clcd_print@str+1
  1901     0B58  3090               	movlw	144
  1902     0B59  00A2               	movwf	clcd_print@addr
  1903     0B5A  160A  118A  24A4  120A  158A  	fcall	_clcd_print
  1904     0B5F                     l5403:
  1905                           
  1906                           ;main.c: 56:        {
  1907     0B5F  120A  158A  23CE  120A  158A  	fcall	_set_time
  1908                           
  1909                           ;main.c: 57:            case 0x01 :
  1910     0B64  2BB2               	goto	l5433
  1911     0B65                     l5405:
  1912     0B65  302F               	movlw	47
  1913     0B66  1683               	bsf	3,5	;RP0=1, select bank1
  1914     0B67  1303               	bcf	3,6	;RP1=0, select bank1
  1915     0B68  0650               	xorwf	main@key^(0+128),w
  1916     0B69  1D03               	btfss	3,2
  1917     0B6A  2B6C               	goto	u5721
  1918     0B6B  2B6D               	goto	u5720
  1919     0B6C                     u5721:
  1920     0B6C  2B7A               	goto	l59
  1921     0B6D                     u5720:
  1922     0B6D                     l5407:
  1923     0B6D  3044               	movlw	68
  1924     0B6E  1283               	bcf	3,5	;RP0=0, select bank0
  1925     0B6F  1303               	bcf	3,6	;RP1=0, select bank0
  1926     0B70  066C               	xorwf	_operational_mode,w
  1927     0B71  1D03               	btfss	3,2
  1928     0B72  2B74               	goto	u5731
  1929     0B73  2B75               	goto	u5730
  1930     0B74                     u5731:
  1931     0B74  2B7A               	goto	l59
  1932     0B75                     u5730:
  1933     0B75                     l5409:
  1934                           
  1935                           ;main.c: 59:                break;;main.c: 60: 
  1936     0B75  3004               	movlw	4
  1937     0B76  00EC               	movwf	_operational_mode
  1938     0B77                     l5411:
  1939                           
  1940                           ;main.c: 61:            case 0x02 :
  1941     0B77  1512               	bsf	18,2	;volatile
  1942     0B78                     l5413:
  1943                           
  1944                           ;main.c: 62:                water_level_screen(key);
  1945     0B78  1507               	bsf	7,2	;volatile
  1946     0B79  2BB2               	goto	l5433
  1947     0B7A                     l59:
  1948                           
  1949                           ;main.c: 65:            case 0x03 :
  1950     0B7A  2BB2               	goto	l5433
  1951     0B7B                     l5415:
  1952                           
  1953                           ;main.c: 68:                    operational_mode=0x04;
  1954     0B7B  1683               	bsf	3,5	;RP0=1, select bank1
  1955     0B7C  1303               	bcf	3,6	;RP1=0, select bank1
  1956     0B7D  0850               	movf	main@key^(0+128),w
  1957     0B7E  120A  158A  2161  120A  158A  	fcall	_washing_program_display
  1958                           
  1959                           ;main.c: 69:                    reset_flag=0x33;
  1960     0B83  2AF4               	goto	l5377
  1961     0B84                     l5417:
  1962                           
  1963                           ;main.c: 72:                {
  1964     0B84  1683               	bsf	3,5	;RP0=1, select bank1
  1965     0B85  1303               	bcf	3,6	;RP1=0, select bank1
  1966     0B86  0850               	movf	main@key^(0+128),w
  1967     0B87  160A  118A  2763  120A  158A  	fcall	_water_level_screen
  1968                           
  1969                           ;main.c: 73:                    operational_mode=0x01;
  1970     0B8C  2AF4               	goto	l5377
  1971     0B8D                     l5419:
  1972                           
  1973                           ;main.c: 76:                break;
  1974     0B8D  302F               	movlw	47
  1975     0B8E  1683               	bsf	3,5	;RP0=1, select bank1
  1976     0B8F  1303               	bcf	3,6	;RP1=0, select bank1
  1977     0B90  0650               	xorwf	main@key^(0+128),w
  1978     0B91  1D03               	btfss	3,2
  1979     0B92  2B94               	goto	u5741
  1980     0B93  2B95               	goto	u5740
  1981     0B94                     u5741:
  1982     0B94  2B9C               	goto	l5423
  1983     0B95                     u5740:
  1984     0B95                     l5421:
  1985                           
  1986                           ;main.c: 77:            case 0x04:;main.c: 78:                run_program(key);
  1987     0B95  3004               	movlw	4
  1988     0B96  1283               	bcf	3,5	;RP0=0, select bank0
  1989     0B97  1303               	bcf	3,6	;RP1=0, select bank0
  1990     0B98  00EC               	movwf	_operational_mode
  1991                           
  1992                           ;main.c: 79:                break;
  1993     0B99  3033               	movlw	51
  1994     0B9A  00EB               	movwf	_reset_flag
  1995                           
  1996                           ;main.c: 80:     }
  1997     0B9B  2AF4               	goto	l5377
  1998     0B9C                     l5423:
  1999     0B9C  301F               	movlw	31
  2000     0B9D  0650               	xorwf	main@key^(0+128),w
  2001     0B9E  1D03               	btfss	3,2
  2002     0B9F  2BA1               	goto	u5751
  2003     0BA0  2BA2               	goto	u5750
  2004     0BA1                     u5751:
  2005     0BA1  2BCA               	goto	l65
  2006     0BA2                     u5750:
  2007     0BA2                     l5425:
  2008                           
  2009                           ;main.c: 82:     return;;main.c: 83: }
  2010     0BA2  1283               	bcf	3,5	;RP0=0, select bank0
  2011     0BA3  1303               	bcf	3,6	;RP1=0, select bank0
  2012     0BA4  01EC               	clrf	_operational_mode
  2013     0BA5  0AEC               	incf	_operational_mode,f
  2014     0BA6                     l5427:
  2015     0BA6  3011               	movlw	17
  2016     0BA7  00EB               	movwf	_reset_flag
  2017     0BA8  2AF4               	goto	l5377
  2018     0BA9                     l5429:
  2019     0BA9  1683               	bsf	3,5	;RP0=1, select bank1
  2020     0BAA  1303               	bcf	3,6	;RP1=0, select bank1
  2021     0BAB  0850               	movf	main@key^(0+128),w
  2022     0BAC  120A  118A  2049  120A  158A  	fcall	_run_program
  2023     0BB1  2AF4               	goto	l5377
  2024     0BB2                     l5433:
  2025     0BB2  1283               	bcf	3,5	;RP0=0, select bank0
  2026     0BB3  1303               	bcf	3,6	;RP1=0, select bank0
  2027     0BB4  086C               	movf	_operational_mode,w
  2028     0BB5  00DF               	movwf	??_main
  2029     0BB6  01E0               	clrf	??_main+1
  2030                           
  2031                           ; Switch on 2 bytes has been partitioned into a top level switch of size 1, and 1 sub-sw
      +                          itches
  2032                           ; Switch size 1, requested type "simple"
  2033                           ; Number of cases is 1, Range of values is 0 to 0
  2034                           ; switch strategies available:
  2035                           ; Name         Instructions Cycles
  2036                           ; simple_byte            4     3 (average)
  2037                           ; direct_byte           11     8 (fixed)
  2038                           ; jumptable            260     6 (fixed)
  2039                           ;	Chosen strategy is simple_byte
  2040     0BB7  0860               	movf	??_main+1,w
  2041     0BB8  3A00               	xorlw	0	; case 0
  2042     0BB9  1903               	skipnz
  2043     0BBA  2BBC               	goto	l5719
  2044     0BBB  2AF4               	goto	l5377
  2045     0BBC                     l5719:
  2046                           
  2047                           ; Switch size 1, requested type "simple"
  2048                           ; Number of cases is 4, Range of values is 1 to 4
  2049                           ; switch strategies available:
  2050                           ; Name         Instructions Cycles
  2051                           ; simple_byte           13     7 (average)
  2052                           ; direct_byte           23    11 (fixed)
  2053                           ; jumptable            263     9 (fixed)
  2054                           ;	Chosen strategy is simple_byte
  2055     0BBC  085F               	movf	??_main,w
  2056     0BBD  3A01               	xorlw	1	; case 1
  2057     0BBE  1903               	skipnz
  2058     0BBF  2B7B               	goto	l5415
  2059     0BC0  3A03               	xorlw	3	; case 2
  2060     0BC1  1903               	skipnz
  2061     0BC2  2B84               	goto	l5417
  2062     0BC3  3A01               	xorlw	1	; case 3
  2063     0BC4  1903               	skipnz
  2064     0BC5  2B8D               	goto	l5419
  2065     0BC6  3A07               	xorlw	7	; case 4
  2066     0BC7  1903               	skipnz
  2067     0BC8  2BA9               	goto	l5429
  2068     0BC9  2AF4               	goto	l5377
  2069     0BCA                     l65:
  2070     0BCA  2AF4               	goto	l5377
  2071     0BCB  120A  118A  280C   	ljmp	start
  2072     0BCE                     __end_of_main:
  2073                           
  2074                           	psect	text1
  2075     1763                     __ptext1:	
  2076 ;; *************** function _water_level_screen *****************
  2077 ;; Defined at:
  2078 ;;		line 66 in file "washing_machine_function_def.c"
  2079 ;; Parameters:    Size  Location     Type
  2080 ;;  key             1    wreg     unsigned char 
  2081 ;; Auto vars:     Size  Location     Type
  2082 ;;  key             1    7[BANK0 ] unsigned char 
  2083 ;; Return value:  Size  Location     Type
  2084 ;;                  1    wreg      void 
  2085 ;; Registers used:
  2086 ;;		wreg, fsr0l, fsr0h, status,2, status,0, btemp+1, pclath, cstack
  2087 ;; Tracked objects:
  2088 ;;		On entry : 0/0
  2089 ;;		On exit  : 0/0
  2090 ;;		Unchanged: 0/0
  2091 ;; Data sizes:     COMMON   BANK0   BANK1   BANK3   BANK2
  2092 ;;      Params:         0       0       0       0       0
  2093 ;;      Locals:         0       1       0       0       0
  2094 ;;      Temps:          0       2       0       0       0
  2095 ;;      Totals:         0       3       0       0       0
  2096 ;;Total ram usage:        3 bytes
  2097 ;; Hardware stack levels used: 1
  2098 ;; Hardware stack levels required when called: 3
  2099 ;; This function calls:
  2100 ;;		___awmod
  2101 ;;		_clcd_print
  2102 ;;		_clcd_putch
  2103 ;;		_clear_screen
  2104 ;; This function is called by:
  2105 ;;		_main
  2106 ;; This function uses a non-reentrant model
  2107 ;;
  2108                           
  2109     1763                     _water_level_screen:	
  2110                           ;psect for function _water_level_screen
  2111                           
  2112                           
  2113                           ;incstack = 0
  2114                           ; Regs used in _water_level_screen: [wreg-fsr0h+status,2+status,0+btemp+1+pclath+cstack]
  2115                           ;water_level_screen@key stored from wreg
  2116     1763  1283               	bcf	3,5	;RP0=0, select bank0
  2117     1764  1303               	bcf	3,6	;RP1=0, select bank0
  2118     1765  00A7               	movwf	water_level_screen@key
  2119     1766                     l4705:
  2120                           
  2121                           ;washing_machine_function_def.c: 66: void water_level_screen(unsigned char key);washing_
      +                          machine_function_def.c: 67: {;washing_machine_function_def.c: 68:     if(reset_flag==0x2
      +                          2)
  2122     1766  3022               	movlw	34
  2123     1767  066B               	xorwf	_reset_flag,w
  2124     1768  1D03               	btfss	3,2
  2125     1769  2F6B               	goto	u5191
  2126     176A  2F6C               	goto	u5190
  2127     176B                     u5191:
  2128     176B  2F75               	goto	l4711
  2129     176C                     u5190:
  2130     176C                     l4707:
  2131                           
  2132                           ;washing_machine_function_def.c: 69:     {;washing_machine_function_def.c: 70:         c
      +                          lear_screen();
  2133     176C  160A  118A  23B0  160A  118A  	fcall	_clear_screen
  2134     1771                     l4709:
  2135                           
  2136                           ;washing_machine_function_def.c: 71:         reset_flag=0xFF;
  2137     1771  30FF               	movlw	255
  2138     1772  1283               	bcf	3,5	;RP0=0, select bank0
  2139     1773  1303               	bcf	3,6	;RP1=0, select bank0
  2140     1774  00EB               	movwf	_reset_flag
  2141     1775                     l4711:
  2142                           
  2143                           ;washing_machine_function_def.c: 73:     if(key==0x37)
  2144     1775  3037               	movlw	55
  2145     1776  0627               	xorwf	water_level_screen@key,w
  2146     1777  1D03               	btfss	3,2
  2147     1778  2F7A               	goto	u5201
  2148     1779  2F7B               	goto	u5200
  2149     177A                     u5201:
  2150     177A  2F8B               	goto	l4721
  2151     177B                     u5200:
  2152     177B                     l4713:
  2153                           
  2154                           ;washing_machine_function_def.c: 74:     {;washing_machine_function_def.c: 75:         c
      +                          lear_screen();
  2155     177B  160A  118A  23B0  160A  118A  	fcall	_clear_screen
  2156     1780                     l4715:
  2157                           
  2158                           ;washing_machine_function_def.c: 76:         level++;
  2159     1780  3001               	movlw	1
  2160     1781  00FF               	movwf	btemp+1
  2161     1782  087F               	movf	btemp+1,w
  2162     1783  07F9               	addwf	_level,f
  2163     1784                     l4717:
  2164                           
  2165                           ;washing_machine_function_def.c: 77:         if(level==5)
  2166     1784  3005               	movlw	5
  2167     1785  0679               	xorwf	_level,w
  2168     1786  1D03               	btfss	3,2
  2169     1787  2F89               	goto	u5211
  2170     1788  2F8A               	goto	u5210
  2171     1789                     u5211:
  2172     1789  2F8B               	goto	l4721
  2173     178A                     u5210:
  2174     178A                     l4719:
  2175                           
  2176                           ;washing_machine_function_def.c: 78:         {;washing_machine_function_def.c: 79:      
      +                                 level=0;
  2177     178A  01F9               	clrf	_level
  2178     178B                     l4721:
  2179                           
  2180                           ;washing_machine_function_def.c: 83:     clcd_print("Water Level :",(0x80 + 0));
  2181     178B  306F               	movlw	low (STR_27| (0+32768))
  2182     178C  1283               	bcf	3,5	;RP0=0, select bank0
  2183     178D  1303               	bcf	3,6	;RP1=0, select bank0
  2184     178E  00A0               	movwf	clcd_print@str
  2185     178F  3090               	movlw	high (STR_27| (0+32768))
  2186     1790  00A1               	movwf	clcd_print@str+1
  2187     1791  3080               	movlw	128
  2188     1792  00A2               	movwf	clcd_print@addr
  2189     1793  160A  118A  24A4  160A  118A  	fcall	_clcd_print
  2190     1798                     l4723:
  2191                           
  2192                           ;washing_machine_function_def.c: 84:     clcd_putch('*',(0xC0 + 0));
  2193     1798  30C0               	movlw	192
  2194     1799  00F8               	movwf	clcd_putch@addr
  2195     179A  302A               	movlw	42
  2196     179B  160A  118A  23C1  160A  118A  	fcall	_clcd_putch
  2197     17A0                     l4725:
  2198                           
  2199                           ;washing_machine_function_def.c: 85:     clcd_print(water_level[level],(0xC0 + 2));
  2200     17A0  0879               	movf	_level,w
  2201     17A1  1283               	bcf	3,5	;RP0=0, select bank0
  2202     17A2  1303               	bcf	3,6	;RP1=0, select bank0
  2203     17A3  00A5               	movwf	??_water_level_screen
  2204     17A4  0725               	addwf	??_water_level_screen,w
  2205     17A5  3EB8               	addlw	(low (_water_level| 0))& (0+255)
  2206     17A6  0084               	movwf	4
  2207     17A7  1383               	bcf	3,7	;select IRP bank1
  2208     17A8  0800               	movf	0,w
  2209     17A9  00A0               	movwf	clcd_print@str
  2210     17AA  0A84               	incf	4,f
  2211     17AB  0800               	movf	0,w
  2212     17AC  0384               	decf	4,f
  2213     17AD  00A1               	movwf	clcd_print@str+1
  2214     17AE  30C2               	movlw	194
  2215     17AF  00A2               	movwf	clcd_print@addr
  2216     17B0  160A  118A  24A4  160A  118A  	fcall	_clcd_print
  2217     17B5                     l4727:
  2218                           
  2219                           ;washing_machine_function_def.c: 86:     clcd_print(water_level[(level+1)%5],(0x90+2));
  2220     17B5  3005               	movlw	5
  2221     17B6  00F2               	movwf	___awmod@divisor
  2222     17B7  3000               	movlw	0
  2223     17B8  00F3               	movwf	___awmod@divisor+1
  2224     17B9  0879               	movf	_level,w
  2225     17BA  3E01               	addlw	1
  2226     17BB  00F4               	movwf	___awmod@dividend
  2227     17BC  3000               	movlw	0
  2228     17BD  1803               	skipnc
  2229     17BE  3001               	movlw	1
  2230     17BF  00F5               	movwf	___awmod@dividend+1
  2231     17C0  160A  118A  25C2  160A  118A  	fcall	___awmod
  2232     17C5  0872               	movf	?___awmod,w
  2233     17C6  1283               	bcf	3,5	;RP0=0, select bank0
  2234     17C7  1303               	bcf	3,6	;RP1=0, select bank0
  2235     17C8  00A5               	movwf	??_water_level_screen
  2236     17C9  0725               	addwf	??_water_level_screen,w
  2237     17CA  3EB8               	addlw	(low (_water_level| 0))& (0+255)
  2238     17CB  0084               	movwf	4
  2239     17CC  1383               	bcf	3,7	;select IRP bank1
  2240     17CD  0800               	movf	0,w
  2241     17CE  00A0               	movwf	clcd_print@str
  2242     17CF  0A84               	incf	4,f
  2243     17D0  0800               	movf	0,w
  2244     17D1  0384               	decf	4,f
  2245     17D2  00A1               	movwf	clcd_print@str+1
  2246     17D3  3092               	movlw	146
  2247     17D4  00A2               	movwf	clcd_print@addr
  2248     17D5  160A  118A  24A4  160A  118A  	fcall	_clcd_print
  2249     17DA                     l4729:
  2250                           
  2251                           ;washing_machine_function_def.c: 87:     clcd_print(water_level[(level+2)%5],(0xD0+2));
  2252     17DA  3005               	movlw	5
  2253     17DB  00F2               	movwf	___awmod@divisor
  2254     17DC  3000               	movlw	0
  2255     17DD  00F3               	movwf	___awmod@divisor+1
  2256     17DE  0879               	movf	_level,w
  2257     17DF  3E02               	addlw	2
  2258     17E0  00F4               	movwf	___awmod@dividend
  2259     17E1  3000               	movlw	0
  2260     17E2  1803               	skipnc
  2261     17E3  3001               	movlw	1
  2262     17E4  00F5               	movwf	___awmod@dividend+1
  2263     17E5  160A  118A  25C2  160A  118A  	fcall	___awmod
  2264     17EA  0872               	movf	?___awmod,w
  2265     17EB  1283               	bcf	3,5	;RP0=0, select bank0
  2266     17EC  1303               	bcf	3,6	;RP1=0, select bank0
  2267     17ED  00A5               	movwf	??_water_level_screen
  2268     17EE  0725               	addwf	??_water_level_screen,w
  2269     17EF  3EB8               	addlw	(low (_water_level| 0))& (0+255)
  2270     17F0  0084               	movwf	4
  2271     17F1  1383               	bcf	3,7	;select IRP bank1
  2272     17F2  0800               	movf	0,w
  2273     17F3  00A0               	movwf	clcd_print@str
  2274     17F4  0A84               	incf	4,f
  2275     17F5  0800               	movf	0,w
  2276     17F6  0384               	decf	4,f
  2277     17F7  00A1               	movwf	clcd_print@str+1
  2278     17F8  30D2               	movlw	210
  2279     17F9  00A2               	movwf	clcd_print@addr
  2280     17FA  160A  118A  24A4  160A  118A  	fcall	_clcd_print
  2281     17FF                     l247:
  2282     17FF  0008               	return
  2283     1800                     __end_of_water_level_screen:
  2284                           
  2285                           	psect	text2
  2286     0961                     __ptext2:	
  2287 ;; *************** function _washing_program_display *****************
  2288 ;; Defined at:
  2289 ;;		line 38 in file "washing_machine_function_def.c"
  2290 ;; Parameters:    Size  Location     Type
  2291 ;;  key             1    wreg     unsigned char 
  2292 ;; Auto vars:     Size  Location     Type
  2293 ;;  key             1    7[BANK0 ] unsigned char 
  2294 ;; Return value:  Size  Location     Type
  2295 ;;                  1    wreg      void 
  2296 ;; Registers used:
  2297 ;;		wreg, fsr0l, fsr0h, status,2, status,0, btemp+1, pclath, cstack
  2298 ;; Tracked objects:
  2299 ;;		On entry : 0/0
  2300 ;;		On exit  : 0/0
  2301 ;;		Unchanged: 0/0
  2302 ;; Data sizes:     COMMON   BANK0   BANK1   BANK3   BANK2
  2303 ;;      Params:         0       0       0       0       0
  2304 ;;      Locals:         0       1       0       0       0
  2305 ;;      Temps:          0       2       0       0       0
  2306 ;;      Totals:         0       3       0       0       0
  2307 ;;Total ram usage:        3 bytes
  2308 ;; Hardware stack levels used: 1
  2309 ;; Hardware stack levels required when called: 3
  2310 ;; This function calls:
  2311 ;;		_clcd_print
  2312 ;;		_clcd_putch
  2313 ;;		_clear_screen
  2314 ;; This function is called by:
  2315 ;;		_main
  2316 ;; This function uses a non-reentrant model
  2317 ;;
  2318                           
  2319     0961                     _washing_program_display:	
  2320                           ;psect for function _washing_program_display
  2321                           
  2322                           
  2323                           ;incstack = 0
  2324                           ; Regs used in _washing_program_display: [wreg-fsr0h+status,2+status,0+btemp+1+pclath+cs
      +                          tack]
  2325                           ;washing_program_display@key stored from wreg
  2326     0961  1283               	bcf	3,5	;RP0=0, select bank0
  2327     0962  1303               	bcf	3,6	;RP1=0, select bank0
  2328     0963  00A7               	movwf	washing_program_display@key
  2329     0964                     l4673:
  2330                           
  2331                           ;washing_machine_function_def.c: 39:     if (reset_flag == 0x11) {
  2332     0964  3011               	movlw	17
  2333     0965  066B               	xorwf	_reset_flag,w
  2334     0966  1D03               	btfss	3,2
  2335     0967  2969               	goto	u5131
  2336     0968  296A               	goto	u5130
  2337     0969                     u5131:
  2338     0969  2973               	goto	l4679
  2339     096A                     u5130:
  2340     096A                     l4675:
  2341                           
  2342                           ;washing_machine_function_def.c: 40:         clear_screen();
  2343     096A  160A  118A  23B0  120A  158A  	fcall	_clear_screen
  2344     096F                     l4677:
  2345                           
  2346                           ;washing_machine_function_def.c: 41:         reset_flag = 0xFF;
  2347     096F  30FF               	movlw	255
  2348     0970  1283               	bcf	3,5	;RP0=0, select bank0
  2349     0971  1303               	bcf	3,6	;RP1=0, select bank0
  2350     0972  00EB               	movwf	_reset_flag
  2351     0973                     l4679:
  2352                           
  2353                           ;washing_machine_function_def.c: 43:     if (key == 0x37) {
  2354     0973  3037               	movlw	55
  2355     0974  0627               	xorwf	washing_program_display@key,w
  2356     0975  1D03               	btfss	3,2
  2357     0976  2978               	goto	u5141
  2358     0977  2979               	goto	u5140
  2359     0978                     u5141:
  2360     0978  2989               	goto	l4689
  2361     0979                     u5140:
  2362     0979                     l4681:
  2363                           
  2364                           ;washing_machine_function_def.c: 44:         clear_screen();
  2365     0979  160A  118A  23B0  120A  158A  	fcall	_clear_screen
  2366     097E                     l4683:
  2367                           
  2368                           ;washing_machine_function_def.c: 45:         program_no++;
  2369     097E  3001               	movlw	1
  2370     097F  00FF               	movwf	btemp+1
  2371     0980  087F               	movf	btemp+1,w
  2372     0981  07FA               	addwf	_program_no,f
  2373     0982                     l4685:
  2374                           
  2375                           ;washing_machine_function_def.c: 46:         if (program_no == 12) {
  2376     0982  300C               	movlw	12
  2377     0983  067A               	xorwf	_program_no,w
  2378     0984  1D03               	btfss	3,2
  2379     0985  2987               	goto	u5151
  2380     0986  2988               	goto	u5150
  2381     0987                     u5151:
  2382     0987  2989               	goto	l4689
  2383     0988                     u5150:
  2384     0988                     l4687:
  2385                           
  2386                           ;washing_machine_function_def.c: 47:             program_no = 0;
  2387     0988  01FA               	clrf	_program_no
  2388     0989                     l4689:
  2389                           
  2390                           ;washing_machine_function_def.c: 50:     clcd_print("Washing Program", (0x80 + 0));
  2391     0989  3031               	movlw	low (STR_26| (0+32768))
  2392     098A  1283               	bcf	3,5	;RP0=0, select bank0
  2393     098B  1303               	bcf	3,6	;RP1=0, select bank0
  2394     098C  00A0               	movwf	clcd_print@str
  2395     098D  3090               	movlw	high (STR_26| (0+32768))
  2396     098E  00A1               	movwf	clcd_print@str+1
  2397     098F  3080               	movlw	128
  2398     0990  00A2               	movwf	clcd_print@addr
  2399     0991  160A  118A  24A4  120A  158A  	fcall	_clcd_print
  2400     0996                     l4691:
  2401                           
  2402                           ;washing_machine_function_def.c: 51:     clcd_putch('*', (0xC0 + 0));
  2403     0996  30C0               	movlw	192
  2404     0997  00F8               	movwf	clcd_putch@addr
  2405     0998  302A               	movlw	42
  2406     0999  160A  118A  23C1  120A  158A  	fcall	_clcd_putch
  2407     099E                     l4693:
  2408                           
  2409                           ;washing_machine_function_def.c: 52:     if (program_no <= 9) {
  2410     099E  300A               	movlw	10
  2411     099F  027A               	subwf	_program_no,w
  2412     09A0  1803               	skipnc
  2413     09A1  29A3               	goto	u5161
  2414     09A2  29A4               	goto	u5160
  2415     09A3                     u5161:
  2416     09A3  29E4               	goto	l4697
  2417     09A4                     u5160:
  2418     09A4                     l4695:
  2419                           
  2420                           ;washing_machine_function_def.c: 53:         clcd_print(washing_program[program_no], (0x
      +                          C0 + 1));
  2421     09A4  087A               	movf	_program_no,w
  2422     09A5  1283               	bcf	3,5	;RP0=0, select bank0
  2423     09A6  1303               	bcf	3,6	;RP1=0, select bank0
  2424     09A7  00A5               	movwf	??_washing_program_display
  2425     09A8  0725               	addwf	??_washing_program_display,w
  2426     09A9  3EA0               	addlw	(low (_washing_program| 0))& (0+255)
  2427     09AA  0084               	movwf	4
  2428     09AB  1383               	bcf	3,7	;select IRP bank1
  2429     09AC  0800               	movf	0,w
  2430     09AD  00A0               	movwf	clcd_print@str
  2431     09AE  0A84               	incf	4,f
  2432     09AF  0800               	movf	0,w
  2433     09B0  0384               	decf	4,f
  2434     09B1  00A1               	movwf	clcd_print@str+1
  2435     09B2  30C1               	movlw	193
  2436     09B3  00A2               	movwf	clcd_print@addr
  2437     09B4  160A  118A  24A4  120A  158A  	fcall	_clcd_print
  2438                           
  2439                           ;washing_machine_function_def.c: 54:         clcd_print(washing_program[program_no + 1],
      +                           (0x90+1));
  2440     09B9  087A               	movf	_program_no,w
  2441     09BA  1283               	bcf	3,5	;RP0=0, select bank0
  2442     09BB  1303               	bcf	3,6	;RP1=0, select bank0
  2443     09BC  00A5               	movwf	??_washing_program_display
  2444     09BD  0725               	addwf	??_washing_program_display,w
  2445     09BE  3EA2               	addlw	(low ((_washing_program| 0+2)))& (0+255)
  2446     09BF  0084               	movwf	4
  2447     09C0  1383               	bcf	3,7	;select IRP bank1
  2448     09C1  0800               	movf	0,w
  2449     09C2  00A0               	movwf	clcd_print@str
  2450     09C3  0A84               	incf	4,f
  2451     09C4  0800               	movf	0,w
  2452     09C5  0384               	decf	4,f
  2453     09C6  00A1               	movwf	clcd_print@str+1
  2454     09C7  3091               	movlw	145
  2455     09C8  00A2               	movwf	clcd_print@addr
  2456     09C9  160A  118A  24A4  120A  158A  	fcall	_clcd_print
  2457                           
  2458                           ;washing_machine_function_def.c: 55:         clcd_print(washing_program[program_no + 2],
      +                           (0xD0+1));
  2459     09CE  087A               	movf	_program_no,w
  2460     09CF  1283               	bcf	3,5	;RP0=0, select bank0
  2461     09D0  1303               	bcf	3,6	;RP1=0, select bank0
  2462     09D1  00A5               	movwf	??_washing_program_display
  2463     09D2  0725               	addwf	??_washing_program_display,w
  2464     09D3  3EA4               	addlw	(low ((_washing_program| 0+4)))& (0+255)
  2465     09D4  0084               	movwf	4
  2466     09D5  1383               	bcf	3,7	;select IRP bank1
  2467     09D6  0800               	movf	0,w
  2468     09D7  00A0               	movwf	clcd_print@str
  2469     09D8  0A84               	incf	4,f
  2470     09D9  0800               	movf	0,w
  2471     09DA  0384               	decf	4,f
  2472     09DB  00A1               	movwf	clcd_print@str+1
  2473     09DC  30D1               	movlw	209
  2474     09DD  00A2               	movwf	clcd_print@addr
  2475     09DE  160A  118A  24A4  120A  158A  	fcall	_clcd_print
  2476                           
  2477                           ;washing_machine_function_def.c: 56:     } else if (program_no == 10) {
  2478     09E3  2A69               	goto	l241
  2479     09E4                     l4697:
  2480     09E4  300A               	movlw	10
  2481     09E5  067A               	xorwf	_program_no,w
  2482     09E6  1D03               	btfss	3,2
  2483     09E7  29E9               	goto	u5171
  2484     09E8  29EA               	goto	u5170
  2485     09E9                     u5171:
  2486     09E9  2A28               	goto	l4701
  2487     09EA                     u5170:
  2488     09EA                     l4699:
  2489                           
  2490                           ;washing_machine_function_def.c: 57:         clcd_print(washing_program[program_no], (0x
      +                          C0 + 1));
  2491     09EA  087A               	movf	_program_no,w
  2492     09EB  1283               	bcf	3,5	;RP0=0, select bank0
  2493     09EC  1303               	bcf	3,6	;RP1=0, select bank0
  2494     09ED  00A5               	movwf	??_washing_program_display
  2495     09EE  0725               	addwf	??_washing_program_display,w
  2496     09EF  3EA0               	addlw	(low (_washing_program| 0))& (0+255)
  2497     09F0  0084               	movwf	4
  2498     09F1  1383               	bcf	3,7	;select IRP bank1
  2499     09F2  0800               	movf	0,w
  2500     09F3  00A0               	movwf	clcd_print@str
  2501     09F4  0A84               	incf	4,f
  2502     09F5  0800               	movf	0,w
  2503     09F6  0384               	decf	4,f
  2504     09F7  00A1               	movwf	clcd_print@str+1
  2505     09F8  30C1               	movlw	193
  2506     09F9  00A2               	movwf	clcd_print@addr
  2507     09FA  160A  118A  24A4  120A  158A  	fcall	_clcd_print
  2508                           
  2509                           ;washing_machine_function_def.c: 58:         clcd_print(washing_program[program_no + 1],
      +                           (0x90+1));
  2510     09FF  087A               	movf	_program_no,w
  2511     0A00  1283               	bcf	3,5	;RP0=0, select bank0
  2512     0A01  1303               	bcf	3,6	;RP1=0, select bank0
  2513     0A02  00A5               	movwf	??_washing_program_display
  2514     0A03  0725               	addwf	??_washing_program_display,w
  2515     0A04  3EA2               	addlw	(low ((_washing_program| 0+2)))& (0+255)
  2516     0A05  0084               	movwf	4
  2517     0A06  1383               	bcf	3,7	;select IRP bank1
  2518     0A07  0800               	movf	0,w
  2519     0A08  00A0               	movwf	clcd_print@str
  2520     0A09  0A84               	incf	4,f
  2521     0A0A  0800               	movf	0,w
  2522     0A0B  0384               	decf	4,f
  2523     0A0C  00A1               	movwf	clcd_print@str+1
  2524     0A0D  3091               	movlw	145
  2525     0A0E  00A2               	movwf	clcd_print@addr
  2526     0A0F  160A  118A  24A4  120A  158A  	fcall	_clcd_print
  2527                           
  2528                           ;washing_machine_function_def.c: 59:         clcd_print(washing_program[0], (0xD0+1));
  2529     0A14  1683               	bsf	3,5	;RP0=1, select bank1
  2530     0A15  1303               	bcf	3,6	;RP1=0, select bank1
  2531     0A16  0820               	movf	_washing_program^(0+128),w
  2532     0A17  1283               	bcf	3,5	;RP0=0, select bank0
  2533     0A18  1303               	bcf	3,6	;RP1=0, select bank0
  2534     0A19  00A0               	movwf	clcd_print@str
  2535     0A1A  1683               	bsf	3,5	;RP0=1, select bank1
  2536     0A1B  1303               	bcf	3,6	;RP1=0, select bank1
  2537     0A1C  0821               	movf	(_washing_program+1)^(0+128),w
  2538     0A1D  1283               	bcf	3,5	;RP0=0, select bank0
  2539     0A1E  1303               	bcf	3,6	;RP1=0, select bank0
  2540     0A1F  00A1               	movwf	clcd_print@str+1
  2541     0A20  30D1               	movlw	209
  2542     0A21  00A2               	movwf	clcd_print@addr
  2543     0A22  160A  118A  24A4  120A  158A  	fcall	_clcd_print
  2544                           
  2545                           ;washing_machine_function_def.c: 60:     } else if (program_no == 11) {
  2546     0A27  2A69               	goto	l241
  2547     0A28                     l4701:
  2548     0A28  300B               	movlw	11
  2549     0A29  067A               	xorwf	_program_no,w
  2550     0A2A  1D03               	btfss	3,2
  2551     0A2B  2A2D               	goto	u5181
  2552     0A2C  2A2E               	goto	u5180
  2553     0A2D                     u5181:
  2554     0A2D  2A69               	goto	l241
  2555     0A2E                     u5180:
  2556     0A2E                     l4703:
  2557                           
  2558                           ;washing_machine_function_def.c: 61:         clcd_print(washing_program[program_no], (0x
      +                          C0 + 1));
  2559     0A2E  087A               	movf	_program_no,w
  2560     0A2F  1283               	bcf	3,5	;RP0=0, select bank0
  2561     0A30  1303               	bcf	3,6	;RP1=0, select bank0
  2562     0A31  00A5               	movwf	??_washing_program_display
  2563     0A32  0725               	addwf	??_washing_program_display,w
  2564     0A33  3EA0               	addlw	(low (_washing_program| 0))& (0+255)
  2565     0A34  0084               	movwf	4
  2566     0A35  1383               	bcf	3,7	;select IRP bank1
  2567     0A36  0800               	movf	0,w
  2568     0A37  00A0               	movwf	clcd_print@str
  2569     0A38  0A84               	incf	4,f
  2570     0A39  0800               	movf	0,w
  2571     0A3A  0384               	decf	4,f
  2572     0A3B  00A1               	movwf	clcd_print@str+1
  2573     0A3C  30C1               	movlw	193
  2574     0A3D  00A2               	movwf	clcd_print@addr
  2575     0A3E  160A  118A  24A4  120A  158A  	fcall	_clcd_print
  2576                           
  2577                           ;washing_machine_function_def.c: 62:         clcd_print(washing_program[0], (0x90+1));
  2578     0A43  1683               	bsf	3,5	;RP0=1, select bank1
  2579     0A44  1303               	bcf	3,6	;RP1=0, select bank1
  2580     0A45  0820               	movf	_washing_program^(0+128),w
  2581     0A46  1283               	bcf	3,5	;RP0=0, select bank0
  2582     0A47  1303               	bcf	3,6	;RP1=0, select bank0
  2583     0A48  00A0               	movwf	clcd_print@str
  2584     0A49  1683               	bsf	3,5	;RP0=1, select bank1
  2585     0A4A  1303               	bcf	3,6	;RP1=0, select bank1
  2586     0A4B  0821               	movf	(_washing_program+1)^(0+128),w
  2587     0A4C  1283               	bcf	3,5	;RP0=0, select bank0
  2588     0A4D  1303               	bcf	3,6	;RP1=0, select bank0
  2589     0A4E  00A1               	movwf	clcd_print@str+1
  2590     0A4F  3091               	movlw	145
  2591     0A50  00A2               	movwf	clcd_print@addr
  2592     0A51  160A  118A  24A4  120A  158A  	fcall	_clcd_print
  2593                           
  2594                           ;washing_machine_function_def.c: 63:         clcd_print(washing_program[1], (0xD0+1));
  2595     0A56  1683               	bsf	3,5	;RP0=1, select bank1
  2596     0A57  1303               	bcf	3,6	;RP1=0, select bank1
  2597     0A58  0822               	movf	(low ((_washing_program| 0+2)))^(0+128),w
  2598     0A59  1283               	bcf	3,5	;RP0=0, select bank0
  2599     0A5A  1303               	bcf	3,6	;RP1=0, select bank0
  2600     0A5B  00A0               	movwf	clcd_print@str
  2601     0A5C  1683               	bsf	3,5	;RP0=1, select bank1
  2602     0A5D  1303               	bcf	3,6	;RP1=0, select bank1
  2603     0A5E  0823               	movf	((low ((_washing_program| 0+2))+1))^(0+128),w
  2604     0A5F  1283               	bcf	3,5	;RP0=0, select bank0
  2605     0A60  1303               	bcf	3,6	;RP1=0, select bank0
  2606     0A61  00A1               	movwf	clcd_print@str+1
  2607     0A62  30D1               	movlw	209
  2608     0A63  00A2               	movwf	clcd_print@addr
  2609     0A64  160A  118A  24A4  120A  158A  	fcall	_clcd_print
  2610     0A69                     l241:
  2611     0A69  0008               	return
  2612     0A6A                     __end_of_washing_program_display:
  2613                           
  2614                           	psect	text3
  2615     0BCE                     __ptext3:	
  2616 ;; *************** function _set_time *****************
  2617 ;; Defined at:
  2618 ;;		line 219 in file "washing_machine_function_def.c"
  2619 ;; Parameters:    Size  Location     Type
  2620 ;;		None
  2621 ;; Auto vars:     Size  Location     Type
  2622 ;;		None
  2623 ;; Return value:  Size  Location     Type
  2624 ;;                  1    wreg      void 
  2625 ;; Registers used:
  2626 ;;		wreg, fsr0l, fsr0h, status,2, status,0
  2627 ;; Tracked objects:
  2628 ;;		On entry : 0/0
  2629 ;;		On exit  : 0/0
  2630 ;;		Unchanged: 0/0
  2631 ;; Data sizes:     COMMON   BANK0   BANK1   BANK3   BANK2
  2632 ;;      Params:         0       0       0       0       0
  2633 ;;      Locals:         0       0       0       0       0
  2634 ;;      Temps:          2       0       0       0       0
  2635 ;;      Totals:         2       0       0       0       0
  2636 ;;Total ram usage:        2 bytes
  2637 ;; Hardware stack levels used: 1
  2638 ;; Hardware stack levels required when called: 1
  2639 ;; This function calls:
  2640 ;;		Nothing
  2641 ;; This function is called by:
  2642 ;;		_main
  2643 ;; This function uses a non-reentrant model
  2644 ;;
  2645                           
  2646     0BCE                     _set_time:	
  2647                           ;psect for function _set_time
  2648                           
  2649     0BCE                     l4469:	
  2650                           ;incstack = 0
  2651                           ; Regs used in _set_time: [wreg-fsr0h+status,2+status,0]
  2652                           
  2653                           
  2654                           ;washing_machine_function_def.c: 221:     switch(program_no)
  2655     0BCE  2D71               	goto	l4619
  2656     0BCF                     l4471:
  2657                           
  2658                           ;washing_machine_function_def.c: 227:                     min=0;
  2659     0BCF  1283               	bcf	3,5	;RP0=0, select bank0
  2660     0BD0  1303               	bcf	3,6	;RP1=0, select bank0
  2661     0BD1  01E9               	clrf	_min
  2662     0BD2                     l4473:
  2663                           
  2664                           ;washing_machine_function_def.c: 228:                     sec=41;
  2665     0BD2  3029               	movlw	41
  2666     0BD3  00E7               	movwf	_sec
  2667                           
  2668                           ;washing_machine_function_def.c: 229:                     break;
  2669     0BD4  2D9F               	goto	l373
  2670     0BD5                     l4475:
  2671                           
  2672                           ;washing_machine_function_def.c: 231:                     min=0;
  2673     0BD5  1283               	bcf	3,5	;RP0=0, select bank0
  2674     0BD6  1303               	bcf	3,6	;RP1=0, select bank0
  2675     0BD7  01E9               	clrf	_min
  2676     0BD8                     l4477:
  2677                           
  2678                           ;washing_machine_function_def.c: 232:                     sec=33;
  2679     0BD8  3021               	movlw	33
  2680     0BD9  00E7               	movwf	_sec
  2681                           
  2682                           ;washing_machine_function_def.c: 233:                     break;
  2683     0BDA  2D9F               	goto	l373
  2684     0BDB                     l4483:
  2685                           
  2686                           ;washing_machine_function_def.c: 239:                     min=0;
  2687     0BDB  1283               	bcf	3,5	;RP0=0, select bank0
  2688     0BDC  1303               	bcf	3,6	;RP1=0, select bank0
  2689     0BDD  01E9               	clrf	_min
  2690     0BDE                     l4485:
  2691                           
  2692                           ;washing_machine_function_def.c: 240:                     sec=45;
  2693     0BDE  302D               	movlw	45
  2694     0BDF  00E7               	movwf	_sec
  2695                           
  2696                           ;washing_machine_function_def.c: 241:                     break;
  2697     0BE0  2D9F               	goto	l373
  2698     0BE1                     l4493:
  2699     0BE1  0879               	movf	_level,w
  2700     0BE2  00F2               	movwf	??_set_time
  2701     0BE3  01F3               	clrf	??_set_time+1
  2702                           
  2703                           ; Switch on 2 bytes has been partitioned into a top level switch of size 1, and 1 sub-sw
      +                          itches
  2704                           ; Switch size 1, requested type "simple"
  2705                           ; Number of cases is 1, Range of values is 0 to 0
  2706                           ; switch strategies available:
  2707                           ; Name         Instructions Cycles
  2708                           ; simple_byte            4     3 (average)
  2709                           ; direct_byte           11     8 (fixed)
  2710                           ; jumptable            260     6 (fixed)
  2711                           ;	Chosen strategy is simple_byte
  2712     0BE4  0873               	movf	??_set_time+1,w
  2713     0BE5  3A00               	xorlw	0	; case 0
  2714     0BE6  1903               	skipnz
  2715     0BE7  2BE9               	goto	l5721
  2716     0BE8  2D9F               	goto	l373
  2717     0BE9                     l5721:
  2718                           
  2719                           ; Switch size 1, requested type "simple"
  2720                           ; Number of cases is 5, Range of values is 0 to 4
  2721                           ; switch strategies available:
  2722                           ; Name         Instructions Cycles
  2723                           ; simple_byte           16     9 (average)
  2724                           ; direct_byte           23     8 (fixed)
  2725                           ; jumptable            260     6 (fixed)
  2726                           ;	Chosen strategy is simple_byte
  2727     0BE9  0872               	movf	??_set_time,w
  2728     0BEA  3A00               	xorlw	0	; case 0
  2729     0BEB  1903               	skipnz
  2730     0BEC  2BCF               	goto	l4471
  2731     0BED  3A01               	xorlw	1	; case 1
  2732     0BEE  1903               	skipnz
  2733     0BEF  2BD5               	goto	l4475
  2734     0BF0  3A03               	xorlw	3	; case 2
  2735     0BF1  1903               	skipnz
  2736     0BF2  2BCF               	goto	l4471
  2737     0BF3  3A01               	xorlw	1	; case 3
  2738     0BF4  1903               	skipnz
  2739     0BF5  2BDB               	goto	l4483
  2740     0BF6  3A07               	xorlw	7	; case 4
  2741     0BF7  1903               	skipnz
  2742     0BF8  2BDB               	goto	l4483
  2743     0BF9  2D9F               	goto	l373
  2744     0BFA                     l4495:
  2745                           
  2746                           ;washing_machine_function_def.c: 252:                     min=0;
  2747     0BFA  1283               	bcf	3,5	;RP0=0, select bank0
  2748     0BFB  1303               	bcf	3,6	;RP1=0, select bank0
  2749     0BFC  01E9               	clrf	_min
  2750     0BFD                     l4497:
  2751                           
  2752                           ;washing_machine_function_def.c: 253:                     sec=50;
  2753     0BFD  3032               	movlw	50
  2754     0BFE  00E7               	movwf	_sec
  2755                           
  2756                           ;washing_machine_function_def.c: 254:                     break;
  2757     0BFF  2D9F               	goto	l373
  2758     0C00                     l4499:
  2759                           
  2760                           ;washing_machine_function_def.c: 256:                     min=0;
  2761     0C00  1283               	bcf	3,5	;RP0=0, select bank0
  2762     0C01  1303               	bcf	3,6	;RP1=0, select bank0
  2763     0C02  01E9               	clrf	_min
  2764     0C03                     l4501:
  2765                           
  2766                           ;washing_machine_function_def.c: 257:                     sec=43;
  2767     0C03  302B               	movlw	43
  2768     0C04  00E7               	movwf	_sec
  2769                           
  2770                           ;washing_machine_function_def.c: 258:                     break;
  2771     0C05  2D9F               	goto	l373
  2772     0C06                     l4507:
  2773                           
  2774                           ;washing_machine_function_def.c: 265:                     min=0;
  2775     0C06  1283               	bcf	3,5	;RP0=0, select bank0
  2776     0C07  1303               	bcf	3,6	;RP1=0, select bank0
  2777     0C08  01E9               	clrf	_min
  2778     0C09                     l4509:
  2779                           
  2780                           ;washing_machine_function_def.c: 266:                     sec=57;
  2781     0C09  3039               	movlw	57
  2782     0C0A  00E7               	movwf	_sec
  2783                           
  2784                           ;washing_machine_function_def.c: 267:                     break;
  2785     0C0B  2D9F               	goto	l373
  2786     0C0C                     l4513:
  2787     0C0C  0879               	movf	_level,w
  2788     0C0D  00F2               	movwf	??_set_time
  2789     0C0E  01F3               	clrf	??_set_time+1
  2790                           
  2791                           ; Switch on 2 bytes has been partitioned into a top level switch of size 1, and 1 sub-sw
      +                          itches
  2792                           ; Switch size 1, requested type "simple"
  2793                           ; Number of cases is 1, Range of values is 0 to 0
  2794                           ; switch strategies available:
  2795                           ; Name         Instructions Cycles
  2796                           ; simple_byte            4     3 (average)
  2797                           ; direct_byte           11     8 (fixed)
  2798                           ; jumptable            260     6 (fixed)
  2799                           ;	Chosen strategy is simple_byte
  2800     0C0F  0873               	movf	??_set_time+1,w
  2801     0C10  3A00               	xorlw	0	; case 0
  2802     0C11  1903               	skipnz
  2803     0C12  2C14               	goto	l5723
  2804     0C13  2D9F               	goto	l373
  2805     0C14                     l5723:
  2806                           
  2807                           ; Switch size 1, requested type "simple"
  2808                           ; Number of cases is 5, Range of values is 0 to 4
  2809                           ; switch strategies available:
  2810                           ; Name         Instructions Cycles
  2811                           ; simple_byte           16     9 (average)
  2812                           ; direct_byte           23     8 (fixed)
  2813                           ; jumptable            260     6 (fixed)
  2814                           ;	Chosen strategy is simple_byte
  2815     0C14  0872               	movf	??_set_time,w
  2816     0C15  3A00               	xorlw	0	; case 0
  2817     0C16  1903               	skipnz
  2818     0C17  2BFA               	goto	l4495
  2819     0C18  3A01               	xorlw	1	; case 1
  2820     0C19  1903               	skipnz
  2821     0C1A  2C00               	goto	l4499
  2822     0C1B  3A03               	xorlw	3	; case 2
  2823     0C1C  1903               	skipnz
  2824     0C1D  2BFA               	goto	l4495
  2825     0C1E  3A01               	xorlw	1	; case 3
  2826     0C1F  1903               	skipnz
  2827     0C20  2C06               	goto	l4507
  2828     0C21  3A07               	xorlw	7	; case 4
  2829     0C22  1903               	skipnz
  2830     0C23  2C06               	goto	l4507
  2831     0C24  2D9F               	goto	l373
  2832     0C25                     l4515:
  2833                           
  2834                           ;washing_machine_function_def.c: 276:                     min=0;
  2835     0C25  1283               	bcf	3,5	;RP0=0, select bank0
  2836     0C26  1303               	bcf	3,6	;RP1=0, select bank0
  2837     0C27  01E9               	clrf	_min
  2838     0C28                     l4517:
  2839                           
  2840                           ;washing_machine_function_def.c: 277:                     sec=26;
  2841     0C28  301A               	movlw	26
  2842     0C29  00E7               	movwf	_sec
  2843                           
  2844                           ;washing_machine_function_def.c: 278:                     break;
  2845     0C2A  2D9F               	goto	l373
  2846     0C2B                     l4519:
  2847                           
  2848                           ;washing_machine_function_def.c: 281:                     min=0;
  2849     0C2B  1283               	bcf	3,5	;RP0=0, select bank0
  2850     0C2C  1303               	bcf	3,6	;RP1=0, select bank0
  2851     0C2D  01E9               	clrf	_min
  2852     0C2E                     l4521:
  2853                           
  2854                           ;washing_machine_function_def.c: 282:                     sec=31;
  2855     0C2E  301F               	movlw	31
  2856     0C2F  00E7               	movwf	_sec
  2857                           
  2858                           ;washing_machine_function_def.c: 283:                     break;
  2859     0C30  2D9F               	goto	l373
  2860     0C31                     l4525:
  2861     0C31  0879               	movf	_level,w
  2862     0C32  00F2               	movwf	??_set_time
  2863     0C33  01F3               	clrf	??_set_time+1
  2864                           
  2865                           ; Switch on 2 bytes has been partitioned into a top level switch of size 1, and 1 sub-sw
      +                          itches
  2866                           ; Switch size 1, requested type "simple"
  2867                           ; Number of cases is 1, Range of values is 0 to 0
  2868                           ; switch strategies available:
  2869                           ; Name         Instructions Cycles
  2870                           ; simple_byte            4     3 (average)
  2871                           ; direct_byte           11     8 (fixed)
  2872                           ; jumptable            260     6 (fixed)
  2873                           ;	Chosen strategy is simple_byte
  2874     0C34  0873               	movf	??_set_time+1,w
  2875     0C35  3A00               	xorlw	0	; case 0
  2876     0C36  1903               	skipnz
  2877     0C37  2C39               	goto	l5725
  2878     0C38  2D9F               	goto	l373
  2879     0C39                     l5725:
  2880                           
  2881                           ; Switch size 1, requested type "simple"
  2882                           ; Number of cases is 5, Range of values is 0 to 4
  2883                           ; switch strategies available:
  2884                           ; Name         Instructions Cycles
  2885                           ; simple_byte           16     9 (average)
  2886                           ; direct_byte           23     8 (fixed)
  2887                           ; jumptable            260     6 (fixed)
  2888                           ;	Chosen strategy is simple_byte
  2889     0C39  0872               	movf	??_set_time,w
  2890     0C3A  3A00               	xorlw	0	; case 0
  2891     0C3B  1903               	skipnz
  2892     0C3C  2C25               	goto	l4515
  2893     0C3D  3A01               	xorlw	1	; case 1
  2894     0C3E  1903               	skipnz
  2895     0C3F  2C25               	goto	l4515
  2896     0C40  3A03               	xorlw	3	; case 2
  2897     0C41  1903               	skipnz
  2898     0C42  2C25               	goto	l4515
  2899     0C43  3A01               	xorlw	1	; case 3
  2900     0C44  1903               	skipnz
  2901     0C45  2C2B               	goto	l4519
  2902     0C46  3A07               	xorlw	7	; case 4
  2903     0C47  1903               	skipnz
  2904     0C48  2C2B               	goto	l4519
  2905     0C49  2D9F               	goto	l373
  2906     0C4A                     l305:	
  2907                           ;washing_machine_function_def.c: 291:                 case 2:
  2908                           
  2909     0C4A                     l307:	
  2910                           ;washing_machine_function_def.c: 293:                 case 4:
  2911                           
  2912                           
  2913                           ;washing_machine_function_def.c: 294:                     min=1;
  2914     0C4A  1283               	bcf	3,5	;RP0=0, select bank0
  2915     0C4B  1303               	bcf	3,6	;RP1=0, select bank0
  2916     0C4C  01E9               	clrf	_min
  2917     0C4D  0AE9               	incf	_min,f
  2918     0C4E                     l4527:
  2919                           
  2920                           ;washing_machine_function_def.c: 295:                     sec=16;
  2921     0C4E  3010               	movlw	16
  2922     0C4F  00E7               	movwf	_sec
  2923                           
  2924                           ;washing_machine_function_def.c: 296:                     break;
  2925     0C50  2D9F               	goto	l373
  2926     0C51                     l4531:
  2927     0C51  0879               	movf	_level,w
  2928     0C52  00F2               	movwf	??_set_time
  2929     0C53  01F3               	clrf	??_set_time+1
  2930                           
  2931                           ; Switch on 2 bytes has been partitioned into a top level switch of size 1, and 1 sub-sw
      +                          itches
  2932                           ; Switch size 1, requested type "simple"
  2933                           ; Number of cases is 1, Range of values is 0 to 0
  2934                           ; switch strategies available:
  2935                           ; Name         Instructions Cycles
  2936                           ; simple_byte            4     3 (average)
  2937                           ; direct_byte           11     8 (fixed)
  2938                           ; jumptable            260     6 (fixed)
  2939                           ;	Chosen strategy is simple_byte
  2940     0C54  0873               	movf	??_set_time+1,w
  2941     0C55  3A00               	xorlw	0	; case 0
  2942     0C56  1903               	skipnz
  2943     0C57  2C59               	goto	l5727
  2944     0C58  2D9F               	goto	l373
  2945     0C59                     l5727:
  2946                           
  2947                           ; Switch size 1, requested type "simple"
  2948                           ; Number of cases is 5, Range of values is 0 to 4
  2949                           ; switch strategies available:
  2950                           ; Name         Instructions Cycles
  2951                           ; simple_byte           16     9 (average)
  2952                           ; direct_byte           23     8 (fixed)
  2953                           ; jumptable            260     6 (fixed)
  2954                           ;	Chosen strategy is simple_byte
  2955     0C59  0872               	movf	??_set_time,w
  2956     0C5A  3A00               	xorlw	0	; case 0
  2957     0C5B  1903               	skipnz
  2958     0C5C  2C4A               	goto	l305
  2959     0C5D  3A01               	xorlw	1	; case 1
  2960     0C5E  1903               	skipnz
  2961     0C5F  2C4A               	goto	l307
  2962     0C60  3A03               	xorlw	3	; case 2
  2963     0C61  1903               	skipnz
  2964     0C62  2C4A               	goto	l307
  2965     0C63  3A01               	xorlw	1	; case 3
  2966     0C64  1903               	skipnz
  2967     0C65  2C4A               	goto	l307
  2968     0C66  3A07               	xorlw	7	; case 4
  2969     0C67  1903               	skipnz
  2970     0C68  2C4A               	goto	l307
  2971     0C69  2D9F               	goto	l373
  2972     0C6A                     l313:	
  2973                           ;washing_machine_function_def.c: 305:                 case 2:
  2974                           
  2975     0C6A                     l315:	
  2976                           ;washing_machine_function_def.c: 307:                 case 4:
  2977                           
  2978                           
  2979                           ;washing_machine_function_def.c: 308:                     min=1;
  2980     0C6A  1283               	bcf	3,5	;RP0=0, select bank0
  2981     0C6B  1303               	bcf	3,6	;RP1=0, select bank0
  2982     0C6C  01E9               	clrf	_min
  2983     0C6D  0AE9               	incf	_min,f
  2984     0C6E                     l4533:
  2985                           
  2986                           ;washing_machine_function_def.c: 309:                     sec=36;
  2987     0C6E  3024               	movlw	36
  2988     0C6F  00E7               	movwf	_sec
  2989                           
  2990                           ;washing_machine_function_def.c: 310:                     break;
  2991     0C70  2D9F               	goto	l373
  2992     0C71                     l4537:
  2993     0C71  0879               	movf	_level,w
  2994     0C72  00F2               	movwf	??_set_time
  2995     0C73  01F3               	clrf	??_set_time+1
  2996                           
  2997                           ; Switch on 2 bytes has been partitioned into a top level switch of size 1, and 1 sub-sw
      +                          itches
  2998                           ; Switch size 1, requested type "simple"
  2999                           ; Number of cases is 1, Range of values is 0 to 0
  3000                           ; switch strategies available:
  3001                           ; Name         Instructions Cycles
  3002                           ; simple_byte            4     3 (average)
  3003                           ; direct_byte           11     8 (fixed)
  3004                           ; jumptable            260     6 (fixed)
  3005                           ;	Chosen strategy is simple_byte
  3006     0C74  0873               	movf	??_set_time+1,w
  3007     0C75  3A00               	xorlw	0	; case 0
  3008     0C76  1903               	skipnz
  3009     0C77  2C79               	goto	l5729
  3010     0C78  2D9F               	goto	l373
  3011     0C79                     l5729:
  3012                           
  3013                           ; Switch size 1, requested type "simple"
  3014                           ; Number of cases is 5, Range of values is 0 to 4
  3015                           ; switch strategies available:
  3016                           ; Name         Instructions Cycles
  3017                           ; simple_byte           16     9 (average)
  3018                           ; direct_byte           23     8 (fixed)
  3019                           ; jumptable            260     6 (fixed)
  3020                           ;	Chosen strategy is simple_byte
  3021     0C79  0872               	movf	??_set_time,w
  3022     0C7A  3A00               	xorlw	0	; case 0
  3023     0C7B  1903               	skipnz
  3024     0C7C  2C6A               	goto	l313
  3025     0C7D  3A01               	xorlw	1	; case 1
  3026     0C7E  1903               	skipnz
  3027     0C7F  2C6A               	goto	l315
  3028     0C80  3A03               	xorlw	3	; case 2
  3029     0C81  1903               	skipnz
  3030     0C82  2C6A               	goto	l315
  3031     0C83  3A01               	xorlw	1	; case 3
  3032     0C84  1903               	skipnz
  3033     0C85  2C6A               	goto	l315
  3034     0C86  3A07               	xorlw	7	; case 4
  3035     0C87  1903               	skipnz
  3036     0C88  2C6A               	goto	l315
  3037     0C89  2D9F               	goto	l373
  3038     0C8A                     l4543:
  3039                           
  3040                           ;washing_machine_function_def.c: 324:                     min=0;
  3041     0C8A  1283               	bcf	3,5	;RP0=0, select bank0
  3042     0C8B  1303               	bcf	3,6	;RP1=0, select bank0
  3043     0C8C  01E9               	clrf	_min
  3044     0C8D  2C6E               	goto	l4533
  3045     0C8E                     l4549:
  3046     0C8E  0879               	movf	_level,w
  3047     0C8F  00F2               	movwf	??_set_time
  3048     0C90  01F3               	clrf	??_set_time+1
  3049                           
  3050                           ; Switch on 2 bytes has been partitioned into a top level switch of size 1, and 1 sub-sw
      +                          itches
  3051                           ; Switch size 1, requested type "simple"
  3052                           ; Number of cases is 1, Range of values is 0 to 0
  3053                           ; switch strategies available:
  3054                           ; Name         Instructions Cycles
  3055                           ; simple_byte            4     3 (average)
  3056                           ; direct_byte           11     8 (fixed)
  3057                           ; jumptable            260     6 (fixed)
  3058                           ;	Chosen strategy is simple_byte
  3059     0C91  0873               	movf	??_set_time+1,w
  3060     0C92  3A00               	xorlw	0	; case 0
  3061     0C93  1903               	skipnz
  3062     0C94  2C96               	goto	l5731
  3063     0C95  2D9F               	goto	l373
  3064     0C96                     l5731:
  3065                           
  3066                           ; Switch size 1, requested type "simple"
  3067                           ; Number of cases is 5, Range of values is 0 to 4
  3068                           ; switch strategies available:
  3069                           ; Name         Instructions Cycles
  3070                           ; simple_byte           16     9 (average)
  3071                           ; direct_byte           23     8 (fixed)
  3072                           ; jumptable            260     6 (fixed)
  3073                           ;	Chosen strategy is simple_byte
  3074     0C96  0872               	movf	??_set_time,w
  3075     0C97  3A00               	xorlw	0	; case 0
  3076     0C98  1903               	skipnz
  3077     0C99  2C2B               	goto	l4519
  3078     0C9A  3A01               	xorlw	1	; case 1
  3079     0C9B  1903               	skipnz
  3080     0C9C  2C2B               	goto	l4519
  3081     0C9D  3A03               	xorlw	3	; case 2
  3082     0C9E  1903               	skipnz
  3083     0C9F  2C2B               	goto	l4519
  3084     0CA0  3A01               	xorlw	1	; case 3
  3085     0CA1  1903               	skipnz
  3086     0CA2  2C8A               	goto	l4543
  3087     0CA3  3A07               	xorlw	7	; case 4
  3088     0CA4  1903               	skipnz
  3089     0CA5  2C8A               	goto	l4543
  3090     0CA6  2D9F               	goto	l373
  3091     0CA7                     l330:	
  3092                           ;washing_machine_function_def.c: 335:                 case 3:
  3093                           
  3094     0CA7                     l4551:
  3095                           
  3096                           ;washing_machine_function_def.c: 337:                     min=0;
  3097     0CA7  1283               	bcf	3,5	;RP0=0, select bank0
  3098     0CA8  1303               	bcf	3,6	;RP1=0, select bank0
  3099     0CA9  01E9               	clrf	_min
  3100     0CAA                     l4553:
  3101                           
  3102                           ;washing_machine_function_def.c: 338:                     sec=29;
  3103     0CAA  301D               	movlw	29
  3104     0CAB  00E7               	movwf	_sec
  3105                           
  3106                           ;washing_machine_function_def.c: 339:                     break;
  3107     0CAC  2D9F               	goto	l373
  3108     0CAD                     l4557:
  3109     0CAD  0879               	movf	_level,w
  3110     0CAE  00F2               	movwf	??_set_time
  3111     0CAF  01F3               	clrf	??_set_time+1
  3112                           
  3113                           ; Switch on 2 bytes has been partitioned into a top level switch of size 1, and 1 sub-sw
      +                          itches
  3114                           ; Switch size 1, requested type "simple"
  3115                           ; Number of cases is 1, Range of values is 0 to 0
  3116                           ; switch strategies available:
  3117                           ; Name         Instructions Cycles
  3118                           ; simple_byte            4     3 (average)
  3119                           ; direct_byte           11     8 (fixed)
  3120                           ; jumptable            260     6 (fixed)
  3121                           ;	Chosen strategy is simple_byte
  3122     0CB0  0873               	movf	??_set_time+1,w
  3123     0CB1  3A00               	xorlw	0	; case 0
  3124     0CB2  1903               	skipnz
  3125     0CB3  2CB5               	goto	l5733
  3126     0CB4  2D9F               	goto	l373
  3127     0CB5                     l5733:
  3128                           
  3129                           ; Switch size 1, requested type "simple"
  3130                           ; Number of cases is 5, Range of values is 0 to 4
  3131                           ; switch strategies available:
  3132                           ; Name         Instructions Cycles
  3133                           ; simple_byte           16     9 (average)
  3134                           ; direct_byte           23     8 (fixed)
  3135                           ; jumptable            260     6 (fixed)
  3136                           ;	Chosen strategy is simple_byte
  3137     0CB5  0872               	movf	??_set_time,w
  3138     0CB6  3A00               	xorlw	0	; case 0
  3139     0CB7  1903               	skipnz
  3140     0CB8  2CA7               	goto	l330
  3141     0CB9  3A01               	xorlw	1	; case 1
  3142     0CBA  1903               	skipnz
  3143     0CBB  2CA7               	goto	l4551
  3144     0CBC  3A03               	xorlw	3	; case 2
  3145     0CBD  1903               	skipnz
  3146     0CBE  2CA7               	goto	l4551
  3147     0CBF  3A01               	xorlw	1	; case 3
  3148     0CC0  1903               	skipnz
  3149     0CC1  2CA7               	goto	l4551
  3150     0CC2  3A07               	xorlw	7	; case 4
  3151     0CC3  1903               	skipnz
  3152     0CC4  2CA7               	goto	l4551
  3153     0CC5  2D9F               	goto	l373
  3154     0CC6                     l4559:
  3155                           
  3156                           ;washing_machine_function_def.c: 346:                     sec=46;
  3157     0CC6  302E               	movlw	46
  3158     0CC7  1283               	bcf	3,5	;RP0=0, select bank0
  3159     0CC8  1303               	bcf	3,6	;RP1=0, select bank0
  3160     0CC9  00E7               	movwf	_sec
  3161     0CCA                     l4561:
  3162                           
  3163                           ;washing_machine_function_def.c: 347:                     min=0;
  3164     0CCA  01E9               	clrf	_min
  3165                           
  3166                           ;washing_machine_function_def.c: 348:                     break;
  3167     0CCB  2D9F               	goto	l373
  3168     0CCC                     l4563:
  3169                           
  3170                           ;washing_machine_function_def.c: 351:                     min=0;
  3171     0CCC  1283               	bcf	3,5	;RP0=0, select bank0
  3172     0CCD  1303               	bcf	3,6	;RP1=0, select bank0
  3173     0CCE  01E9               	clrf	_min
  3174     0CCF                     l4565:
  3175                           
  3176                           ;washing_machine_function_def.c: 352:                     sec=53;
  3177     0CCF  3035               	movlw	53
  3178     0CD0  00E7               	movwf	_sec
  3179                           
  3180                           ;washing_machine_function_def.c: 353:                     break;
  3181     0CD1  2D9F               	goto	l373
  3182     0CD2                     l340:	
  3183                           ;washing_machine_function_def.c: 355:                 case 4:
  3184                           
  3185                           
  3186                           ;washing_machine_function_def.c: 356:                     min=1;
  3187     0CD2  1283               	bcf	3,5	;RP0=0, select bank0
  3188     0CD3  1303               	bcf	3,6	;RP1=0, select bank0
  3189     0CD4  01E9               	clrf	_min
  3190     0CD5  0AE9               	incf	_min,f
  3191     0CD6                     l4567:
  3192                           
  3193                           ;washing_machine_function_def.c: 357:                     sec=0;
  3194     0CD6  01E7               	clrf	_sec
  3195                           
  3196                           ;washing_machine_function_def.c: 358:                     break;
  3197     0CD7  2D9F               	goto	l373
  3198     0CD8                     l4571:
  3199     0CD8  0879               	movf	_level,w
  3200     0CD9  00F2               	movwf	??_set_time
  3201     0CDA  01F3               	clrf	??_set_time+1
  3202                           
  3203                           ; Switch on 2 bytes has been partitioned into a top level switch of size 1, and 1 sub-sw
      +                          itches
  3204                           ; Switch size 1, requested type "simple"
  3205                           ; Number of cases is 1, Range of values is 0 to 0
  3206                           ; switch strategies available:
  3207                           ; Name         Instructions Cycles
  3208                           ; simple_byte            4     3 (average)
  3209                           ; direct_byte           11     8 (fixed)
  3210                           ; jumptable            260     6 (fixed)
  3211                           ;	Chosen strategy is simple_byte
  3212     0CDB  0873               	movf	??_set_time+1,w
  3213     0CDC  3A00               	xorlw	0	; case 0
  3214     0CDD  1903               	skipnz
  3215     0CDE  2CE0               	goto	l5735
  3216     0CDF  2D9F               	goto	l373
  3217     0CE0                     l5735:
  3218                           
  3219                           ; Switch size 1, requested type "simple"
  3220                           ; Number of cases is 5, Range of values is 0 to 4
  3221                           ; switch strategies available:
  3222                           ; Name         Instructions Cycles
  3223                           ; simple_byte           16     9 (average)
  3224                           ; direct_byte           23     8 (fixed)
  3225                           ; jumptable            260     6 (fixed)
  3226                           ;	Chosen strategy is simple_byte
  3227     0CE0  0872               	movf	??_set_time,w
  3228     0CE1  3A00               	xorlw	0	; case 0
  3229     0CE2  1903               	skipnz
  3230     0CE3  2CCC               	goto	l4563
  3231     0CE4  3A01               	xorlw	1	; case 1
  3232     0CE5  1903               	skipnz
  3233     0CE6  2CC6               	goto	l4559
  3234     0CE7  3A03               	xorlw	3	; case 2
  3235     0CE8  1903               	skipnz
  3236     0CE9  2CCC               	goto	l4563
  3237     0CEA  3A01               	xorlw	1	; case 3
  3238     0CEB  1903               	skipnz
  3239     0CEC  2CD2               	goto	l340
  3240     0CED  3A07               	xorlw	7	; case 4
  3241     0CEE  1903               	skipnz
  3242     0CEF  2CD2               	goto	l340
  3243     0CF0  2D9F               	goto	l373
  3244     0CF1                     l4573:
  3245                           
  3246                           ;washing_machine_function_def.c: 365:                     min=0;
  3247     0CF1  1283               	bcf	3,5	;RP0=0, select bank0
  3248     0CF2  1303               	bcf	3,6	;RP1=0, select bank0
  3249     0CF3  01E9               	clrf	_min
  3250     0CF4                     l4575:
  3251                           
  3252                           ;washing_machine_function_def.c: 366:                     sec=18;
  3253     0CF4  3012               	movlw	18
  3254     0CF5  00E7               	movwf	_sec
  3255                           
  3256                           ;washing_machine_function_def.c: 367:                     break;
  3257     0CF6  2D9F               	goto	l373
  3258     0CF7                     l347:	
  3259                           ;washing_machine_function_def.c: 370:                 case 3:
  3260                           
  3261     0CF7                     l4577:
  3262                           
  3263                           ;washing_machine_function_def.c: 372:                     min=0;
  3264     0CF7  1283               	bcf	3,5	;RP0=0, select bank0
  3265     0CF8  1303               	bcf	3,6	;RP1=0, select bank0
  3266     0CF9  01E9               	clrf	_min
  3267     0CFA                     l4579:
  3268                           
  3269                           ;washing_machine_function_def.c: 373:                     sec=20;
  3270     0CFA  3014               	movlw	20
  3271     0CFB  00E7               	movwf	_sec
  3272                           
  3273                           ;washing_machine_function_def.c: 374:                     break;
  3274     0CFC  2D9F               	goto	l373
  3275     0CFD                     l4583:
  3276     0CFD  0879               	movf	_level,w
  3277     0CFE  00F2               	movwf	??_set_time
  3278     0CFF  01F3               	clrf	??_set_time+1
  3279                           
  3280                           ; Switch on 2 bytes has been partitioned into a top level switch of size 1, and 1 sub-sw
      +                          itches
  3281                           ; Switch size 1, requested type "simple"
  3282                           ; Number of cases is 1, Range of values is 0 to 0
  3283                           ; switch strategies available:
  3284                           ; Name         Instructions Cycles
  3285                           ; simple_byte            4     3 (average)
  3286                           ; direct_byte           11     8 (fixed)
  3287                           ; jumptable            260     6 (fixed)
  3288                           ;	Chosen strategy is simple_byte
  3289     0D00  0873               	movf	??_set_time+1,w
  3290     0D01  3A00               	xorlw	0	; case 0
  3291     0D02  1903               	skipnz
  3292     0D03  2D05               	goto	l5737
  3293     0D04  2D9F               	goto	l373
  3294     0D05                     l5737:
  3295                           
  3296                           ; Switch size 1, requested type "simple"
  3297                           ; Number of cases is 5, Range of values is 0 to 4
  3298                           ; switch strategies available:
  3299                           ; Name         Instructions Cycles
  3300                           ; simple_byte           16     9 (average)
  3301                           ; direct_byte           23     8 (fixed)
  3302                           ; jumptable            260     6 (fixed)
  3303                           ;	Chosen strategy is simple_byte
  3304     0D05  0872               	movf	??_set_time,w
  3305     0D06  3A00               	xorlw	0	; case 0
  3306     0D07  1903               	skipnz
  3307     0D08  2CF7               	goto	l347
  3308     0D09  3A01               	xorlw	1	; case 1
  3309     0D0A  1903               	skipnz
  3310     0D0B  2CF1               	goto	l4573
  3311     0D0C  3A03               	xorlw	3	; case 2
  3312     0D0D  1903               	skipnz
  3313     0D0E  2CF7               	goto	l4577
  3314     0D0F  3A01               	xorlw	1	; case 3
  3315     0D10  1903               	skipnz
  3316     0D11  2CF7               	goto	l4577
  3317     0D12  3A07               	xorlw	7	; case 4
  3318     0D13  1903               	skipnz
  3319     0D14  2CF7               	goto	l4577
  3320     0D15  2D9F               	goto	l373
  3321     0D16                     l354:	
  3322                           ;washing_machine_function_def.c: 383:                 case 3:
  3323                           
  3324     0D16                     l4585:
  3325                           
  3326                           ;washing_machine_function_def.c: 385:                     min=0;
  3327     0D16  1283               	bcf	3,5	;RP0=0, select bank0
  3328     0D17  1303               	bcf	3,6	;RP1=0, select bank0
  3329     0D18  01E9               	clrf	_min
  3330     0D19                     l4587:
  3331                           
  3332                           ;washing_machine_function_def.c: 386:                     sec=6;
  3333     0D19  3006               	movlw	6
  3334     0D1A  00E7               	movwf	_sec
  3335                           
  3336                           ;washing_machine_function_def.c: 387:                     break;
  3337     0D1B  2D9F               	goto	l373
  3338     0D1C                     l4591:
  3339     0D1C  0879               	movf	_level,w
  3340     0D1D  00F2               	movwf	??_set_time
  3341     0D1E  01F3               	clrf	??_set_time+1
  3342                           
  3343                           ; Switch on 2 bytes has been partitioned into a top level switch of size 1, and 1 sub-sw
      +                          itches
  3344                           ; Switch size 1, requested type "simple"
  3345                           ; Number of cases is 1, Range of values is 0 to 0
  3346                           ; switch strategies available:
  3347                           ; Name         Instructions Cycles
  3348                           ; simple_byte            4     3 (average)
  3349                           ; direct_byte           11     8 (fixed)
  3350                           ; jumptable            260     6 (fixed)
  3351                           ;	Chosen strategy is simple_byte
  3352     0D1F  0873               	movf	??_set_time+1,w
  3353     0D20  3A00               	xorlw	0	; case 0
  3354     0D21  1903               	skipnz
  3355     0D22  2D24               	goto	l5739
  3356     0D23  2D9F               	goto	l373
  3357     0D24                     l5739:
  3358                           
  3359                           ; Switch size 1, requested type "simple"
  3360                           ; Number of cases is 5, Range of values is 0 to 4
  3361                           ; switch strategies available:
  3362                           ; Name         Instructions Cycles
  3363                           ; simple_byte           16     9 (average)
  3364                           ; direct_byte           23     8 (fixed)
  3365                           ; jumptable            260     6 (fixed)
  3366                           ;	Chosen strategy is simple_byte
  3367     0D24  0872               	movf	??_set_time,w
  3368     0D25  3A00               	xorlw	0	; case 0
  3369     0D26  1903               	skipnz
  3370     0D27  2D16               	goto	l354
  3371     0D28  3A01               	xorlw	1	; case 1
  3372     0D29  1903               	skipnz
  3373     0D2A  2D16               	goto	l4585
  3374     0D2B  3A03               	xorlw	3	; case 2
  3375     0D2C  1903               	skipnz
  3376     0D2D  2D16               	goto	l4585
  3377     0D2E  3A01               	xorlw	1	; case 3
  3378     0D2F  1903               	skipnz
  3379     0D30  2D16               	goto	l4585
  3380     0D31  3A07               	xorlw	7	; case 4
  3381     0D32  1903               	skipnz
  3382     0D33  2D16               	goto	l4585
  3383     0D34  2D9F               	goto	l373
  3384     0D35                     l4593:
  3385                           
  3386                           ;washing_machine_function_def.c: 394:                     min=0;
  3387     0D35  1283               	bcf	3,5	;RP0=0, select bank0
  3388     0D36  1303               	bcf	3,6	;RP1=0, select bank0
  3389     0D37  01E9               	clrf	_min
  3390     0D38  2C4E               	goto	l4527
  3391     0D39                     l4597:
  3392                           
  3393                           ;washing_machine_function_def.c: 399:                     sec=21;
  3394     0D39  3015               	movlw	21
  3395     0D3A  1283               	bcf	3,5	;RP0=0, select bank0
  3396     0D3B  1303               	bcf	3,6	;RP1=0, select bank0
  3397     0D3C  00E7               	movwf	_sec
  3398     0D3D  2CCA               	goto	l4561
  3399     0D3E                     l4607:
  3400     0D3E  0879               	movf	_level,w
  3401     0D3F  00F2               	movwf	??_set_time
  3402     0D40  01F3               	clrf	??_set_time+1
  3403                           
  3404                           ; Switch on 2 bytes has been partitioned into a top level switch of size 1, and 1 sub-sw
      +                          itches
  3405                           ; Switch size 1, requested type "simple"
  3406                           ; Number of cases is 1, Range of values is 0 to 0
  3407                           ; switch strategies available:
  3408                           ; Name         Instructions Cycles
  3409                           ; simple_byte            4     3 (average)
  3410                           ; direct_byte           11     8 (fixed)
  3411                           ; jumptable            260     6 (fixed)
  3412                           ;	Chosen strategy is simple_byte
  3413     0D41  0873               	movf	??_set_time+1,w
  3414     0D42  3A00               	xorlw	0	; case 0
  3415     0D43  1903               	skipnz
  3416     0D44  2D46               	goto	l5741
  3417     0D45  2D9F               	goto	l373
  3418     0D46                     l5741:
  3419                           
  3420                           ; Switch size 1, requested type "simple"
  3421                           ; Number of cases is 5, Range of values is 0 to 4
  3422                           ; switch strategies available:
  3423                           ; Name         Instructions Cycles
  3424                           ; simple_byte           16     9 (average)
  3425                           ; direct_byte           23     8 (fixed)
  3426                           ; jumptable            260     6 (fixed)
  3427                           ;	Chosen strategy is simple_byte
  3428     0D46  0872               	movf	??_set_time,w
  3429     0D47  3A00               	xorlw	0	; case 0
  3430     0D48  1903               	skipnz
  3431     0D49  2D39               	goto	l4597
  3432     0D4A  3A01               	xorlw	1	; case 1
  3433     0D4B  1903               	skipnz
  3434     0D4C  2D35               	goto	l4593
  3435     0D4D  3A03               	xorlw	3	; case 2
  3436     0D4E  1903               	skipnz
  3437     0D4F  2D39               	goto	l4597
  3438     0D50  3A01               	xorlw	1	; case 3
  3439     0D51  1903               	skipnz
  3440     0D52  2C25               	goto	l4515
  3441     0D53  3A07               	xorlw	7	; case 4
  3442     0D54  1903               	skipnz
  3443     0D55  2C25               	goto	l4515
  3444     0D56  2D9F               	goto	l373
  3445     0D57                     l370:	
  3446                           ;washing_machine_function_def.c: 415:                 case 3:
  3447                           
  3448     0D57  2BFA               	goto	l4495
  3449     0D58                     l4615:
  3450     0D58  0879               	movf	_level,w
  3451     0D59  00F2               	movwf	??_set_time
  3452     0D5A  01F3               	clrf	??_set_time+1
  3453                           
  3454                           ; Switch on 2 bytes has been partitioned into a top level switch of size 1, and 1 sub-sw
      +                          itches
  3455                           ; Switch size 1, requested type "simple"
  3456                           ; Number of cases is 1, Range of values is 0 to 0
  3457                           ; switch strategies available:
  3458                           ; Name         Instructions Cycles
  3459                           ; simple_byte            4     3 (average)
  3460                           ; direct_byte           11     8 (fixed)
  3461                           ; jumptable            260     6 (fixed)
  3462                           ;	Chosen strategy is simple_byte
  3463     0D5B  0873               	movf	??_set_time+1,w
  3464     0D5C  3A00               	xorlw	0	; case 0
  3465     0D5D  1903               	skipnz
  3466     0D5E  2D60               	goto	l5743
  3467     0D5F  2D9F               	goto	l373
  3468     0D60                     l5743:
  3469                           
  3470                           ; Switch size 1, requested type "simple"
  3471                           ; Number of cases is 5, Range of values is 0 to 4
  3472                           ; switch strategies available:
  3473                           ; Name         Instructions Cycles
  3474                           ; simple_byte           16     9 (average)
  3475                           ; direct_byte           23     8 (fixed)
  3476                           ; jumptable            260     6 (fixed)
  3477                           ;	Chosen strategy is simple_byte
  3478     0D60  0872               	movf	??_set_time,w
  3479     0D61  3A00               	xorlw	0	; case 0
  3480     0D62  1903               	skipnz
  3481     0D63  2D57               	goto	l370
  3482     0D64  3A01               	xorlw	1	; case 1
  3483     0D65  1903               	skipnz
  3484     0D66  2BFA               	goto	l4495
  3485     0D67  3A03               	xorlw	3	; case 2
  3486     0D68  1903               	skipnz
  3487     0D69  2BFA               	goto	l4495
  3488     0D6A  3A01               	xorlw	1	; case 3
  3489     0D6B  1903               	skipnz
  3490     0D6C  2BFA               	goto	l4495
  3491     0D6D  3A07               	xorlw	7	; case 4
  3492     0D6E  1903               	skipnz
  3493     0D6F  2BFA               	goto	l4495
  3494     0D70  2D9F               	goto	l373
  3495     0D71                     l4619:
  3496     0D71  087A               	movf	_program_no,w
  3497     0D72  00F2               	movwf	??_set_time
  3498     0D73  01F3               	clrf	??_set_time+1
  3499                           
  3500                           ; Switch on 2 bytes has been partitioned into a top level switch of size 1, and 1 sub-sw
      +                          itches
  3501                           ; Switch size 1, requested type "simple"
  3502                           ; Number of cases is 1, Range of values is 0 to 0
  3503                           ; switch strategies available:
  3504                           ; Name         Instructions Cycles
  3505                           ; simple_byte            4     3 (average)
  3506                           ; direct_byte           11     8 (fixed)
  3507                           ; jumptable            260     6 (fixed)
  3508                           ;	Chosen strategy is simple_byte
  3509     0D74  0873               	movf	??_set_time+1,w
  3510     0D75  3A00               	xorlw	0	; case 0
  3511     0D76  1903               	skipnz
  3512     0D77  2D79               	goto	l5745
  3513     0D78  2D9F               	goto	l373
  3514     0D79                     l5745:
  3515                           
  3516                           ; Switch size 1, requested type "simple"
  3517                           ; Number of cases is 12, Range of values is 0 to 11
  3518                           ; switch strategies available:
  3519                           ; Name         Instructions Cycles
  3520                           ; simple_byte           37    19 (average)
  3521                           ; direct_byte           44     8 (fixed)
  3522                           ; jumptable            260     6 (fixed)
  3523                           ;	Chosen strategy is simple_byte
  3524     0D79  0872               	movf	??_set_time,w
  3525     0D7A  3A00               	xorlw	0	; case 0
  3526     0D7B  1903               	skipnz
  3527     0D7C  2BE1               	goto	l4493
  3528     0D7D  3A01               	xorlw	1	; case 1
  3529     0D7E  1903               	skipnz
  3530     0D7F  2C0C               	goto	l4513
  3531     0D80  3A03               	xorlw	3	; case 2
  3532     0D81  1903               	skipnz
  3533     0D82  2C31               	goto	l4525
  3534     0D83  3A01               	xorlw	1	; case 3
  3535     0D84  1903               	skipnz
  3536     0D85  2C51               	goto	l4531
  3537     0D86  3A07               	xorlw	7	; case 4
  3538     0D87  1903               	skipnz
  3539     0D88  2C71               	goto	l4537
  3540     0D89  3A01               	xorlw	1	; case 5
  3541     0D8A  1903               	skipnz
  3542     0D8B  2C8E               	goto	l4549
  3543     0D8C  3A03               	xorlw	3	; case 6
  3544     0D8D  1903               	skipnz
  3545     0D8E  2CAD               	goto	l4557
  3546     0D8F  3A01               	xorlw	1	; case 7
  3547     0D90  1903               	skipnz
  3548     0D91  2CD8               	goto	l4571
  3549     0D92  3A0F               	xorlw	15	; case 8
  3550     0D93  1903               	skipnz
  3551     0D94  2CFD               	goto	l4583
  3552     0D95  3A01               	xorlw	1	; case 9
  3553     0D96  1903               	skipnz
  3554     0D97  2D1C               	goto	l4591
  3555     0D98  3A03               	xorlw	3	; case 10
  3556     0D99  1903               	skipnz
  3557     0D9A  2D3E               	goto	l4607
  3558     0D9B  3A01               	xorlw	1	; case 11
  3559     0D9C  1903               	skipnz
  3560     0D9D  2D58               	goto	l4615
  3561     0D9E  2D9F               	goto	l373
  3562     0D9F                     l373:
  3563     0D9F  0008               	return
  3564     0DA0                     __end_of_set_time:
  3565                           
  3566                           	psect	text4
  3567     0049                     __ptext4:	
  3568 ;; *************** function _run_program *****************
  3569 ;; Defined at:
  3570 ;;		line 90 in file "washing_machine_function_def.c"
  3571 ;; Parameters:    Size  Location     Type
  3572 ;;  key             1    wreg     unsigned char 
  3573 ;; Auto vars:     Size  Location     Type
  3574 ;;  key             1   62[BANK0 ] unsigned char 
  3575 ;; Return value:  Size  Location     Type
  3576 ;;                  1    wreg      void 
  3577 ;; Registers used:
  3578 ;;		wreg, fsr0l, fsr0h, status,2, status,0, btemp+1, pclath, cstack
  3579 ;; Tracked objects:
  3580 ;;		On entry : 0/0
  3581 ;;		On exit  : 0/0
  3582 ;;		Unchanged: 0/0
  3583 ;; Data sizes:     COMMON   BANK0   BANK1   BANK3   BANK2
  3584 ;;      Params:         0       0       0       0       0
  3585 ;;      Locals:         0       1       0       0       0
  3586 ;;      Temps:          0       6       0       0       0
  3587 ;;      Totals:         0       7       0       0       0
  3588 ;;Total ram usage:        7 bytes
  3589 ;; Hardware stack levels used: 1
  3590 ;; Hardware stack levels required when called: 4
  3591 ;; This function calls:
  3592 ;;		___awdiv
  3593 ;;		___awmod
  3594 ;;		___flge
  3595 ;;		___flmul
  3596 ;;		___flsub
  3597 ;;		___fltol
  3598 ;;		___wmul
  3599 ;;		___xxtofl
  3600 ;;		_clcd_print
  3601 ;;		_clcd_putch
  3602 ;;		_clear_screen
  3603 ;;		_door_status_check
  3604 ;; This function is called by:
  3605 ;;		_main
  3606 ;; This function uses a non-reentrant model
  3607 ;;
  3608                           
  3609     0049                     _run_program:	
  3610                           ;psect for function _run_program
  3611                           
  3612                           
  3613                           ;incstack = 0
  3614                           ; Regs used in _run_program: [wreg-fsr0h+status,2+status,0+btemp+1+pclath+cstack]
  3615                           ;run_program@key stored from wreg
  3616     0049  1283               	bcf	3,5	;RP0=0, select bank0
  3617     004A  1303               	bcf	3,6	;RP1=0, select bank0
  3618     004B  00DE               	movwf	run_program@key
  3619     004C                     l5247:
  3620                           
  3621                           ;washing_machine_function_def.c: 90: void run_program(unsigned char key);washing_machine
      +                          _function_def.c: 91: {;washing_machine_function_def.c: 92:     door_status_check();
  3622     004C  160A  118A  2684  120A  118A  	fcall	_door_status_check
  3623     0051                     l5249:
  3624                           
  3625                           ;washing_machine_function_def.c: 94:     if(reset_flag==0x33)
  3626     0051  3033               	movlw	51
  3627     0052  1283               	bcf	3,5	;RP0=0, select bank0
  3628     0053  1303               	bcf	3,6	;RP1=0, select bank0
  3629     0054  066B               	xorwf	_reset_flag,w
  3630     0055  1D03               	btfss	3,2
  3631     0056  2858               	goto	u5541
  3632     0057  2859               	goto	u5540
  3633     0058                     u5541:
  3634     0058  2A2B               	goto	l5293
  3635     0059                     u5540:
  3636     0059                     l5251:
  3637                           
  3638                           ;washing_machine_function_def.c: 95:     {;washing_machine_function_def.c: 96:         c
      +                          lear_screen();
  3639     0059  160A  118A  23B0  120A  118A  	fcall	_clear_screen
  3640     005E                     l5253:
  3641                           
  3642                           ;washing_machine_function_def.c: 97:         clcd_print("Prog:",(0x80 + 0));
  3643     005E  3050               	movlw	low (STR_28| (0+32768))
  3644     005F  1283               	bcf	3,5	;RP0=0, select bank0
  3645     0060  1303               	bcf	3,6	;RP1=0, select bank0
  3646     0061  00A0               	movwf	clcd_print@str
  3647     0062  3091               	movlw	high (STR_28| (0+32768))
  3648     0063  00A1               	movwf	clcd_print@str+1
  3649     0064  3080               	movlw	128
  3650     0065  00A2               	movwf	clcd_print@addr
  3651     0066  160A  118A  24A4  120A  118A  	fcall	_clcd_print
  3652     006B                     l5255:
  3653                           
  3654                           ;washing_machine_function_def.c: 98:         clcd_print(washing_program[program_no],(0x8
      +                          0 + 6));
  3655     006B  087A               	movf	_program_no,w
  3656     006C  1283               	bcf	3,5	;RP0=0, select bank0
  3657     006D  1303               	bcf	3,6	;RP1=0, select bank0
  3658     006E  00D8               	movwf	??_run_program
  3659     006F  0758               	addwf	??_run_program,w
  3660     0070  3EA0               	addlw	(low (_washing_program| 0))& (0+255)
  3661     0071  0084               	movwf	4
  3662     0072  1383               	bcf	3,7	;select IRP bank1
  3663     0073  0800               	movf	0,w
  3664     0074  00A0               	movwf	clcd_print@str
  3665     0075  0A84               	incf	4,f
  3666     0076  0800               	movf	0,w
  3667     0077  0384               	decf	4,f
  3668     0078  00A1               	movwf	clcd_print@str+1
  3669     0079  3086               	movlw	134
  3670     007A  00A2               	movwf	clcd_print@addr
  3671     007B  160A  118A  24A4  120A  118A  	fcall	_clcd_print
  3672     0080                     l5257:
  3673                           
  3674                           ;washing_machine_function_def.c: 99:         clcd_print("Time:",(0xC0 + 0));
  3675     0080  304A               	movlw	low (STR_29| (0+32768))
  3676     0081  1283               	bcf	3,5	;RP0=0, select bank0
  3677     0082  1303               	bcf	3,6	;RP1=0, select bank0
  3678     0083  00A0               	movwf	clcd_print@str
  3679     0084  3091               	movlw	high (STR_29| (0+32768))
  3680     0085  00A1               	movwf	clcd_print@str+1
  3681     0086  30C0               	movlw	192
  3682     0087  00A2               	movwf	clcd_print@addr
  3683     0088  160A  118A  24A4  120A  118A  	fcall	_clcd_print
  3684     008D                     l5259:
  3685                           
  3686                           ;washing_machine_function_def.c: 102:         clcd_putch(min/10 + '0',(0xC0 + 6));
  3687     008D  30C6               	movlw	198
  3688     008E  00F8               	movwf	clcd_putch@addr
  3689     008F  300A               	movlw	10
  3690     0090  00F2               	movwf	___awdiv@divisor
  3691     0091  3000               	movlw	0
  3692     0092  00F3               	movwf	___awdiv@divisor+1
  3693     0093  1283               	bcf	3,5	;RP0=0, select bank0
  3694     0094  1303               	bcf	3,6	;RP1=0, select bank0
  3695     0095  0869               	movf	_min,w
  3696     0096  00D8               	movwf	??_run_program
  3697     0097  01D9               	clrf	??_run_program+1
  3698     0098  0858               	movf	??_run_program,w
  3699     0099  00F4               	movwf	___awdiv@dividend
  3700     009A  0859               	movf	??_run_program+1,w
  3701     009B  00F5               	movwf	___awdiv@dividend+1
  3702     009C  160A  118A  261B  120A  118A  	fcall	___awdiv
  3703     00A1  0872               	movf	?___awdiv,w
  3704     00A2  3E30               	addlw	48
  3705     00A3  160A  118A  23C1  120A  118A  	fcall	_clcd_putch
  3706     00A8                     l5261:
  3707                           
  3708                           ;washing_machine_function_def.c: 103:         clcd_putch(min%10 + '0',(0xC0 + 7));
  3709     00A8  30C7               	movlw	199
  3710     00A9  00F8               	movwf	clcd_putch@addr
  3711     00AA  300A               	movlw	10
  3712     00AB  00F2               	movwf	___awmod@divisor
  3713     00AC  3000               	movlw	0
  3714     00AD  00F3               	movwf	___awmod@divisor+1
  3715     00AE  1283               	bcf	3,5	;RP0=0, select bank0
  3716     00AF  1303               	bcf	3,6	;RP1=0, select bank0
  3717     00B0  0869               	movf	_min,w
  3718     00B1  00D8               	movwf	??_run_program
  3719     00B2  01D9               	clrf	??_run_program+1
  3720     00B3  0858               	movf	??_run_program,w
  3721     00B4  00F4               	movwf	___awmod@dividend
  3722     00B5  0859               	movf	??_run_program+1,w
  3723     00B6  00F5               	movwf	___awmod@dividend+1
  3724     00B7  160A  118A  25C2  120A  118A  	fcall	___awmod
  3725     00BC  0872               	movf	?___awmod,w
  3726     00BD  3E30               	addlw	48
  3727     00BE  160A  118A  23C1  120A  118A  	fcall	_clcd_putch
  3728     00C3                     l5263:
  3729                           
  3730                           ;washing_machine_function_def.c: 104:         clcd_putch(':',(0xC0 + 8));
  3731     00C3  30C8               	movlw	200
  3732     00C4  00F8               	movwf	clcd_putch@addr
  3733     00C5  303A               	movlw	58
  3734     00C6  160A  118A  23C1  120A  118A  	fcall	_clcd_putch
  3735     00CB                     l5265:
  3736                           
  3737                           ;washing_machine_function_def.c: 106:         clcd_putch(sec/10 + '0',(0xC0 + 9));
  3738     00CB  30C9               	movlw	201
  3739     00CC  00F8               	movwf	clcd_putch@addr
  3740     00CD  300A               	movlw	10
  3741     00CE  00F2               	movwf	___awdiv@divisor
  3742     00CF  3000               	movlw	0
  3743     00D0  00F3               	movwf	___awdiv@divisor+1
  3744     00D1  1283               	bcf	3,5	;RP0=0, select bank0
  3745     00D2  1303               	bcf	3,6	;RP1=0, select bank0
  3746     00D3  0867               	movf	_sec,w
  3747     00D4  00D8               	movwf	??_run_program
  3748     00D5  01D9               	clrf	??_run_program+1
  3749     00D6  0858               	movf	??_run_program,w
  3750     00D7  00F4               	movwf	___awdiv@dividend
  3751     00D8  0859               	movf	??_run_program+1,w
  3752     00D9  00F5               	movwf	___awdiv@dividend+1
  3753     00DA  160A  118A  261B  120A  118A  	fcall	___awdiv
  3754     00DF  0872               	movf	?___awdiv,w
  3755     00E0  3E30               	addlw	48
  3756     00E1  160A  118A  23C1  120A  118A  	fcall	_clcd_putch
  3757     00E6                     l5267:
  3758                           
  3759                           ;washing_machine_function_def.c: 107:         clcd_putch(sec%10 + '0',(0xC0 + 10));
  3760     00E6  30CA               	movlw	202
  3761     00E7  00F8               	movwf	clcd_putch@addr
  3762     00E8  300A               	movlw	10
  3763     00E9  00F2               	movwf	___awmod@divisor
  3764     00EA  3000               	movlw	0
  3765     00EB  00F3               	movwf	___awmod@divisor+1
  3766     00EC  1283               	bcf	3,5	;RP0=0, select bank0
  3767     00ED  1303               	bcf	3,6	;RP1=0, select bank0
  3768     00EE  0867               	movf	_sec,w
  3769     00EF  00D8               	movwf	??_run_program
  3770     00F0  01D9               	clrf	??_run_program+1
  3771     00F1  0858               	movf	??_run_program,w
  3772     00F2  00F4               	movwf	___awmod@dividend
  3773     00F3  0859               	movf	??_run_program+1,w
  3774     00F4  00F5               	movwf	___awmod@dividend+1
  3775     00F5  160A  118A  25C2  120A  118A  	fcall	___awmod
  3776     00FA  0872               	movf	?___awmod,w
  3777     00FB  3E30               	addlw	48
  3778     00FC  160A  118A  23C1  120A  118A  	fcall	_clcd_putch
  3779     0101                     l5269:
  3780                           
  3781                           ;washing_machine_function_def.c: 108:         reset_flag=0xFF;
  3782     0101  30FF               	movlw	255
  3783     0102  1283               	bcf	3,5	;RP0=0, select bank0
  3784     0103  1303               	bcf	3,6	;RP1=0, select bank0
  3785     0104  00EB               	movwf	_reset_flag
  3786     0105                     l5271:
  3787                           
  3788                           ;washing_machine_function_def.c: 110:         _delay((unsigned long)((2000)*(20000000/40
      +                          00.0)));
  3789     0105  3033               	movlw	51
  3790     0106  1283               	bcf	3,5	;RP0=0, select bank0
  3791     0107  1303               	bcf	3,6	;RP1=0, select bank0
  3792     0108  00DA               	movwf	??_run_program+2
  3793     0109  30BB               	movlw	187
  3794     010A  00D9               	movwf	??_run_program+1
  3795     010B  30DF               	movlw	223
  3796     010C  00D8               	movwf	??_run_program
  3797     010D                     u5767:
  3798     010D  0BD8               	decfsz	??_run_program,f
  3799     010E  290D               	goto	u5767
  3800     010F  0BD9               	decfsz	??_run_program+1,f
  3801     0110  290D               	goto	u5767
  3802     0111  0BDA               	decfsz	??_run_program+2,f
  3803     0112  290D               	goto	u5767
  3804     0113                     l5273:
  3805                           
  3806                           ;washing_machine_function_def.c: 111:         clear_screen();
  3807     0113  160A  118A  23B0  120A  118A  	fcall	_clear_screen
  3808     0118                     l5275:
  3809                           
  3810                           ;washing_machine_function_def.c: 113:         clcd_print("Function: ",(0x80 + 0));
  3811     0118  30AE               	movlw	low (STR_30| (0+32768))
  3812     0119  1283               	bcf	3,5	;RP0=0, select bank0
  3813     011A  1303               	bcf	3,6	;RP1=0, select bank0
  3814     011B  00A0               	movwf	clcd_print@str
  3815     011C  3090               	movlw	high (STR_30| (0+32768))
  3816     011D  00A1               	movwf	clcd_print@str+1
  3817     011E  3080               	movlw	128
  3818     011F  00A2               	movwf	clcd_print@addr
  3819     0120  160A  118A  24A4  120A  118A  	fcall	_clcd_print
  3820     0125                     l5277:
  3821                           
  3822                           ;washing_machine_function_def.c: 114:         clcd_print("Time: ",(0xC0 + 0));
  3823     0125  3028               	movlw	low (STR_31| (0+32768))
  3824     0126  1283               	bcf	3,5	;RP0=0, select bank0
  3825     0127  1303               	bcf	3,6	;RP1=0, select bank0
  3826     0128  00A0               	movwf	clcd_print@str
  3827     0129  3091               	movlw	high (STR_31| (0+32768))
  3828     012A  00A1               	movwf	clcd_print@str+1
  3829     012B  30C0               	movlw	192
  3830     012C  00A2               	movwf	clcd_print@addr
  3831     012D  160A  118A  24A4  120A  118A  	fcall	_clcd_print
  3832     0132                     l5279:
  3833                           
  3834                           ;washing_machine_function_def.c: 115:         clcd_print("5:START 6:PAUSE",(0xD0+0));
  3835     0132  3021               	movlw	low (STR_32| (0+32768))
  3836     0133  1283               	bcf	3,5	;RP0=0, select bank0
  3837     0134  1303               	bcf	3,6	;RP1=0, select bank0
  3838     0135  00A0               	movwf	clcd_print@str
  3839     0136  3090               	movlw	high (STR_32| (0+32768))
  3840     0137  00A1               	movwf	clcd_print@str+1
  3841     0138  30D0               	movlw	208
  3842     0139  00A2               	movwf	clcd_print@addr
  3843     013A  160A  118A  24A4  120A  118A  	fcall	_clcd_print
  3844                           
  3845                           ;washing_machine_function_def.c: 117:         total_time = time = 60*min + sec;
  3846     013F  1283               	bcf	3,5	;RP0=0, select bank0
  3847     0140  1303               	bcf	3,6	;RP1=0, select bank0
  3848     0141  0869               	movf	_min,w
  3849     0142  00D8               	movwf	??_run_program
  3850     0143  01D9               	clrf	??_run_program+1
  3851     0144  0858               	movf	??_run_program,w
  3852     0145  00F2               	movwf	___wmul@multiplier
  3853     0146  0859               	movf	??_run_program+1,w
  3854     0147  00F3               	movwf	___wmul@multiplier+1
  3855     0148  303C               	movlw	60
  3856     0149  00F4               	movwf	___wmul@multiplicand
  3857     014A  3000               	movlw	0
  3858     014B  00F5               	movwf	___wmul@multiplicand+1
  3859     014C  160A  118A  2456  120A  118A  	fcall	___wmul
  3860     0151  1283               	bcf	3,5	;RP0=0, select bank0
  3861     0152  1303               	bcf	3,6	;RP1=0, select bank0
  3862     0153  0867               	movf	_sec,w
  3863     0154  0772               	addwf	?___wmul,w
  3864     0155  00E3               	movwf	_time
  3865     0156  3000               	movlw	0
  3866     0157  1803               	skipnc
  3867     0158  3001               	movlw	1
  3868     0159  0773               	addwf	?___wmul+1,w
  3869     015A  00E4               	movwf	_time+1
  3870     015B  0864               	movf	_time+1,w
  3871     015C  00E6               	movwf	_total_time+1
  3872     015D  0863               	movf	_time,w
  3873     015E  00E5               	movwf	_total_time
  3874     015F                     l5281:
  3875                           
  3876                           ;washing_machine_function_def.c: 118:         wash_time = (int)total_time*0.46;
  3877     015F  0865               	movf	_total_time,w
  3878     0160  00F2               	movwf	___xxtofl@val
  3879     0161  0866               	movf	_total_time+1,w
  3880     0162  00F3               	movwf	___xxtofl@val+1
  3881     0163  3000               	movlw	0
  3882     0164  1BF3               	btfsc	___xxtofl@val+1,7
  3883     0165  30FF               	movlw	255
  3884     0166  00F4               	movwf	___xxtofl@val+2
  3885     0167  00F5               	movwf	___xxtofl@val+3
  3886     0168  3001               	movlw	1
  3887     0169  120A  158A  20A7  120A  118A  	fcall	___xxtofl
  3888     016E  0875               	movf	?___xxtofl+3,w
  3889     016F  1283               	bcf	3,5	;RP0=0, select bank0
  3890     0170  1303               	bcf	3,6	;RP1=0, select bank0
  3891     0171  00B1               	movwf	___flmul@a+3
  3892     0172  0874               	movf	?___xxtofl+2,w
  3893     0173  00B0               	movwf	___flmul@a+2
  3894     0174  0873               	movf	?___xxtofl+1,w
  3895     0175  00AF               	movwf	___flmul@a+1
  3896     0176  0872               	movf	?___xxtofl,w
  3897     0177  00AE               	movwf	___flmul@a
  3898     0178  303E               	movlw	62
  3899     0179  00AD               	movwf	___flmul@b+3
  3900     017A  30EB               	movlw	235
  3901     017B  00AC               	movwf	___flmul@b+2
  3902     017C  3085               	movlw	133
  3903     017D  00AB               	movwf	___flmul@b+1
  3904     017E  301F               	movlw	31
  3905     017F  00AA               	movwf	___flmul@b
  3906     0180  120A  118A  2430  120A  118A  	fcall	___flmul
  3907     0185  1283               	bcf	3,5	;RP0=0, select bank0
  3908     0186  1303               	bcf	3,6	;RP1=0, select bank0
  3909     0187  082D               	movf	?___flmul+3,w
  3910     0188  00C7               	movwf	___fltol@f1+3
  3911     0189  082C               	movf	?___flmul+2,w
  3912     018A  00C6               	movwf	___fltol@f1+2
  3913     018B  082B               	movf	?___flmul+1,w
  3914     018C  00C5               	movwf	___fltol@f1+1
  3915     018D  082A               	movf	?___flmul,w
  3916     018E  00C4               	movwf	___fltol@f1
  3917     018F  120A  118A  2775  120A  118A  	fcall	___fltol
  3918     0194  1283               	bcf	3,5	;RP0=0, select bank0
  3919     0195  1303               	bcf	3,6	;RP1=0, select bank0
  3920     0196  0845               	movf	?___fltol+1,w
  3921     0197  1683               	bsf	3,5	;RP0=1, select bank1
  3922     0198  1303               	bcf	3,6	;RP1=0, select bank1
  3923     0199  00C7               	movwf	(_wash_time+1)^(0+128)
  3924     019A  1283               	bcf	3,5	;RP0=0, select bank0
  3925     019B  1303               	bcf	3,6	;RP1=0, select bank0
  3926     019C  0844               	movf	?___fltol,w
  3927     019D  1683               	bsf	3,5	;RP0=1, select bank1
  3928     019E  1303               	bcf	3,6	;RP1=0, select bank1
  3929     019F  00C6               	movwf	_wash_time^(0+128)
  3930     01A0                     l5283:
  3931                           
  3932                           ;washing_machine_function_def.c: 119:         rinse_time = (int)total_time*0.12;
  3933     01A0  1283               	bcf	3,5	;RP0=0, select bank0
  3934     01A1  1303               	bcf	3,6	;RP1=0, select bank0
  3935     01A2  0865               	movf	_total_time,w
  3936     01A3  00F2               	movwf	___xxtofl@val
  3937     01A4  0866               	movf	_total_time+1,w
  3938     01A5  00F3               	movwf	___xxtofl@val+1
  3939     01A6  3000               	movlw	0
  3940     01A7  1BF3               	btfsc	___xxtofl@val+1,7
  3941     01A8  30FF               	movlw	255
  3942     01A9  00F4               	movwf	___xxtofl@val+2
  3943     01AA  00F5               	movwf	___xxtofl@val+3
  3944     01AB  3001               	movlw	1
  3945     01AC  120A  158A  20A7  120A  118A  	fcall	___xxtofl
  3946     01B1  0875               	movf	?___xxtofl+3,w
  3947     01B2  1283               	bcf	3,5	;RP0=0, select bank0
  3948     01B3  1303               	bcf	3,6	;RP1=0, select bank0
  3949     01B4  00B1               	movwf	___flmul@a+3
  3950     01B5  0874               	movf	?___xxtofl+2,w
  3951     01B6  00B0               	movwf	___flmul@a+2
  3952     01B7  0873               	movf	?___xxtofl+1,w
  3953     01B8  00AF               	movwf	___flmul@a+1
  3954     01B9  0872               	movf	?___xxtofl,w
  3955     01BA  00AE               	movwf	___flmul@a
  3956     01BB  303D               	movlw	61
  3957     01BC  00AD               	movwf	___flmul@b+3
  3958     01BD  30F5               	movlw	245
  3959     01BE  00AC               	movwf	___flmul@b+2
  3960     01BF  30C2               	movlw	194
  3961     01C0  00AB               	movwf	___flmul@b+1
  3962     01C1  308F               	movlw	143
  3963     01C2  00AA               	movwf	___flmul@b
  3964     01C3  120A  118A  2430  120A  118A  	fcall	___flmul
  3965     01C8  1283               	bcf	3,5	;RP0=0, select bank0
  3966     01C9  1303               	bcf	3,6	;RP1=0, select bank0
  3967     01CA  082D               	movf	?___flmul+3,w
  3968     01CB  00C7               	movwf	___fltol@f1+3
  3969     01CC  082C               	movf	?___flmul+2,w
  3970     01CD  00C6               	movwf	___fltol@f1+2
  3971     01CE  082B               	movf	?___flmul+1,w
  3972     01CF  00C5               	movwf	___fltol@f1+1
  3973     01D0  082A               	movf	?___flmul,w
  3974     01D1  00C4               	movwf	___fltol@f1
  3975     01D2  120A  118A  2775  120A  118A  	fcall	___fltol
  3976     01D7  1283               	bcf	3,5	;RP0=0, select bank0
  3977     01D8  1303               	bcf	3,6	;RP1=0, select bank0
  3978     01D9  0845               	movf	?___fltol+1,w
  3979     01DA  1683               	bsf	3,5	;RP0=1, select bank1
  3980     01DB  1303               	bcf	3,6	;RP1=0, select bank1
  3981     01DC  00C5               	movwf	(_rinse_time+1)^(0+128)
  3982     01DD  1283               	bcf	3,5	;RP0=0, select bank0
  3983     01DE  1303               	bcf	3,6	;RP1=0, select bank0
  3984     01DF  0844               	movf	?___fltol,w
  3985     01E0  1683               	bsf	3,5	;RP0=1, select bank1
  3986     01E1  1303               	bcf	3,6	;RP1=0, select bank1
  3987     01E2  00C4               	movwf	_rinse_time^(0+128)
  3988     01E3                     l5285:
  3989                           
  3990                           ;washing_machine_function_def.c: 120:         spin_time = (int)total_time*0.42;
  3991     01E3  1283               	bcf	3,5	;RP0=0, select bank0
  3992     01E4  1303               	bcf	3,6	;RP1=0, select bank0
  3993     01E5  0865               	movf	_total_time,w
  3994     01E6  00F2               	movwf	___xxtofl@val
  3995     01E7  0866               	movf	_total_time+1,w
  3996     01E8  00F3               	movwf	___xxtofl@val+1
  3997     01E9  3000               	movlw	0
  3998     01EA  1BF3               	btfsc	___xxtofl@val+1,7
  3999     01EB  30FF               	movlw	255
  4000     01EC  00F4               	movwf	___xxtofl@val+2
  4001     01ED  00F5               	movwf	___xxtofl@val+3
  4002     01EE  3001               	movlw	1
  4003     01EF  120A  158A  20A7  120A  118A  	fcall	___xxtofl
  4004     01F4  0875               	movf	?___xxtofl+3,w
  4005     01F5  1283               	bcf	3,5	;RP0=0, select bank0
  4006     01F6  1303               	bcf	3,6	;RP1=0, select bank0
  4007     01F7  00B1               	movwf	___flmul@a+3
  4008     01F8  0874               	movf	?___xxtofl+2,w
  4009     01F9  00B0               	movwf	___flmul@a+2
  4010     01FA  0873               	movf	?___xxtofl+1,w
  4011     01FB  00AF               	movwf	___flmul@a+1
  4012     01FC  0872               	movf	?___xxtofl,w
  4013     01FD  00AE               	movwf	___flmul@a
  4014     01FE  303E               	movlw	62
  4015     01FF  00AD               	movwf	___flmul@b+3
  4016     0200  30D7               	movlw	215
  4017     0201  00AC               	movwf	___flmul@b+2
  4018     0202  300A               	movlw	10
  4019     0203  00AB               	movwf	___flmul@b+1
  4020     0204  303D               	movlw	61
  4021     0205  00AA               	movwf	___flmul@b
  4022     0206  120A  118A  2430  120A  118A  	fcall	___flmul
  4023     020B  1283               	bcf	3,5	;RP0=0, select bank0
  4024     020C  1303               	bcf	3,6	;RP1=0, select bank0
  4025     020D  082D               	movf	?___flmul+3,w
  4026     020E  00C7               	movwf	___fltol@f1+3
  4027     020F  082C               	movf	?___flmul+2,w
  4028     0210  00C6               	movwf	___fltol@f1+2
  4029     0211  082B               	movf	?___flmul+1,w
  4030     0212  00C5               	movwf	___fltol@f1+1
  4031     0213  082A               	movf	?___flmul,w
  4032     0214  00C4               	movwf	___fltol@f1
  4033     0215  120A  118A  2775  120A  118A  	fcall	___fltol
  4034     021A  1283               	bcf	3,5	;RP0=0, select bank0
  4035     021B  1303               	bcf	3,6	;RP1=0, select bank0
  4036     021C  0845               	movf	?___fltol+1,w
  4037     021D  1683               	bsf	3,5	;RP0=1, select bank1
  4038     021E  1303               	bcf	3,6	;RP1=0, select bank1
  4039     021F  00C3               	movwf	(_spin_time+1)^(0+128)
  4040     0220  1283               	bcf	3,5	;RP0=0, select bank0
  4041     0221  1303               	bcf	3,6	;RP1=0, select bank0
  4042     0222  0844               	movf	?___fltol,w
  4043     0223  1683               	bsf	3,5	;RP0=1, select bank1
  4044     0224  1303               	bcf	3,6	;RP1=0, select bank1
  4045     0225  00C2               	movwf	_spin_time^(0+128)
  4046     0226                     l5287:
  4047                           
  4048                           ;washing_machine_function_def.c: 122:         TMR2=0;
  4049     0226  1283               	bcf	3,5	;RP0=0, select bank0
  4050     0227  1303               	bcf	3,6	;RP1=0, select bank0
  4051     0228  0191               	clrf	17	;volatile
  4052     0229                     l5289:
  4053                           
  4054                           ;washing_machine_function_def.c: 123:         TMR2ON=1;
  4055     0229  1512               	bsf	18,2	;volatile
  4056     022A                     l5291:
  4057                           
  4058                           ;washing_machine_function_def.c: 124:         RC2=1;
  4059     022A  1507               	bsf	7,2	;volatile
  4060     022B                     l5293:
  4061                           
  4062                           ;washing_machine_function_def.c: 126:     if(key==0x1F)
  4063     022B  301F               	movlw	31
  4064     022C  065E               	xorwf	run_program@key,w
  4065     022D  1D03               	btfss	3,2
  4066     022E  2A30               	goto	u5551
  4067     022F  2A31               	goto	u5550
  4068     0230                     u5551:
  4069     0230  2A35               	goto	l5299
  4070     0231                     u5550:
  4071     0231                     l5295:
  4072                           
  4073                           ;washing_machine_function_def.c: 127:     {;washing_machine_function_def.c: 129:        
      +                           TMR2ON=0;
  4074     0231  1112               	bcf	18,2	;volatile
  4075                           
  4076                           ;washing_machine_function_def.c: 130:         RC2=0;
  4077     0232  1107               	bcf	7,2	;volatile
  4078     0233                     l5297:
  4079                           
  4080                           ;washing_machine_function_def.c: 131:         operational_mode= 0x44;
  4081     0233  3044               	movlw	68
  4082     0234  00EC               	movwf	_operational_mode
  4083     0235                     l5299:
  4084                           
  4085                           ;washing_machine_function_def.c: 133:     total_time = 60*min + sec;
  4086     0235  0869               	movf	_min,w
  4087     0236  00D8               	movwf	??_run_program
  4088     0237  01D9               	clrf	??_run_program+1
  4089     0238  0858               	movf	??_run_program,w
  4090     0239  00F2               	movwf	___wmul@multiplier
  4091     023A  0859               	movf	??_run_program+1,w
  4092     023B  00F3               	movwf	___wmul@multiplier+1
  4093     023C  303C               	movlw	60
  4094     023D  00F4               	movwf	___wmul@multiplicand
  4095     023E  3000               	movlw	0
  4096     023F  00F5               	movwf	___wmul@multiplicand+1
  4097     0240  160A  118A  2456  120A  118A  	fcall	___wmul
  4098     0245  1283               	bcf	3,5	;RP0=0, select bank0
  4099     0246  1303               	bcf	3,6	;RP1=0, select bank0
  4100     0247  0867               	movf	_sec,w
  4101     0248  0772               	addwf	?___wmul,w
  4102     0249  00E5               	movwf	_total_time
  4103     024A  3000               	movlw	0
  4104     024B  1803               	skipnc
  4105     024C  3001               	movlw	1
  4106     024D  0773               	addwf	?___wmul+1,w
  4107     024E  00E6               	movwf	_total_time+1
  4108     024F                     l5301:
  4109                           
  4110                           ;washing_machine_function_def.c: 134:     if(program_no<=7)
  4111     024F  3008               	movlw	8
  4112     0250  027A               	subwf	_program_no,w
  4113     0251  1803               	skipnc
  4114     0252  2A54               	goto	u5561
  4115     0253  2A55               	goto	u5560
  4116     0254                     u5561:
  4117     0254  2AC4               	goto	l5313
  4118     0255                     u5560:
  4119     0255                     l5303:
  4120                           
  4121                           ;washing_machine_function_def.c: 135:     {;washing_machine_function_def.c: 136:        
      +                           if(total_time >= time-wash_time)
  4122     0255  1683               	bsf	3,5	;RP0=1, select bank1
  4123     0256  1303               	bcf	3,6	;RP1=0, select bank1
  4124     0257  0846               	movf	_wash_time^(0+128),w
  4125     0258  1283               	bcf	3,5	;RP0=0, select bank0
  4126     0259  1303               	bcf	3,6	;RP1=0, select bank0
  4127     025A  0263               	subwf	_time,w
  4128     025B  00D8               	movwf	??_run_program
  4129     025C  1683               	bsf	3,5	;RP0=1, select bank1
  4130     025D  1303               	bcf	3,6	;RP1=0, select bank1
  4131     025E  0847               	movf	(_wash_time+1)^(0+128),w
  4132     025F  1C03               	skipc
  4133     0260  0A47               	incf	(_wash_time+1)^(0+128),w
  4134     0261  1283               	bcf	3,5	;RP0=0, select bank0
  4135     0262  1303               	bcf	3,6	;RP1=0, select bank0
  4136     0263  0264               	subwf	_time+1,w
  4137     0264  00D9               	movwf	??_run_program+1
  4138     0265  0859               	movf	??_run_program+1,w
  4139     0266  0266               	subwf	_total_time+1,w
  4140     0267  1D03               	skipz
  4141     0268  2A6B               	goto	u5575
  4142     0269  0858               	movf	??_run_program,w
  4143     026A  0265               	subwf	_total_time,w
  4144     026B                     u5575:
  4145     026B  1C03               	skipc
  4146     026C  2A6E               	goto	u5571
  4147     026D  2A6F               	goto	u5570
  4148     026E                     u5571:
  4149     026E  2A7B               	goto	l5307
  4150     026F                     u5570:
  4151     026F                     l5305:
  4152                           
  4153                           ;washing_machine_function_def.c: 137:         {;washing_machine_function_def.c: 138:    
      +                                   clcd_print("WASH",(0x80 + 10));
  4154     026F  3068               	movlw	low (STR_33| (0+32768))
  4155     0270  00A0               	movwf	clcd_print@str
  4156     0271  3091               	movlw	high (STR_33| (0+32768))
  4157     0272  00A1               	movwf	clcd_print@str+1
  4158     0273  308A               	movlw	138
  4159     0274  00A2               	movwf	clcd_print@addr
  4160     0275  160A  118A  24A4  120A  118A  	fcall	_clcd_print
  4161                           
  4162                           ;washing_machine_function_def.c: 139:         }
  4163     027A  2B74               	goto	l5327
  4164     027B                     l5307:
  4165     027B  1683               	bsf	3,5	;RP0=1, select bank1
  4166     027C  1303               	bcf	3,6	;RP1=0, select bank1
  4167     027D  0946               	comf	_wash_time^(0+128),w
  4168     027E  1283               	bcf	3,5	;RP0=0, select bank0
  4169     027F  1303               	bcf	3,6	;RP1=0, select bank0
  4170     0280  00D8               	movwf	??_run_program
  4171     0281  1683               	bsf	3,5	;RP0=1, select bank1
  4172     0282  1303               	bcf	3,6	;RP1=0, select bank1
  4173     0283  0947               	comf	(_wash_time+1)^(0+128),w
  4174     0284  1283               	bcf	3,5	;RP0=0, select bank0
  4175     0285  1303               	bcf	3,6	;RP1=0, select bank0
  4176     0286  00D9               	movwf	??_run_program+1
  4177     0287  0AD8               	incf	??_run_program,f
  4178     0288  1903               	skipnz
  4179     0289  0AD9               	incf	??_run_program+1,f
  4180     028A  1683               	bsf	3,5	;RP0=1, select bank1
  4181     028B  1303               	bcf	3,6	;RP1=0, select bank1
  4182     028C  0842               	movf	_spin_time^(0+128),w
  4183     028D  1283               	bcf	3,5	;RP0=0, select bank0
  4184     028E  1303               	bcf	3,6	;RP1=0, select bank0
  4185     028F  0258               	subwf	??_run_program,w
  4186     0290  00DA               	movwf	??_run_program+2
  4187     0291  1683               	bsf	3,5	;RP0=1, select bank1
  4188     0292  1303               	bcf	3,6	;RP1=0, select bank1
  4189     0293  0843               	movf	(_spin_time+1)^(0+128),w
  4190     0294  1C03               	skipc
  4191     0295  0A43               	incf	(_spin_time+1)^(0+128),w
  4192     0296  1283               	bcf	3,5	;RP0=0, select bank0
  4193     0297  1303               	bcf	3,6	;RP1=0, select bank0
  4194     0298  0259               	subwf	??_run_program+1,w
  4195     0299  00DB               	movwf	??_run_program+3
  4196     029A  0863               	movf	_time,w
  4197     029B  075A               	addwf	??_run_program+2,w
  4198     029C  00DC               	movwf	??_run_program+4
  4199     029D  0864               	movf	_time+1,w
  4200     029E  1803               	skipnc
  4201     029F  0A64               	incf	_time+1,w
  4202     02A0  075B               	addwf	??_run_program+3,w
  4203     02A1  00DD               	movwf	??_run_program+5
  4204     02A2  085D               	movf	??_run_program+5,w
  4205     02A3  0266               	subwf	_total_time+1,w
  4206     02A4  1D03               	skipz
  4207     02A5  2AA8               	goto	u5585
  4208     02A6  085C               	movf	??_run_program+4,w
  4209     02A7  0265               	subwf	_total_time,w
  4210     02A8                     u5585:
  4211     02A8  1C03               	skipc
  4212     02A9  2AAB               	goto	u5581
  4213     02AA  2AAC               	goto	u5580
  4214     02AB                     u5581:
  4215     02AB  2AB8               	goto	l5311
  4216     02AC                     u5580:
  4217     02AC                     l5309:
  4218                           
  4219                           ;washing_machine_function_def.c: 141:         {;washing_machine_function_def.c: 142:    
      +                                   clcd_print("RINSE",(0x80 + 10));
  4220     02AC  3056               	movlw	low (STR_34| (0+32768))
  4221     02AD  00A0               	movwf	clcd_print@str
  4222     02AE  3091               	movlw	high (STR_34| (0+32768))
  4223     02AF  00A1               	movwf	clcd_print@str+1
  4224     02B0  308A               	movlw	138
  4225     02B1  00A2               	movwf	clcd_print@addr
  4226     02B2  160A  118A  24A4  120A  118A  	fcall	_clcd_print
  4227                           
  4228                           ;washing_machine_function_def.c: 143:         }
  4229     02B7  2B74               	goto	l5327
  4230     02B8                     l5311:
  4231                           
  4232                           ;washing_machine_function_def.c: 145:         {clcd_print("SPIN ",(0x80 + 10));
  4233     02B8  3044               	movlw	low (STR_35| (0+32768))
  4234     02B9  00A0               	movwf	clcd_print@str
  4235     02BA  3091               	movlw	high (STR_35| (0+32768))
  4236     02BB  00A1               	movwf	clcd_print@str+1
  4237     02BC  308A               	movlw	138
  4238     02BD  00A2               	movwf	clcd_print@addr
  4239     02BE  160A  118A  24A4  120A  118A  	fcall	_clcd_print
  4240     02C3  2B74               	goto	l5327
  4241     02C4                     l5313:
  4242     02C4  3008               	movlw	8
  4243     02C5  067A               	xorwf	_program_no,w
  4244     02C6  1D03               	btfss	3,2
  4245     02C7  2AC9               	goto	u5591
  4246     02C8  2ACA               	goto	u5590
  4247     02C9                     u5591:
  4248     02C9  2B57               	goto	l5321
  4249     02CA                     u5590:
  4250     02CA                     l5315:
  4251                           
  4252                           ;washing_machine_function_def.c: 150:     {;washing_machine_function_def.c: 151:        
      +                           if(total_time >= (time-(0.40*time)))
  4253     02CA  0865               	movf	_total_time,w
  4254     02CB  00F2               	movwf	___xxtofl@val
  4255     02CC  0866               	movf	_total_time+1,w
  4256     02CD  00F3               	movwf	___xxtofl@val+1
  4257     02CE  01F4               	clrf	___xxtofl@val+2
  4258     02CF  01F5               	clrf	___xxtofl@val+3
  4259     02D0  3000               	movlw	0
  4260     02D1  120A  158A  20A7  120A  118A  	fcall	___xxtofl
  4261     02D6  0875               	movf	?___xxtofl+3,w
  4262     02D7  1283               	bcf	3,5	;RP0=0, select bank0
  4263     02D8  1303               	bcf	3,6	;RP1=0, select bank0
  4264     02D9  00CF               	movwf	___flge@ff1+3
  4265     02DA  0874               	movf	?___xxtofl+2,w
  4266     02DB  00CE               	movwf	___flge@ff1+2
  4267     02DC  0873               	movf	?___xxtofl+1,w
  4268     02DD  00CD               	movwf	___flge@ff1+1
  4269     02DE  0872               	movf	?___xxtofl,w
  4270     02DF  00CC               	movwf	___flge@ff1
  4271     02E0  0863               	movf	_time,w
  4272     02E1  00F2               	movwf	___xxtofl@val
  4273     02E2  0864               	movf	_time+1,w
  4274     02E3  00F3               	movwf	___xxtofl@val+1
  4275     02E4  01F4               	clrf	___xxtofl@val+2
  4276     02E5  01F5               	clrf	___xxtofl@val+3
  4277     02E6  3000               	movlw	0
  4278     02E7  120A  158A  20A7  120A  118A  	fcall	___xxtofl
  4279     02EC  0875               	movf	?___xxtofl+3,w
  4280     02ED  1283               	bcf	3,5	;RP0=0, select bank0
  4281     02EE  1303               	bcf	3,6	;RP1=0, select bank0
  4282     02EF  00CB               	movwf	___flsub@b+3
  4283     02F0  0874               	movf	?___xxtofl+2,w
  4284     02F1  00CA               	movwf	___flsub@b+2
  4285     02F2  0873               	movf	?___xxtofl+1,w
  4286     02F3  00C9               	movwf	___flsub@b+1
  4287     02F4  0872               	movf	?___xxtofl,w
  4288     02F5  00C8               	movwf	___flsub@b
  4289     02F6  0863               	movf	_time,w
  4290     02F7  00F2               	movwf	___xxtofl@val
  4291     02F8  0864               	movf	_time+1,w
  4292     02F9  00F3               	movwf	___xxtofl@val+1
  4293     02FA  01F4               	clrf	___xxtofl@val+2
  4294     02FB  01F5               	clrf	___xxtofl@val+3
  4295     02FC  3000               	movlw	0
  4296     02FD  120A  158A  20A7  120A  118A  	fcall	___xxtofl
  4297     0302  0875               	movf	?___xxtofl+3,w
  4298     0303  1283               	bcf	3,5	;RP0=0, select bank0
  4299     0304  1303               	bcf	3,6	;RP1=0, select bank0
  4300     0305  00B1               	movwf	___flmul@a+3
  4301     0306  0874               	movf	?___xxtofl+2,w
  4302     0307  00B0               	movwf	___flmul@a+2
  4303     0308  0873               	movf	?___xxtofl+1,w
  4304     0309  00AF               	movwf	___flmul@a+1
  4305     030A  0872               	movf	?___xxtofl,w
  4306     030B  00AE               	movwf	___flmul@a
  4307     030C  303E               	movlw	62
  4308     030D  00AD               	movwf	___flmul@b+3
  4309     030E  30CC               	movlw	204
  4310     030F  00AC               	movwf	___flmul@b+2
  4311     0310  30CC               	movlw	204
  4312     0311  00AB               	movwf	___flmul@b+1
  4313     0312  30CD               	movlw	205
  4314     0313  00AA               	movwf	___flmul@b
  4315     0314  120A  118A  2430  120A  118A  	fcall	___flmul
  4316     0319  1283               	bcf	3,5	;RP0=0, select bank0
  4317     031A  1303               	bcf	3,6	;RP1=0, select bank0
  4318     031B  082D               	movf	?___flmul+3,w
  4319     031C  00C7               	movwf	___flsub@a+3
  4320     031D  082C               	movf	?___flmul+2,w
  4321     031E  00C6               	movwf	___flsub@a+2
  4322     031F  082B               	movf	?___flmul+1,w
  4323     0320  00C5               	movwf	___flsub@a+1
  4324     0321  082A               	movf	?___flmul,w
  4325     0322  00C4               	movwf	___flsub@a
  4326     0323  160A  118A  2432  120A  118A  	fcall	___flsub
  4327     0328  1283               	bcf	3,5	;RP0=0, select bank0
  4328     0329  1303               	bcf	3,6	;RP1=0, select bank0
  4329     032A  0847               	movf	?___flsub+3,w
  4330     032B  00D3               	movwf	___flge@ff2+3
  4331     032C  0846               	movf	?___flsub+2,w
  4332     032D  00D2               	movwf	___flge@ff2+2
  4333     032E  0845               	movf	?___flsub+1,w
  4334     032F  00D1               	movwf	___flge@ff2+1
  4335     0330  0844               	movf	?___flsub,w
  4336     0331  00D0               	movwf	___flge@ff2
  4337     0332  120A  158A  2003  120A  118A  	fcall	___flge
  4338     0337  1C03               	btfss	3,0
  4339     0338  2B3A               	goto	u5601
  4340     0339  2B3B               	goto	u5600
  4341     033A                     u5601:
  4342     033A  2B49               	goto	l5319
  4343     033B                     u5600:
  4344     033B                     l5317:
  4345                           
  4346                           ;washing_machine_function_def.c: 153:         {;washing_machine_function_def.c: 154:    
      +                                   clcd_print("RINSE",(0x80 + 10));
  4347     033B  3056               	movlw	low (STR_34| (0+32768))
  4348     033C  1283               	bcf	3,5	;RP0=0, select bank0
  4349     033D  1303               	bcf	3,6	;RP1=0, select bank0
  4350     033E  00A0               	movwf	clcd_print@str
  4351     033F  3091               	movlw	high (STR_34| (0+32768))
  4352     0340  00A1               	movwf	clcd_print@str+1
  4353     0341  308A               	movlw	138
  4354     0342  00A2               	movwf	clcd_print@addr
  4355     0343  160A  118A  24A4  120A  118A  	fcall	_clcd_print
  4356                           
  4357                           ;washing_machine_function_def.c: 155:         }
  4358     0348  2B74               	goto	l5327
  4359     0349                     l5319:
  4360                           
  4361                           ;washing_machine_function_def.c: 157:         {;washing_machine_function_def.c: 158:    
      +                                   clcd_print("SPIN ",(0x80 + 10));
  4362     0349  3044               	movlw	low (STR_35| (0+32768))
  4363     034A  1283               	bcf	3,5	;RP0=0, select bank0
  4364     034B  1303               	bcf	3,6	;RP1=0, select bank0
  4365     034C  00A0               	movwf	clcd_print@str
  4366     034D  3091               	movlw	high (STR_35| (0+32768))
  4367     034E  00A1               	movwf	clcd_print@str+1
  4368     034F  308A               	movlw	138
  4369     0350  00A2               	movwf	clcd_print@addr
  4370     0351  160A  118A  24A4  120A  118A  	fcall	_clcd_print
  4371     0356  2B74               	goto	l5327
  4372     0357                     l5321:
  4373     0357  3009               	movlw	9
  4374     0358  067A               	xorwf	_program_no,w
  4375     0359  1D03               	btfss	3,2
  4376     035A  2B5C               	goto	u5611
  4377     035B  2B5D               	goto	u5610
  4378     035C                     u5611:
  4379     035C  2B69               	goto	l5325
  4380     035D                     u5610:
  4381     035D                     l5323:
  4382                           
  4383                           ;washing_machine_function_def.c: 162:     {;washing_machine_function_def.c: 163:        
      +                          clcd_print("SPIN ",(0x80 + 10));
  4384     035D  3044               	movlw	low (STR_35| (0+32768))
  4385     035E  00A0               	movwf	clcd_print@str
  4386     035F  3091               	movlw	high (STR_35| (0+32768))
  4387     0360  00A1               	movwf	clcd_print@str+1
  4388     0361  308A               	movlw	138
  4389     0362  00A2               	movwf	clcd_print@addr
  4390     0363  160A  118A  24A4  120A  118A  	fcall	_clcd_print
  4391                           
  4392                           ;washing_machine_function_def.c: 164:     }
  4393     0368  2B74               	goto	l5327
  4394     0369                     l5325:
  4395                           
  4396                           ;washing_machine_function_def.c: 166:     {;washing_machine_function_def.c: 167:        
      +                           clcd_print("WASH",(0x80 + 10));
  4397     0369  3068               	movlw	low (STR_33| (0+32768))
  4398     036A  00A0               	movwf	clcd_print@str
  4399     036B  3091               	movlw	high (STR_33| (0+32768))
  4400     036C  00A1               	movwf	clcd_print@str+1
  4401     036D  308A               	movlw	138
  4402     036E  00A2               	movwf	clcd_print@addr
  4403     036F  160A  118A  24A4  120A  118A  	fcall	_clcd_print
  4404     0374                     l5327:
  4405                           
  4406                           ;washing_machine_function_def.c: 170:     clcd_putch(min/10 + '0',(0xC0 + 6));
  4407     0374  30C6               	movlw	198
  4408     0375  00F8               	movwf	clcd_putch@addr
  4409     0376  300A               	movlw	10
  4410     0377  00F2               	movwf	___awdiv@divisor
  4411     0378  3000               	movlw	0
  4412     0379  00F3               	movwf	___awdiv@divisor+1
  4413     037A  1283               	bcf	3,5	;RP0=0, select bank0
  4414     037B  1303               	bcf	3,6	;RP1=0, select bank0
  4415     037C  0869               	movf	_min,w
  4416     037D  00D8               	movwf	??_run_program
  4417     037E  01D9               	clrf	??_run_program+1
  4418     037F  0858               	movf	??_run_program,w
  4419     0380  00F4               	movwf	___awdiv@dividend
  4420     0381  0859               	movf	??_run_program+1,w
  4421     0382  00F5               	movwf	___awdiv@dividend+1
  4422     0383  160A  118A  261B  120A  118A  	fcall	___awdiv
  4423     0388  0872               	movf	?___awdiv,w
  4424     0389  3E30               	addlw	48
  4425     038A  160A  118A  23C1  120A  118A  	fcall	_clcd_putch
  4426     038F                     l5329:
  4427                           
  4428                           ;washing_machine_function_def.c: 171:     clcd_putch(min%10 + '0',(0xC0 + 7));
  4429     038F  30C7               	movlw	199
  4430     0390  00F8               	movwf	clcd_putch@addr
  4431     0391  300A               	movlw	10
  4432     0392  00F2               	movwf	___awmod@divisor
  4433     0393  3000               	movlw	0
  4434     0394  00F3               	movwf	___awmod@divisor+1
  4435     0395  1283               	bcf	3,5	;RP0=0, select bank0
  4436     0396  1303               	bcf	3,6	;RP1=0, select bank0
  4437     0397  0869               	movf	_min,w
  4438     0398  00D8               	movwf	??_run_program
  4439     0399  01D9               	clrf	??_run_program+1
  4440     039A  0858               	movf	??_run_program,w
  4441     039B  00F4               	movwf	___awmod@dividend
  4442     039C  0859               	movf	??_run_program+1,w
  4443     039D  00F5               	movwf	___awmod@dividend+1
  4444     039E  160A  118A  25C2  120A  118A  	fcall	___awmod
  4445     03A3  0872               	movf	?___awmod,w
  4446     03A4  3E30               	addlw	48
  4447     03A5  160A  118A  23C1  120A  118A  	fcall	_clcd_putch
  4448     03AA                     l5331:
  4449                           
  4450                           ;washing_machine_function_def.c: 172:     clcd_putch(':',(0xC0 + 8));
  4451     03AA  30C8               	movlw	200
  4452     03AB  00F8               	movwf	clcd_putch@addr
  4453     03AC  303A               	movlw	58
  4454     03AD  160A  118A  23C1  120A  118A  	fcall	_clcd_putch
  4455     03B2                     l5333:
  4456                           
  4457                           ;washing_machine_function_def.c: 173:     clcd_putch(sec/10 + '0',(0xC0 + 9));
  4458     03B2  30C9               	movlw	201
  4459     03B3  00F8               	movwf	clcd_putch@addr
  4460     03B4  300A               	movlw	10
  4461     03B5  00F2               	movwf	___awdiv@divisor
  4462     03B6  3000               	movlw	0
  4463     03B7  00F3               	movwf	___awdiv@divisor+1
  4464     03B8  1283               	bcf	3,5	;RP0=0, select bank0
  4465     03B9  1303               	bcf	3,6	;RP1=0, select bank0
  4466     03BA  0867               	movf	_sec,w
  4467     03BB  00D8               	movwf	??_run_program
  4468     03BC  01D9               	clrf	??_run_program+1
  4469     03BD  0858               	movf	??_run_program,w
  4470     03BE  00F4               	movwf	___awdiv@dividend
  4471     03BF  0859               	movf	??_run_program+1,w
  4472     03C0  00F5               	movwf	___awdiv@dividend+1
  4473     03C1  160A  118A  261B  120A  118A  	fcall	___awdiv
  4474     03C6  0872               	movf	?___awdiv,w
  4475     03C7  3E30               	addlw	48
  4476     03C8  160A  118A  23C1  120A  118A  	fcall	_clcd_putch
  4477     03CD                     l5335:
  4478                           
  4479                           ;washing_machine_function_def.c: 174:     clcd_putch(sec%10 + '0',(0xC0 + 10));
  4480     03CD  30CA               	movlw	202
  4481     03CE  00F8               	movwf	clcd_putch@addr
  4482     03CF  300A               	movlw	10
  4483     03D0  00F2               	movwf	___awmod@divisor
  4484     03D1  3000               	movlw	0
  4485     03D2  00F3               	movwf	___awmod@divisor+1
  4486     03D3  1283               	bcf	3,5	;RP0=0, select bank0
  4487     03D4  1303               	bcf	3,6	;RP1=0, select bank0
  4488     03D5  0867               	movf	_sec,w
  4489     03D6  00D8               	movwf	??_run_program
  4490     03D7  01D9               	clrf	??_run_program+1
  4491     03D8  0858               	movf	??_run_program,w
  4492     03D9  00F4               	movwf	___awmod@dividend
  4493     03DA  0859               	movf	??_run_program+1,w
  4494     03DB  00F5               	movwf	___awmod@dividend+1
  4495     03DC  160A  118A  25C2  120A  118A  	fcall	___awmod
  4496     03E1  0872               	movf	?___awmod,w
  4497     03E2  3E30               	addlw	48
  4498     03E3  160A  118A  23C1  120A  118A  	fcall	_clcd_putch
  4499     03E8                     l5337:
  4500                           
  4501                           ;washing_machine_function_def.c: 175:     if(min==0&&sec==0)
  4502     03E8  1283               	bcf	3,5	;RP0=0, select bank0
  4503     03E9  1303               	bcf	3,6	;RP1=0, select bank0
  4504     03EA  0869               	movf	_min,w
  4505     03EB  1D03               	btfss	3,2
  4506     03EC  2BEE               	goto	u5621
  4507     03ED  2BEF               	goto	u5620
  4508     03EE                     u5621:
  4509     03EE  2C2F               	goto	l265
  4510     03EF                     u5620:
  4511     03EF                     l5339:
  4512     03EF  0867               	movf	_sec,w
  4513     03F0  1D03               	btfss	3,2
  4514     03F1  2BF3               	goto	u5631
  4515     03F2  2BF4               	goto	u5630
  4516     03F3                     u5631:
  4517     03F3  2C2F               	goto	l265
  4518     03F4                     u5630:
  4519     03F4                     l5341:
  4520                           
  4521                           ;washing_machine_function_def.c: 176:     {;washing_machine_function_def.c: 177:        
      +                           clear_screen();
  4522     03F4  160A  118A  23B0  120A  118A  	fcall	_clear_screen
  4523     03F9                     l5343:
  4524                           
  4525                           ;washing_machine_function_def.c: 178:         RC2=0;
  4526     03F9  1283               	bcf	3,5	;RP0=0, select bank0
  4527     03FA  1303               	bcf	3,6	;RP1=0, select bank0
  4528     03FB  1107               	bcf	7,2	;volatile
  4529     03FC                     l5345:
  4530                           
  4531                           ;washing_machine_function_def.c: 179:         RC1=1;
  4532     03FC  1487               	bsf	7,1	;volatile
  4533     03FD                     l5347:
  4534                           
  4535                           ;washing_machine_function_def.c: 180:         clcd_print("Program Complete",(0x80 + 0));
  4536     03FD  3000               	movlw	low (STR_40| (0+32768))
  4537     03FE  00A0               	movwf	clcd_print@str
  4538     03FF  3090               	movlw	high (STR_40| (0+32768))
  4539     0400  00A1               	movwf	clcd_print@str+1
  4540     0401  3080               	movlw	128
  4541     0402  00A2               	movwf	clcd_print@addr
  4542     0403  160A  118A  24A4  120A  118A  	fcall	_clcd_print
  4543     0408                     l5349:
  4544                           
  4545                           ;washing_machine_function_def.c: 181:         clcd_print("Remove Clothes",(0xC0 + 0));
  4546     0408  3051               	movlw	low (STR_41| (0+32768))
  4547     0409  1283               	bcf	3,5	;RP0=0, select bank0
  4548     040A  1303               	bcf	3,6	;RP1=0, select bank0
  4549     040B  00A0               	movwf	clcd_print@str
  4550     040C  3090               	movlw	high (STR_41| (0+32768))
  4551     040D  00A1               	movwf	clcd_print@str+1
  4552     040E  30C0               	movlw	192
  4553     040F  00A2               	movwf	clcd_print@addr
  4554     0410  160A  118A  24A4  120A  118A  	fcall	_clcd_print
  4555     0415                     l5351:
  4556                           
  4557                           ;washing_machine_function_def.c: 182:         _delay((unsigned long)((3000)*(20000000/40
      +                          00.0)));
  4558     0415  304D               	movlw	77
  4559     0416  1283               	bcf	3,5	;RP0=0, select bank0
  4560     0417  1303               	bcf	3,6	;RP1=0, select bank0
  4561     0418  00DA               	movwf	??_run_program+2
  4562     0419  3019               	movlw	25
  4563     041A  00D9               	movwf	??_run_program+1
  4564     041B  304F               	movlw	79
  4565     041C  00D8               	movwf	??_run_program
  4566     041D                     u5777:
  4567     041D  0BD8               	decfsz	??_run_program,f
  4568     041E  2C1D               	goto	u5777
  4569     041F  0BD9               	decfsz	??_run_program+1,f
  4570     0420  2C1D               	goto	u5777
  4571     0421  0BDA               	decfsz	??_run_program+2,f
  4572     0422  2C1D               	goto	u5777
  4573     0423                     l5353:
  4574                           
  4575                           ;washing_machine_function_def.c: 183:         RC1=0;
  4576     0423  1283               	bcf	3,5	;RP0=0, select bank0
  4577     0424  1303               	bcf	3,6	;RP1=0, select bank0
  4578     0425  1087               	bcf	7,1	;volatile
  4579     0426                     l5355:
  4580                           
  4581                           ;washing_machine_function_def.c: 184:         operational_mode= 0x01;
  4582     0426  01EC               	clrf	_operational_mode
  4583     0427  0AEC               	incf	_operational_mode,f
  4584     0428                     l5357:
  4585                           
  4586                           ;washing_machine_function_def.c: 185:         reset_flag = 0x11;
  4587     0428  3011               	movlw	17
  4588     0429  00EB               	movwf	_reset_flag
  4589                           
  4590                           ;washing_machine_function_def.c: 186:         clear_screen();
  4591     042A  160A  118A  23B0  120A  118A  	fcall	_clear_screen
  4592     042F                     l265:
  4593     042F  0008               	return
  4594     0430                     __end_of_run_program:
  4595                           
  4596                           	psect	text5
  4597     1684                     __ptext5:	
  4598 ;; *************** function _door_status_check *****************
  4599 ;; Defined at:
  4600 ;;		line 190 in file "washing_machine_function_def.c"
  4601 ;; Parameters:    Size  Location     Type
  4602 ;;		None
  4603 ;; Auto vars:     Size  Location     Type
  4604 ;;		None
  4605 ;; Return value:  Size  Location     Type
  4606 ;;                  1    wreg      void 
  4607 ;; Registers used:
  4608 ;;		wreg, fsr0l, fsr0h, status,2, status,0, btemp+1, pclath, cstack
  4609 ;; Tracked objects:
  4610 ;;		On entry : 0/0
  4611 ;;		On exit  : 0/0
  4612 ;;		Unchanged: 0/0
  4613 ;; Data sizes:     COMMON   BANK0   BANK1   BANK3   BANK2
  4614 ;;      Params:         0       0       0       0       0
  4615 ;;      Locals:         0       0       0       0       0
  4616 ;;      Temps:          0       0       0       0       0
  4617 ;;      Totals:         0       0       0       0       0
  4618 ;;Total ram usage:        0 bytes
  4619 ;; Hardware stack levels used: 1
  4620 ;; Hardware stack levels required when called: 3
  4621 ;; This function calls:
  4622 ;;		_clcd_print
  4623 ;;		_clear_screen
  4624 ;; This function is called by:
  4625 ;;		_run_program
  4626 ;; This function uses a non-reentrant model
  4627 ;;
  4628                           
  4629     1684                     _door_status_check:	
  4630                           ;psect for function _door_status_check
  4631                           
  4632     1684                     l4005:	
  4633                           ;incstack = 0
  4634                           ; Regs used in _door_status_check: [wreg-fsr0h+status,2+status,0+btemp+1+pclath+cstack]
  4635                           
  4636                           
  4637                           ;washing_machine_function_def.c: 192:     if(RB0==0)
  4638     1684  1283               	bcf	3,5	;RP0=0, select bank0
  4639     1685  1303               	bcf	3,6	;RP1=0, select bank0
  4640     1686  1806               	btfsc	6,0	;volatile
  4641     1687  2E89               	goto	u4081
  4642     1688  2E8A               	goto	u4080
  4643     1689                     u4081:
  4644     1689  2EEE               	goto	l272
  4645     168A                     u4080:
  4646     168A                     l4007:
  4647                           
  4648                           ;washing_machine_function_def.c: 193:     {;washing_machine_function_def.c: 194:        
      +                           RC2=0;
  4649     168A  1107               	bcf	7,2	;volatile
  4650                           
  4651                           ;washing_machine_function_def.c: 195:         TMR2ON=0;
  4652     168B  1112               	bcf	18,2	;volatile
  4653                           
  4654                           ;washing_machine_function_def.c: 196:         RC1=1;
  4655     168C  1487               	bsf	7,1	;volatile
  4656     168D                     l4009:
  4657                           
  4658                           ;washing_machine_function_def.c: 197:         clear_screen();
  4659     168D  160A  118A  23B0  160A  118A  	fcall	_clear_screen
  4660     1692                     l4011:
  4661                           
  4662                           ;washing_machine_function_def.c: 198:         clcd_print("DOOR IS OPEN!!!",(0x80 + 0));
  4663     1692  3011               	movlw	low (STR_42| (0+32768))
  4664     1693  1283               	bcf	3,5	;RP0=0, select bank0
  4665     1694  1303               	bcf	3,6	;RP1=0, select bank0
  4666     1695  00A0               	movwf	clcd_print@str
  4667     1696  3090               	movlw	high (STR_42| (0+32768))
  4668     1697  00A1               	movwf	clcd_print@str+1
  4669     1698  3080               	movlw	128
  4670     1699  00A2               	movwf	clcd_print@addr
  4671     169A  160A  118A  24A4  160A  118A  	fcall	_clcd_print
  4672     169F                     l4013:
  4673                           
  4674                           ;washing_machine_function_def.c: 199:         clcd_print("Please",(0xC0 + 0));
  4675     169F  302F               	movlw	low (STR_43| (0+32768))
  4676     16A0  1283               	bcf	3,5	;RP0=0, select bank0
  4677     16A1  1303               	bcf	3,6	;RP1=0, select bank0
  4678     16A2  00A0               	movwf	clcd_print@str
  4679     16A3  3091               	movlw	high (STR_43| (0+32768))
  4680     16A4  00A1               	movwf	clcd_print@str+1
  4681     16A5  30C0               	movlw	192
  4682     16A6  00A2               	movwf	clcd_print@addr
  4683     16A7  160A  118A  24A4  160A  118A  	fcall	_clcd_print
  4684     16AC                     l4015:
  4685                           
  4686                           ;washing_machine_function_def.c: 200:         clcd_print("close door",(0x90+0));
  4687     16AC  30CF               	movlw	low (STR_44| (0+32768))
  4688     16AD  1283               	bcf	3,5	;RP0=0, select bank0
  4689     16AE  1303               	bcf	3,6	;RP1=0, select bank0
  4690     16AF  00A0               	movwf	clcd_print@str
  4691     16B0  3090               	movlw	high (STR_44| (0+32768))
  4692     16B1  00A1               	movwf	clcd_print@str+1
  4693     16B2  3090               	movlw	144
  4694     16B3  00A2               	movwf	clcd_print@addr
  4695     16B4  160A  118A  24A4  160A  118A  	fcall	_clcd_print
  4696     16B9                     l269:	
  4697                           ;washing_machine_function_def.c: 203:         {;washing_machine_function_def.c: 205:    
      +                               }
  4698                           
  4699                           
  4700                           ;washing_machine_function_def.c: 202:         while(RB0==0)
  4701     16B9  1283               	bcf	3,5	;RP0=0, select bank0
  4702     16BA  1303               	bcf	3,6	;RP1=0, select bank0
  4703     16BB  1C06               	btfss	6,0	;volatile
  4704     16BC  2EBE               	goto	u4091
  4705     16BD  2EBF               	goto	u4090
  4706     16BE                     u4091:
  4707     16BE  2EB9               	goto	l269
  4708     16BF                     u4090:
  4709     16BF                     l271:
  4710                           
  4711                           ;washing_machine_function_def.c: 206:         RC2=1;
  4712     16BF  1507               	bsf	7,2	;volatile
  4713                           
  4714                           ;washing_machine_function_def.c: 207:         TMR2ON=1;
  4715     16C0  1512               	bsf	18,2	;volatile
  4716                           
  4717                           ;washing_machine_function_def.c: 208:         RC1=0;
  4718     16C1  1087               	bcf	7,1	;volatile
  4719     16C2                     l4017:
  4720                           
  4721                           ;washing_machine_function_def.c: 209:         clear_screen();
  4722     16C2  160A  118A  23B0  160A  118A  	fcall	_clear_screen
  4723     16C7                     l4019:
  4724                           
  4725                           ;washing_machine_function_def.c: 210:         clcd_print("Function: ",(0x80 + 0));
  4726     16C7  30AE               	movlw	low (STR_30| (0+32768))
  4727     16C8  1283               	bcf	3,5	;RP0=0, select bank0
  4728     16C9  1303               	bcf	3,6	;RP1=0, select bank0
  4729     16CA  00A0               	movwf	clcd_print@str
  4730     16CB  3090               	movlw	high (STR_30| (0+32768))
  4731     16CC  00A1               	movwf	clcd_print@str+1
  4732     16CD  3080               	movlw	128
  4733     16CE  00A2               	movwf	clcd_print@addr
  4734     16CF  160A  118A  24A4  160A  118A  	fcall	_clcd_print
  4735     16D4                     l4021:
  4736                           
  4737                           ;washing_machine_function_def.c: 211:         clcd_print("Time: ",(0xC0 + 0));
  4738     16D4  3028               	movlw	low (STR_31| (0+32768))
  4739     16D5  1283               	bcf	3,5	;RP0=0, select bank0
  4740     16D6  1303               	bcf	3,6	;RP1=0, select bank0
  4741     16D7  00A0               	movwf	clcd_print@str
  4742     16D8  3091               	movlw	high (STR_31| (0+32768))
  4743     16D9  00A1               	movwf	clcd_print@str+1
  4744     16DA  30C0               	movlw	192
  4745     16DB  00A2               	movwf	clcd_print@addr
  4746     16DC  160A  118A  24A4  160A  118A  	fcall	_clcd_print
  4747     16E1                     l4023:
  4748                           
  4749                           ;washing_machine_function_def.c: 212:         clcd_print("5:START 6:PAUSE",(0xD0+0));
  4750     16E1  3021               	movlw	low (STR_32| (0+32768))
  4751     16E2  1283               	bcf	3,5	;RP0=0, select bank0
  4752     16E3  1303               	bcf	3,6	;RP1=0, select bank0
  4753     16E4  00A0               	movwf	clcd_print@str
  4754     16E5  3090               	movlw	high (STR_32| (0+32768))
  4755     16E6  00A1               	movwf	clcd_print@str+1
  4756     16E7  30D0               	movlw	208
  4757     16E8  00A2               	movwf	clcd_print@addr
  4758     16E9  160A  118A  24A4  160A  118A  	fcall	_clcd_print
  4759     16EE                     l272:
  4760     16EE  0008               	return
  4761     16EF                     __end_of_door_status_check:
  4762                           
  4763                           	psect	text6
  4764     13B0                     __ptext6:	
  4765 ;; *************** function _clear_screen *****************
  4766 ;; Defined at:
  4767 ;;		line 33 in file "washing_machine_function_def.c"
  4768 ;; Parameters:    Size  Location     Type
  4769 ;;		None
  4770 ;; Auto vars:     Size  Location     Type
  4771 ;;		None
  4772 ;; Return value:  Size  Location     Type
  4773 ;;                  1    wreg      void 
  4774 ;; Registers used:
  4775 ;;		wreg, status,2, status,0, pclath, cstack
  4776 ;; Tracked objects:
  4777 ;;		On entry : 0/0
  4778 ;;		On exit  : 0/0
  4779 ;;		Unchanged: 0/0
  4780 ;; Data sizes:     COMMON   BANK0   BANK1   BANK3   BANK2
  4781 ;;      Params:         0       0       0       0       0
  4782 ;;      Locals:         0       0       0       0       0
  4783 ;;      Temps:          2       0       0       0       0
  4784 ;;      Totals:         2       0       0       0       0
  4785 ;;Total ram usage:        2 bytes
  4786 ;; Hardware stack levels used: 1
  4787 ;; Hardware stack levels required when called: 2
  4788 ;; This function calls:
  4789 ;;		_clcd_write
  4790 ;; This function is called by:
  4791 ;;		_main
  4792 ;;		_washing_program_display
  4793 ;;		_water_level_screen
  4794 ;;		_run_program
  4795 ;;		_door_status_check
  4796 ;; This function uses a non-reentrant model
  4797 ;;
  4798                           
  4799     13B0                     _clear_screen:	
  4800                           ;psect for function _clear_screen
  4801                           
  4802     13B0                     l3733:	
  4803                           ;incstack = 0
  4804                           ; Regs used in _clear_screen: [wreg+status,2+status,0+pclath+cstack]
  4805                           
  4806                           
  4807                           ;washing_machine_function_def.c: 34:     clcd_write(0x01, 0);
  4808     13B0  01F2               	clrf	clcd_write@mode
  4809     13B1  3001               	movlw	1
  4810     13B2  160A  118A  23F0  160A  118A  	fcall	_clcd_write
  4811     13B7                     l3735:
  4812                           
  4813                           ;washing_machine_function_def.c: 35:     _delay((unsigned long)((500)*(20000000/4000000.
      +                          0)));
  4814     13B7  3004               	movlw	4
  4815     13B8  00F7               	movwf	??_clear_screen+1
  4816     13B9  303D               	movlw	61
  4817     13BA  00F6               	movwf	??_clear_screen
  4818     13BB                     u5787:
  4819     13BB  0BF6               	decfsz	??_clear_screen,f
  4820     13BC  2BBB               	goto	u5787
  4821     13BD  0BF7               	decfsz	??_clear_screen+1,f
  4822     13BE  2BBB               	goto	u5787
  4823     13BF  2BC0               	nop2
  4824     13C0                     l230:
  4825     13C0  0008               	return
  4826     13C1                     __end_of_clear_screen:
  4827                           
  4828                           	psect	text7
  4829     08A7                     __ptext7:	
  4830 ;; *************** function ___xxtofl *****************
  4831 ;; Defined at:
  4832 ;;		line 10 in file "C:\Program Files\Microchip\xc8\v2.45\pic\sources\c99\common\xxtofl.c"
  4833 ;; Parameters:    Size  Location     Type
  4834 ;;  sign            1    wreg     unsigned char 
  4835 ;;  val             4    2[COMMON] long 
  4836 ;; Auto vars:     Size  Location     Type
  4837 ;;  sign            1    4[BANK0 ] unsigned char 
  4838 ;;  arg             4    6[BANK0 ] unsigned long 
  4839 ;;  exp             1    5[BANK0 ] unsigned char 
  4840 ;; Return value:  Size  Location     Type
  4841 ;;                  4    2[COMMON] unsigned char 
  4842 ;; Registers used:
  4843 ;;		wreg, status,2, status,0, btemp+1
  4844 ;; Tracked objects:
  4845 ;;		On entry : 0/0
  4846 ;;		On exit  : 0/0
  4847 ;;		Unchanged: 0/0
  4848 ;; Data sizes:     COMMON   BANK0   BANK1   BANK3   BANK2
  4849 ;;      Params:         4       0       0       0       0
  4850 ;;      Locals:         0       6       0       0       0
  4851 ;;      Temps:          0       4       0       0       0
  4852 ;;      Totals:         4      10       0       0       0
  4853 ;;Total ram usage:       14 bytes
  4854 ;; Hardware stack levels used: 1
  4855 ;; Hardware stack levels required when called: 1
  4856 ;; This function calls:
  4857 ;;		Nothing
  4858 ;; This function is called by:
  4859 ;;		_run_program
  4860 ;; This function uses a non-reentrant model
  4861 ;;
  4862                           
  4863     08A7                     ___xxtofl:	
  4864                           ;psect for function ___xxtofl
  4865                           
  4866                           
  4867                           ;incstack = 0
  4868                           ; Regs used in ___xxtofl: [wreg+status,2+status,0+btemp+1]
  4869                           ;___xxtofl@sign stored from wreg
  4870     08A7  1283               	bcf	3,5	;RP0=0, select bank0
  4871     08A8  1303               	bcf	3,6	;RP1=0, select bank0
  4872     08A9  00A4               	movwf	___xxtofl@sign
  4873     08AA                     l4327:
  4874     08AA  0824               	movf	___xxtofl@sign,w
  4875     08AB  1903               	btfsc	3,2
  4876     08AC  28AE               	goto	u4871
  4877     08AD  28AF               	goto	u4870
  4878     08AE                     u4871:
  4879     08AE  28C3               	goto	l4333
  4880     08AF                     u4870:
  4881     08AF                     l4329:
  4882     08AF  1FF5               	btfss	___xxtofl@val+3,7
  4883     08B0  28B2               	goto	u4881
  4884     08B1  28B3               	goto	u4880
  4885     08B2                     u4881:
  4886     08B2  28C3               	goto	l4333
  4887     08B3                     u4880:
  4888     08B3                     l4331:
  4889     08B3  0972               	comf	___xxtofl@val,w
  4890     08B4  00A6               	movwf	___xxtofl@arg
  4891     08B5  0973               	comf	___xxtofl@val+1,w
  4892     08B6  00A7               	movwf	___xxtofl@arg+1
  4893     08B7  0974               	comf	___xxtofl@val+2,w
  4894     08B8  00A8               	movwf	___xxtofl@arg+2
  4895     08B9  0975               	comf	___xxtofl@val+3,w
  4896     08BA  00A9               	movwf	___xxtofl@arg+3
  4897     08BB  0AA6               	incf	___xxtofl@arg,f
  4898     08BC  1903               	skipnz
  4899     08BD  0AA7               	incf	___xxtofl@arg+1,f
  4900     08BE  1903               	skipnz
  4901     08BF  0AA8               	incf	___xxtofl@arg+2,f
  4902     08C0  1903               	skipnz
  4903     08C1  0AA9               	incf	___xxtofl@arg+3,f
  4904     08C2  28CB               	goto	l900
  4905     08C3                     l4333:
  4906     08C3  0875               	movf	___xxtofl@val+3,w
  4907     08C4  00A9               	movwf	___xxtofl@arg+3
  4908     08C5  0874               	movf	___xxtofl@val+2,w
  4909     08C6  00A8               	movwf	___xxtofl@arg+2
  4910     08C7  0873               	movf	___xxtofl@val+1,w
  4911     08C8  00A7               	movwf	___xxtofl@arg+1
  4912     08C9  0872               	movf	___xxtofl@val,w
  4913     08CA  00A6               	movwf	___xxtofl@arg
  4914     08CB                     l900:
  4915     08CB  0875               	movf	___xxtofl@val+3,w
  4916     08CC  0474               	iorwf	___xxtofl@val+2,w
  4917     08CD  0473               	iorwf	___xxtofl@val+1,w
  4918     08CE  0472               	iorwf	___xxtofl@val,w
  4919     08CF  1D03               	skipz
  4920     08D0  28D2               	goto	u4891
  4921     08D1  28D3               	goto	u4890
  4922     08D2                     u4891:
  4923     08D2  28DC               	goto	l4339
  4924     08D3                     u4890:
  4925     08D3                     l4335:
  4926     08D3  3000               	movlw	0
  4927     08D4  00F5               	movwf	?___xxtofl+3
  4928     08D5  3000               	movlw	0
  4929     08D6  00F4               	movwf	?___xxtofl+2
  4930     08D7  3000               	movlw	0
  4931     08D8  00F3               	movwf	?___xxtofl+1
  4932     08D9  3000               	movlw	0
  4933     08DA  00F2               	movwf	?___xxtofl
  4934     08DB  2960               	goto	l902
  4935     08DC                     l4339:
  4936     08DC  3096               	movlw	150
  4937     08DD  00A5               	movwf	___xxtofl@exp
  4938     08DE  28EC               	goto	l4345
  4939     08DF                     l4341:
  4940     08DF  3001               	movlw	1
  4941     08E0  00FF               	movwf	btemp+1
  4942     08E1  087F               	movf	btemp+1,w
  4943     08E2  07A5               	addwf	___xxtofl@exp,f
  4944     08E3                     l4343:
  4945     08E3  3001               	movlw	1
  4946     08E4                     u4905:
  4947     08E4  1003               	clrc
  4948     08E5  0CA9               	rrf	___xxtofl@arg+3,f
  4949     08E6  0CA8               	rrf	___xxtofl@arg+2,f
  4950     08E7  0CA7               	rrf	___xxtofl@arg+1,f
  4951     08E8  0CA6               	rrf	___xxtofl@arg,f
  4952     08E9  3EFF               	addlw	-1
  4953     08EA  1D03               	skipz
  4954     08EB  28E4               	goto	u4905
  4955     08EC                     l4345:
  4956     08EC  30FE               	movlw	254
  4957     08ED  0529               	andwf	___xxtofl@arg+3,w
  4958     08EE  1D03               	btfss	3,2
  4959     08EF  28F1               	goto	u4911
  4960     08F0  28F2               	goto	u4910
  4961     08F1                     u4911:
  4962     08F1  28DF               	goto	l4341
  4963     08F2                     u4910:
  4964     08F2  290E               	goto	l4353
  4965     08F3                     l4347:
  4966     08F3  3001               	movlw	1
  4967     08F4  00FF               	movwf	btemp+1
  4968     08F5  087F               	movf	btemp+1,w
  4969     08F6  07A5               	addwf	___xxtofl@exp,f
  4970     08F7                     l4349:
  4971     08F7  3001               	movlw	1
  4972     08F8  07A6               	addwf	___xxtofl@arg,f
  4973     08F9  3000               	movlw	0
  4974     08FA  1803               	skipnc
  4975     08FB  3001               	movlw	1
  4976     08FC  07A7               	addwf	___xxtofl@arg+1,f
  4977     08FD  3000               	movlw	0
  4978     08FE  1803               	skipnc
  4979     08FF  3001               	movlw	1
  4980     0900  07A8               	addwf	___xxtofl@arg+2,f
  4981     0901  3000               	movlw	0
  4982     0902  1803               	skipnc
  4983     0903  3001               	movlw	1
  4984     0904  07A9               	addwf	___xxtofl@arg+3,f
  4985     0905                     l4351:
  4986     0905  3001               	movlw	1
  4987     0906                     u4925:
  4988     0906  1003               	clrc
  4989     0907  0CA9               	rrf	___xxtofl@arg+3,f
  4990     0908  0CA8               	rrf	___xxtofl@arg+2,f
  4991     0909  0CA7               	rrf	___xxtofl@arg+1,f
  4992     090A  0CA6               	rrf	___xxtofl@arg,f
  4993     090B  3EFF               	addlw	-1
  4994     090C  1D03               	skipz
  4995     090D  2906               	goto	u4925
  4996     090E                     l4353:
  4997     090E  30FF               	movlw	255
  4998     090F  0529               	andwf	___xxtofl@arg+3,w
  4999     0910  1D03               	btfss	3,2
  5000     0911  2913               	goto	u4931
  5001     0912  2914               	goto	u4930
  5002     0913                     u4931:
  5003     0913  28F3               	goto	l4347
  5004     0914                     u4930:
  5005     0914  2920               	goto	l4357
  5006     0915                     l4355:
  5007     0915  3001               	movlw	1
  5008     0916  02A5               	subwf	___xxtofl@exp,f
  5009     0917  3001               	movlw	1
  5010     0918  00A0               	movwf	??___xxtofl
  5011     0919                     u4945:
  5012     0919  1003               	clrc
  5013     091A  0DA6               	rlf	___xxtofl@arg,f
  5014     091B  0DA7               	rlf	___xxtofl@arg+1,f
  5015     091C  0DA8               	rlf	___xxtofl@arg+2,f
  5016     091D  0DA9               	rlf	___xxtofl@arg+3,f
  5017     091E  0BA0               	decfsz	??___xxtofl,f
  5018     091F  2919               	goto	u4945
  5019     0920                     l4357:
  5020     0920  1BA8               	btfsc	___xxtofl@arg+2,7
  5021     0921  2923               	goto	u4951
  5022     0922  2924               	goto	u4950
  5023     0923                     u4951:
  5024     0923  292A               	goto	l913
  5025     0924                     u4950:
  5026     0924                     l4359:
  5027     0924  3002               	movlw	2
  5028     0925  0225               	subwf	___xxtofl@exp,w
  5029     0926  1803               	skipnc
  5030     0927  2929               	goto	u4961
  5031     0928  292A               	goto	u4960
  5032     0929                     u4961:
  5033     0929  2915               	goto	l4355
  5034     092A                     u4960:
  5035     092A                     l913:
  5036     092A  1825               	btfsc	___xxtofl@exp,0
  5037     092B  292D               	goto	u4971
  5038     092C  292E               	goto	u4970
  5039     092D                     u4971:
  5040     092D  2936               	goto	l914
  5041     092E                     u4970:
  5042     092E                     l4361:
  5043     092E  30FF               	movlw	255
  5044     092F  05A6               	andwf	___xxtofl@arg,f
  5045     0930  30FF               	movlw	255
  5046     0931  05A7               	andwf	___xxtofl@arg+1,f
  5047     0932  307F               	movlw	127
  5048     0933  05A8               	andwf	___xxtofl@arg+2,f
  5049     0934  30FF               	movlw	255
  5050     0935  05A9               	andwf	___xxtofl@arg+3,f
  5051     0936                     l914:
  5052     0936  1003               	clrc
  5053     0937  0CA5               	rrf	___xxtofl@exp,f
  5054     0938                     l4363:
  5055     0938  0825               	movf	___xxtofl@exp,w
  5056     0939  00A0               	movwf	??___xxtofl
  5057     093A  01A1               	clrf	??___xxtofl+1
  5058     093B  01A2               	clrf	??___xxtofl+2
  5059     093C  01A3               	clrf	??___xxtofl+3
  5060     093D  3018               	movlw	24
  5061     093E                     u4985:
  5062     093E  1003               	clrc
  5063     093F  0DA0               	rlf	??___xxtofl,f
  5064     0940  0DA1               	rlf	??___xxtofl+1,f
  5065     0941  0DA2               	rlf	??___xxtofl+2,f
  5066     0942  0DA3               	rlf	??___xxtofl+3,f
  5067     0943                     u4980:
  5068     0943  3EFF               	addlw	-1
  5069     0944  1D03               	skipz
  5070     0945  293E               	goto	u4985
  5071     0946  0820               	movf	??___xxtofl,w
  5072     0947  04A6               	iorwf	___xxtofl@arg,f
  5073     0948  0821               	movf	??___xxtofl+1,w
  5074     0949  04A7               	iorwf	___xxtofl@arg+1,f
  5075     094A  0822               	movf	??___xxtofl+2,w
  5076     094B  04A8               	iorwf	___xxtofl@arg+2,f
  5077     094C  0823               	movf	??___xxtofl+3,w
  5078     094D  04A9               	iorwf	___xxtofl@arg+3,f
  5079     094E                     l4365:
  5080     094E  0824               	movf	___xxtofl@sign,w
  5081     094F  1903               	btfsc	3,2
  5082     0950  2952               	goto	u4991
  5083     0951  2953               	goto	u4990
  5084     0952                     u4991:
  5085     0952  2958               	goto	l4371
  5086     0953                     u4990:
  5087     0953                     l4367:
  5088     0953  1FF5               	btfss	___xxtofl@val+3,7
  5089     0954  2956               	goto	u5001
  5090     0955  2957               	goto	u5000
  5091     0956                     u5001:
  5092     0956  2958               	goto	l4371
  5093     0957                     u5000:
  5094     0957                     l4369:
  5095     0957  17A9               	bsf	___xxtofl@arg+3,7
  5096     0958                     l4371:
  5097     0958  0829               	movf	___xxtofl@arg+3,w
  5098     0959  00F5               	movwf	?___xxtofl+3
  5099     095A  0828               	movf	___xxtofl@arg+2,w
  5100     095B  00F4               	movwf	?___xxtofl+2
  5101     095C  0827               	movf	___xxtofl@arg+1,w
  5102     095D  00F3               	movwf	?___xxtofl+1
  5103     095E  0826               	movf	___xxtofl@arg,w
  5104     095F  00F2               	movwf	?___xxtofl
  5105     0960                     l902:
  5106     0960  0008               	return
  5107     0961                     __end_of___xxtofl:
  5108                           
  5109                           	psect	text8
  5110     1456                     __ptext8:	
  5111 ;; *************** function ___wmul *****************
  5112 ;; Defined at:
  5113 ;;		line 15 in file "C:\Program Files\Microchip\xc8\v2.45\pic\sources\c99\common\Umul16.c"
  5114 ;; Parameters:    Size  Location     Type
  5115 ;;  multiplier      2    2[COMMON] unsigned int 
  5116 ;;  multiplicand    2    4[COMMON] unsigned int 
  5117 ;; Auto vars:     Size  Location     Type
  5118 ;;  product         2    6[COMMON] unsigned int 
  5119 ;; Return value:  Size  Location     Type
  5120 ;;                  2    2[COMMON] unsigned int 
  5121 ;; Registers used:
  5122 ;;		wreg, status,2, status,0
  5123 ;; Tracked objects:
  5124 ;;		On entry : 0/0
  5125 ;;		On exit  : 0/0
  5126 ;;		Unchanged: 0/0
  5127 ;; Data sizes:     COMMON   BANK0   BANK1   BANK3   BANK2
  5128 ;;      Params:         4       0       0       0       0
  5129 ;;      Locals:         2       0       0       0       0
  5130 ;;      Temps:          0       0       0       0       0
  5131 ;;      Totals:         6       0       0       0       0
  5132 ;;Total ram usage:        6 bytes
  5133 ;; Hardware stack levels used: 1
  5134 ;; Hardware stack levels required when called: 1
  5135 ;; This function calls:
  5136 ;;		Nothing
  5137 ;; This function is called by:
  5138 ;;		_run_program
  5139 ;; This function uses a non-reentrant model
  5140 ;;
  5141                           
  5142     1456                     ___wmul:	
  5143                           ;psect for function ___wmul
  5144                           
  5145     1456                     l4025:	
  5146                           ;incstack = 0
  5147                           ; Regs used in ___wmul: [wreg+status,2+status,0]
  5148                           
  5149     1456  01F6               	clrf	___wmul@product
  5150     1457  01F7               	clrf	___wmul@product+1
  5151     1458                     l4027:
  5152     1458  1C72               	btfss	___wmul@multiplier,0
  5153     1459  2C5B               	goto	u4101
  5154     145A  2C5C               	goto	u4100
  5155     145B                     u4101:
  5156     145B  2C62               	goto	l459
  5157     145C                     u4100:
  5158     145C                     l4029:
  5159     145C  0874               	movf	___wmul@multiplicand,w
  5160     145D  07F6               	addwf	___wmul@product,f
  5161     145E  1803               	skipnc
  5162     145F  0AF7               	incf	___wmul@product+1,f
  5163     1460  0875               	movf	___wmul@multiplicand+1,w
  5164     1461  07F7               	addwf	___wmul@product+1,f
  5165     1462                     l459:
  5166     1462  3001               	movlw	1
  5167     1463                     u4115:
  5168     1463  1003               	clrc
  5169     1464  0DF4               	rlf	___wmul@multiplicand,f
  5170     1465  0DF5               	rlf	___wmul@multiplicand+1,f
  5171     1466  3EFF               	addlw	-1
  5172     1467  1D03               	skipz
  5173     1468  2C63               	goto	u4115
  5174     1469                     l4031:
  5175     1469  3001               	movlw	1
  5176     146A                     u4125:
  5177     146A  1003               	clrc
  5178     146B  0CF3               	rrf	___wmul@multiplier+1,f
  5179     146C  0CF2               	rrf	___wmul@multiplier,f
  5180     146D  3EFF               	addlw	-1
  5181     146E  1D03               	skipz
  5182     146F  2C6A               	goto	u4125
  5183     1470                     l4033:
  5184     1470  0872               	movf	___wmul@multiplier,w
  5185     1471  0473               	iorwf	___wmul@multiplier+1,w
  5186     1472  1D03               	btfss	3,2
  5187     1473  2C75               	goto	u4131
  5188     1474  2C76               	goto	u4130
  5189     1475                     u4131:
  5190     1475  2C58               	goto	l4027
  5191     1476                     u4130:
  5192     1476                     l4035:
  5193     1476  0877               	movf	___wmul@product+1,w
  5194     1477  00F3               	movwf	?___wmul+1
  5195     1478  0876               	movf	___wmul@product,w
  5196     1479  00F2               	movwf	?___wmul
  5197     147A                     l461:
  5198     147A  0008               	return
  5199     147B                     __end_of___wmul:
  5200                           
  5201                           	psect	text9
  5202     0775                     __ptext9:	
  5203 ;; *************** function ___fltol *****************
  5204 ;; Defined at:
  5205 ;;		line 43 in file "C:\Program Files\Microchip\xc8\v2.45\pic\sources\c99\common\fltol.c"
  5206 ;; Parameters:    Size  Location     Type
  5207 ;;  f1              4   36[BANK0 ] unsigned int 
  5208 ;; Auto vars:     Size  Location     Type
  5209 ;;  exp1            1    7[COMMON] unsigned char 
  5210 ;;  sign1           1    6[COMMON] unsigned char 
  5211 ;; Return value:  Size  Location     Type
  5212 ;;                  4   36[BANK0 ] long 
  5213 ;; Registers used:
  5214 ;;		wreg, status,2, status,0, btemp+1
  5215 ;; Tracked objects:
  5216 ;;		On entry : 0/0
  5217 ;;		On exit  : 0/0
  5218 ;;		Unchanged: 0/0
  5219 ;; Data sizes:     COMMON   BANK0   BANK1   BANK3   BANK2
  5220 ;;      Params:         0       4       0       0       0
  5221 ;;      Locals:         2       0       0       0       0
  5222 ;;      Temps:          0       4       0       0       0
  5223 ;;      Totals:         2       8       0       0       0
  5224 ;;Total ram usage:       10 bytes
  5225 ;; Hardware stack levels used: 1
  5226 ;; Hardware stack levels required when called: 1
  5227 ;; This function calls:
  5228 ;;		Nothing
  5229 ;; This function is called by:
  5230 ;;		_run_program
  5231 ;; This function uses a non-reentrant model
  5232 ;;
  5233                           
  5234     0775                     ___fltol:	
  5235                           ;psect for function ___fltol
  5236                           
  5237     0775                     l4141:	
  5238                           ;incstack = 0
  5239                           ; Regs used in ___fltol: [wreg+status,2+status,0+btemp+1]
  5240                           
  5241     0775  1003               	clrc
  5242     0776  1283               	bcf	3,5	;RP0=0, select bank0
  5243     0777  1303               	bcf	3,6	;RP1=0, select bank0
  5244     0778  0D46               	rlf	___fltol@f1+2,w
  5245     0779  0D47               	rlf	___fltol@f1+3,w
  5246     077A  00F7               	movwf	___fltol@exp1
  5247     077B  0877               	movf	___fltol@exp1,w
  5248     077C  1D03               	btfss	3,2
  5249     077D  2F7F               	goto	u4401
  5250     077E  2F80               	goto	u4400
  5251     077F                     u4401:
  5252     077F  2F89               	goto	l4147
  5253     0780                     u4400:
  5254     0780                     l4143:
  5255     0780  3000               	movlw	0
  5256     0781  00C7               	movwf	?___fltol+3
  5257     0782  3000               	movlw	0
  5258     0783  00C6               	movwf	?___fltol+2
  5259     0784  3000               	movlw	0
  5260     0785  00C5               	movwf	?___fltol+1
  5261     0786  3000               	movlw	0
  5262     0787  00C4               	movwf	?___fltol
  5263     0788  2FEC               	goto	l653
  5264     0789                     l4147:
  5265     0789  0844               	movf	___fltol@f1,w
  5266     078A  00C8               	movwf	??___fltol
  5267     078B  0845               	movf	___fltol@f1+1,w
  5268     078C  00C9               	movwf	??___fltol+1
  5269     078D  0846               	movf	___fltol@f1+2,w
  5270     078E  00CA               	movwf	??___fltol+2
  5271     078F  0847               	movf	___fltol@f1+3,w
  5272     0790  00CB               	movwf	??___fltol+3
  5273     0791  301F               	movlw	31
  5274     0792                     u4415:
  5275     0792  1003               	clrc
  5276     0793  0CCB               	rrf	??___fltol+3,f
  5277     0794  0CCA               	rrf	??___fltol+2,f
  5278     0795  0CC9               	rrf	??___fltol+1,f
  5279     0796  0CC8               	rrf	??___fltol,f
  5280     0797                     u4410:
  5281     0797  3EFF               	addlw	-1
  5282     0798  1D03               	skipz
  5283     0799  2F92               	goto	u4415
  5284     079A  0848               	movf	??___fltol,w
  5285     079B  00F6               	movwf	___fltol@sign1
  5286     079C                     l4149:
  5287     079C  17C6               	bsf	___fltol@f1+2,7
  5288     079D                     l4151:
  5289     079D  30FF               	movlw	255
  5290     079E  05C4               	andwf	___fltol@f1,f
  5291     079F  30FF               	movlw	255
  5292     07A0  05C5               	andwf	___fltol@f1+1,f
  5293     07A1  30FF               	movlw	255
  5294     07A2  05C6               	andwf	___fltol@f1+2,f
  5295     07A3  3000               	movlw	0
  5296     07A4  05C7               	andwf	___fltol@f1+3,f
  5297     07A5                     l4153:
  5298     07A5  3096               	movlw	150
  5299     07A6  02F7               	subwf	___fltol@exp1,f
  5300     07A7                     l4155:
  5301     07A7  1FF7               	btfss	___fltol@exp1,7
  5302     07A8  2FAA               	goto	u4421
  5303     07A9  2FAB               	goto	u4420
  5304     07AA                     u4421:
  5305     07AA  2FC5               	goto	l4167
  5306     07AB                     u4420:
  5307     07AB                     l4157:
  5308     07AB  0877               	movf	___fltol@exp1,w
  5309     07AC  3A80               	xorlw	128
  5310     07AD  3E97               	addlw	151
  5311     07AE  1803               	skipnc
  5312     07AF  2FB1               	goto	u4431
  5313     07B0  2FB2               	goto	u4430
  5314     07B1                     u4431:
  5315     07B1  2FB3               	goto	l4163
  5316     07B2                     u4430:
  5317     07B2  2F80               	goto	l4143
  5318     07B3                     l4163:
  5319     07B3  3001               	movlw	1
  5320     07B4                     u4445:
  5321     07B4  1003               	clrc
  5322     07B5  0CC7               	rrf	___fltol@f1+3,f
  5323     07B6  0CC6               	rrf	___fltol@f1+2,f
  5324     07B7  0CC5               	rrf	___fltol@f1+1,f
  5325     07B8  0CC4               	rrf	___fltol@f1,f
  5326     07B9  3EFF               	addlw	-1
  5327     07BA  1D03               	skipz
  5328     07BB  2FB4               	goto	u4445
  5329     07BC                     l4165:
  5330     07BC  3001               	movlw	1
  5331     07BD  00FF               	movwf	btemp+1
  5332     07BE  087F               	movf	btemp+1,w
  5333     07BF  07F7               	addwf	___fltol@exp1,f
  5334     07C0  1D03               	btfss	3,2
  5335     07C1  2FC3               	goto	u4451
  5336     07C2  2FC4               	goto	u4450
  5337     07C3                     u4451:
  5338     07C3  2FB3               	goto	l4163
  5339     07C4                     u4450:
  5340     07C4  2FDC               	goto	l4175
  5341     07C5                     l4167:
  5342     07C5  3020               	movlw	32
  5343     07C6  0277               	subwf	___fltol@exp1,w
  5344     07C7  1C03               	skipc
  5345     07C8  2FCA               	goto	u4461
  5346     07C9  2FCB               	goto	u4460
  5347     07CA                     u4461:
  5348     07CA  2FD7               	goto	l660
  5349     07CB                     u4460:
  5350     07CB  2F80               	goto	l4143
  5351     07CC                     l4173:
  5352     07CC  3001               	movlw	1
  5353     07CD  00C8               	movwf	??___fltol
  5354     07CE                     u4475:
  5355     07CE  1003               	clrc
  5356     07CF  0DC4               	rlf	___fltol@f1,f
  5357     07D0  0DC5               	rlf	___fltol@f1+1,f
  5358     07D1  0DC6               	rlf	___fltol@f1+2,f
  5359     07D2  0DC7               	rlf	___fltol@f1+3,f
  5360     07D3  0BC8               	decfsz	??___fltol,f
  5361     07D4  2FCE               	goto	u4475
  5362     07D5  3001               	movlw	1
  5363     07D6  02F7               	subwf	___fltol@exp1,f
  5364     07D7                     l660:
  5365     07D7  0877               	movf	___fltol@exp1,w
  5366     07D8  1D03               	btfss	3,2
  5367     07D9  2FDB               	goto	u4481
  5368     07DA  2FDC               	goto	u4480
  5369     07DB                     u4481:
  5370     07DB  2FCC               	goto	l4173
  5371     07DC                     u4480:
  5372     07DC                     l4175:
  5373     07DC  0876               	movf	___fltol@sign1,w
  5374     07DD  1903               	btfsc	3,2
  5375     07DE  2FE0               	goto	u4491
  5376     07DF  2FE1               	goto	u4490
  5377     07E0                     u4491:
  5378     07E0  2FEC               	goto	l663
  5379     07E1                     u4490:
  5380     07E1                     l4177:
  5381     07E1  09C4               	comf	___fltol@f1,f
  5382     07E2  09C5               	comf	___fltol@f1+1,f
  5383     07E3  09C6               	comf	___fltol@f1+2,f
  5384     07E4  09C7               	comf	___fltol@f1+3,f
  5385     07E5  0AC4               	incf	___fltol@f1,f
  5386     07E6  1903               	skipnz
  5387     07E7  0AC5               	incf	___fltol@f1+1,f
  5388     07E8  1903               	skipnz
  5389     07E9  0AC6               	incf	___fltol@f1+2,f
  5390     07EA  1903               	skipnz
  5391     07EB  0AC7               	incf	___fltol@f1+3,f
  5392     07EC                     l663:
  5393     07EC                     l653:
  5394     07EC  0008               	return
  5395     07ED                     __end_of___fltol:
  5396                           
  5397                           	psect	text10
  5398     1432                     __ptext10:	
  5399 ;; *************** function ___flsub *****************
  5400 ;; Defined at:
  5401 ;;		line 242 in file "C:\Program Files\Microchip\xc8\v2.45\pic\sources\c99\common\sprcadd.c"
  5402 ;; Parameters:    Size  Location     Type
  5403 ;;  a               4   36[BANK0 ] long 
  5404 ;;  b               4   40[BANK0 ] long 
  5405 ;; Auto vars:     Size  Location     Type
  5406 ;;		None
  5407 ;; Return value:  Size  Location     Type
  5408 ;;                  4   36[BANK0 ] long 
  5409 ;; Registers used:
  5410 ;;		wreg, status,2, status,0, btemp+1, pclath, cstack
  5411 ;; Tracked objects:
  5412 ;;		On entry : 0/0
  5413 ;;		On exit  : 0/0
  5414 ;;		Unchanged: 0/0
  5415 ;; Data sizes:     COMMON   BANK0   BANK1   BANK3   BANK2
  5416 ;;      Params:         0       8       0       0       0
  5417 ;;      Locals:         0       0       0       0       0
  5418 ;;      Temps:          0       0       0       0       0
  5419 ;;      Totals:         0       8       0       0       0
  5420 ;;Total ram usage:        8 bytes
  5421 ;; Hardware stack levels used: 1
  5422 ;; Hardware stack levels required when called: 2
  5423 ;; This function calls:
  5424 ;;		___fladd
  5425 ;; This function is called by:
  5426 ;;		_run_program
  5427 ;; This function uses a non-reentrant model
  5428 ;;
  5429                           
  5430     1432                     ___flsub:	
  5431                           ;psect for function ___flsub
  5432                           
  5433     1432                     l4179:	
  5434                           ;incstack = 0
  5435                           ; Regs used in ___flsub: [wreg+status,2+status,0+btemp+1+pclath+cstack]
  5436                           
  5437     1432  3080               	movlw	128
  5438     1433  1283               	bcf	3,5	;RP0=0, select bank0
  5439     1434  1303               	bcf	3,6	;RP1=0, select bank0
  5440     1435  06C7               	xorwf	___flsub@a+3,f
  5441     1436                     l4181:
  5442     1436  084B               	movf	___flsub@b+3,w
  5443     1437  00A3               	movwf	___fladd@b+3
  5444     1438  084A               	movf	___flsub@b+2,w
  5445     1439  00A2               	movwf	___fladd@b+2
  5446     143A  0849               	movf	___flsub@b+1,w
  5447     143B  00A1               	movwf	___fladd@b+1
  5448     143C  0848               	movf	___flsub@b,w
  5449     143D  00A0               	movwf	___fladd@b
  5450     143E  0847               	movf	___flsub@a+3,w
  5451     143F  00A7               	movwf	___fladd@a+3
  5452     1440  0846               	movf	___flsub@a+2,w
  5453     1441  00A6               	movwf	___fladd@a+2
  5454     1442  0845               	movf	___flsub@a+1,w
  5455     1443  00A5               	movwf	___fladd@a+1
  5456     1444  0844               	movf	___flsub@a,w
  5457     1445  00A4               	movwf	___fladd@a
  5458     1446  120A  158A  25A0  160A  118A  	fcall	___fladd
  5459     144B  1283               	bcf	3,5	;RP0=0, select bank0
  5460     144C  1303               	bcf	3,6	;RP1=0, select bank0
  5461     144D  0823               	movf	?___fladd+3,w
  5462     144E  00C7               	movwf	?___flsub+3
  5463     144F  0822               	movf	?___fladd+2,w
  5464     1450  00C6               	movwf	?___flsub+2
  5465     1451  0821               	movf	?___fladd+1,w
  5466     1452  00C5               	movwf	?___flsub+1
  5467     1453  0820               	movf	?___fladd,w
  5468     1454  00C4               	movwf	?___flsub
  5469     1455                     l806:
  5470     1455  0008               	return
  5471     1456                     __end_of___flsub:
  5472                           
  5473                           	psect	text11
  5474     0DA0                     __ptext11:	
  5475 ;; *************** function ___fladd *****************
  5476 ;; Defined at:
  5477 ;;		line 10 in file "C:\Program Files\Microchip\xc8\v2.45\pic\sources\c99\common\sprcadd.c"
  5478 ;; Parameters:    Size  Location     Type
  5479 ;;  b               4    0[BANK0 ] long 
  5480 ;;  a               4    4[BANK0 ] long 
  5481 ;; Auto vars:     Size  Location     Type
  5482 ;;  grs             1    5[COMMON] unsigned char 
  5483 ;;  bexp            1    4[COMMON] unsigned char 
  5484 ;;  aexp            1    3[COMMON] unsigned char 
  5485 ;;  signs           1    2[COMMON] unsigned char 
  5486 ;; Return value:  Size  Location     Type
  5487 ;;                  4    0[BANK0 ] unsigned char 
  5488 ;; Registers used:
  5489 ;;		wreg, status,2, status,0, btemp+1
  5490 ;; Tracked objects:
  5491 ;;		On entry : 0/0
  5492 ;;		On exit  : 0/0
  5493 ;;		Unchanged: 0/0
  5494 ;; Data sizes:     COMMON   BANK0   BANK1   BANK3   BANK2
  5495 ;;      Params:         0       8       0       0       0
  5496 ;;      Locals:         4       0       0       0       0
  5497 ;;      Temps:          0       8       0       0       0
  5498 ;;      Totals:         4      16       0       0       0
  5499 ;;Total ram usage:       20 bytes
  5500 ;; Hardware stack levels used: 1
  5501 ;; Hardware stack levels required when called: 1
  5502 ;; This function calls:
  5503 ;;		Nothing
  5504 ;; This function is called by:
  5505 ;;		___flsub
  5506 ;; This function uses a non-reentrant model
  5507 ;;
  5508                           
  5509     0DA0                     ___fladd:	
  5510                           ;psect for function ___fladd
  5511                           
  5512     0DA0                     l3757:	
  5513                           ;incstack = 0
  5514                           ; Regs used in ___fladd: [wreg+status,2+status,0+btemp+1]
  5515                           
  5516     0DA0  1283               	bcf	3,5	;RP0=0, select bank0
  5517     0DA1  1303               	bcf	3,6	;RP1=0, select bank0
  5518     0DA2  0823               	movf	___fladd@b+3,w
  5519     0DA3  3980               	andlw	128
  5520     0DA4  00F2               	movwf	___fladd@signs
  5521     0DA5                     l3759:
  5522     0DA5  0823               	movf	___fladd@b+3,w
  5523     0DA6  00A8               	movwf	??___fladd
  5524     0DA7  0728               	addwf	??___fladd,w
  5525     0DA8  00F4               	movwf	___fladd@bexp
  5526     0DA9                     l3761:
  5527     0DA9  1FA2               	btfss	___fladd@b+2,7
  5528     0DAA  2DAC               	goto	u3591
  5529     0DAB  2DAD               	goto	u3590
  5530     0DAC                     u3591:
  5531     0DAC  2DAE               	goto	l3765
  5532     0DAD                     u3590:
  5533     0DAD                     l3763:
  5534     0DAD  1474               	bsf	___fladd@bexp,0
  5535     0DAE                     l3765:
  5536     0DAE  0874               	movf	___fladd@bexp,w
  5537     0DAF  1903               	btfsc	3,2
  5538     0DB0  2DB2               	goto	u3601
  5539     0DB1  2DB3               	goto	u3600
  5540     0DB2                     u3601:
  5541     0DB2  2DC3               	goto	l3775
  5542     0DB3                     u3600:
  5543     0DB3                     l3767:
  5544     0DB3  0A74               	incf	___fladd@bexp,w
  5545     0DB4  1D03               	btfss	3,2
  5546     0DB5  2DB7               	goto	u3611
  5547     0DB6  2DB8               	goto	u3610
  5548     0DB7                     u3611:
  5549     0DB7  2DC0               	goto	l3771
  5550     0DB8                     u3610:
  5551     0DB8                     l3769:
  5552     0DB8  3000               	movlw	0
  5553     0DB9  00A3               	movwf	___fladd@b+3
  5554     0DBA  3000               	movlw	0
  5555     0DBB  00A2               	movwf	___fladd@b+2
  5556     0DBC  3000               	movlw	0
  5557     0DBD  00A1               	movwf	___fladd@b+1
  5558     0DBE  3000               	movlw	0
  5559     0DBF  00A0               	movwf	___fladd@b
  5560     0DC0                     l3771:
  5561     0DC0  17A2               	bsf	___fladd@b+2,7
  5562     0DC1                     l3773:
  5563     0DC1  01A3               	clrf	___fladd@b+3
  5564     0DC2  2DCB               	goto	l3777
  5565     0DC3                     l3775:
  5566     0DC3  3000               	movlw	0
  5567     0DC4  00A3               	movwf	___fladd@b+3
  5568     0DC5  3000               	movlw	0
  5569     0DC6  00A2               	movwf	___fladd@b+2
  5570     0DC7  3000               	movlw	0
  5571     0DC8  00A1               	movwf	___fladd@b+1
  5572     0DC9  3000               	movlw	0
  5573     0DCA  00A0               	movwf	___fladd@b
  5574     0DCB                     l3777:
  5575     0DCB  0827               	movf	___fladd@a+3,w
  5576     0DCC  3980               	andlw	128
  5577     0DCD  00F3               	movwf	___fladd@aexp
  5578     0DCE                     l3779:
  5579     0DCE  0873               	movf	___fladd@aexp,w
  5580     0DCF  0672               	xorwf	___fladd@signs,w
  5581     0DD0  1903               	skipnz
  5582     0DD1  2DD3               	goto	u3621
  5583     0DD2  2DD4               	goto	u3620
  5584     0DD3                     u3621:
  5585     0DD3  2DD5               	goto	l3783
  5586     0DD4                     u3620:
  5587     0DD4                     l3781:
  5588     0DD4  1772               	bsf	___fladd@signs,6
  5589     0DD5                     l3783:
  5590     0DD5  0827               	movf	___fladd@a+3,w
  5591     0DD6  00A8               	movwf	??___fladd
  5592     0DD7  0728               	addwf	??___fladd,w
  5593     0DD8  00F3               	movwf	___fladd@aexp
  5594     0DD9                     l3785:
  5595     0DD9  1FA6               	btfss	___fladd@a+2,7
  5596     0DDA  2DDC               	goto	u3631
  5597     0DDB  2DDD               	goto	u3630
  5598     0DDC                     u3631:
  5599     0DDC  2DDE               	goto	l3789
  5600     0DDD                     u3630:
  5601     0DDD                     l3787:
  5602     0DDD  1473               	bsf	___fladd@aexp,0
  5603     0DDE                     l3789:
  5604     0DDE  0873               	movf	___fladd@aexp,w
  5605     0DDF  1903               	btfsc	3,2
  5606     0DE0  2DE2               	goto	u3641
  5607     0DE1  2DE3               	goto	u3640
  5608     0DE2                     u3641:
  5609     0DE2  2DF3               	goto	l3799
  5610     0DE3                     u3640:
  5611     0DE3                     l3791:
  5612     0DE3  0A73               	incf	___fladd@aexp,w
  5613     0DE4  1D03               	btfss	3,2
  5614     0DE5  2DE7               	goto	u3651
  5615     0DE6  2DE8               	goto	u3650
  5616     0DE7                     u3651:
  5617     0DE7  2DF0               	goto	l3795
  5618     0DE8                     u3650:
  5619     0DE8                     l3793:
  5620     0DE8  3000               	movlw	0
  5621     0DE9  00A7               	movwf	___fladd@a+3
  5622     0DEA  3000               	movlw	0
  5623     0DEB  00A6               	movwf	___fladd@a+2
  5624     0DEC  3000               	movlw	0
  5625     0DED  00A5               	movwf	___fladd@a+1
  5626     0DEE  3000               	movlw	0
  5627     0DEF  00A4               	movwf	___fladd@a
  5628     0DF0                     l3795:
  5629     0DF0  17A6               	bsf	___fladd@a+2,7
  5630     0DF1                     l3797:
  5631     0DF1  01A7               	clrf	___fladd@a+3
  5632     0DF2  2DFB               	goto	l760
  5633     0DF3                     l3799:
  5634     0DF3  3000               	movlw	0
  5635     0DF4  00A7               	movwf	___fladd@a+3
  5636     0DF5  3000               	movlw	0
  5637     0DF6  00A6               	movwf	___fladd@a+2
  5638     0DF7  3000               	movlw	0
  5639     0DF8  00A5               	movwf	___fladd@a+1
  5640     0DF9  3000               	movlw	0
  5641     0DFA  00A4               	movwf	___fladd@a
  5642     0DFB                     l760:
  5643     0DFB  0874               	movf	___fladd@bexp,w
  5644     0DFC  0273               	subwf	___fladd@aexp,w
  5645     0DFD  1803               	skipnc
  5646     0DFE  2E00               	goto	u3661
  5647     0DFF  2E01               	goto	u3660
  5648     0E00                     u3661:
  5649     0E00  2E27               	goto	l3835
  5650     0E01                     u3660:
  5651     0E01                     l3801:
  5652     0E01  1F72               	btfss	___fladd@signs,6
  5653     0E02  2E04               	goto	u3671
  5654     0E03  2E05               	goto	u3670
  5655     0E04                     u3671:
  5656     0E04  2E09               	goto	l3805
  5657     0E05                     u3670:
  5658     0E05                     l3803:
  5659     0E05  3080               	movlw	128
  5660     0E06  00FF               	movwf	btemp+1
  5661     0E07  087F               	movf	btemp+1,w
  5662     0E08  06F2               	xorwf	___fladd@signs,f
  5663     0E09                     l3805:
  5664     0E09  0874               	movf	___fladd@bexp,w
  5665     0E0A  00F5               	movwf	___fladd@grs
  5666     0E0B                     l3807:
  5667     0E0B  0873               	movf	___fladd@aexp,w
  5668     0E0C  00F4               	movwf	___fladd@bexp
  5669     0E0D                     l3809:
  5670     0E0D  0875               	movf	___fladd@grs,w
  5671     0E0E  00F3               	movwf	___fladd@aexp
  5672     0E0F                     l3811:
  5673     0E0F  0820               	movf	___fladd@b,w
  5674     0E10  00F5               	movwf	___fladd@grs
  5675     0E11                     l3813:
  5676     0E11  0824               	movf	___fladd@a,w
  5677     0E12  00A0               	movwf	___fladd@b
  5678     0E13                     l3815:
  5679     0E13  0875               	movf	___fladd@grs,w
  5680     0E14  00A4               	movwf	___fladd@a
  5681     0E15                     l3817:
  5682     0E15  0821               	movf	___fladd@b+1,w
  5683     0E16  00F5               	movwf	___fladd@grs
  5684     0E17                     l3819:
  5685     0E17  0825               	movf	___fladd@a+1,w
  5686     0E18  00A1               	movwf	___fladd@b+1
  5687     0E19                     l3821:
  5688     0E19  0875               	movf	___fladd@grs,w
  5689     0E1A  00A5               	movwf	___fladd@a+1
  5690     0E1B                     l3823:
  5691     0E1B  0822               	movf	___fladd@b+2,w
  5692     0E1C  00F5               	movwf	___fladd@grs
  5693     0E1D                     l3825:
  5694     0E1D  0826               	movf	___fladd@a+2,w
  5695     0E1E  00A2               	movwf	___fladd@b+2
  5696     0E1F                     l3827:
  5697     0E1F  0875               	movf	___fladd@grs,w
  5698     0E20  00A6               	movwf	___fladd@a+2
  5699     0E21                     l3829:
  5700     0E21  0823               	movf	___fladd@b+3,w
  5701     0E22  00F5               	movwf	___fladd@grs
  5702     0E23                     l3831:
  5703     0E23  0827               	movf	___fladd@a+3,w
  5704     0E24  00A3               	movwf	___fladd@b+3
  5705     0E25                     l3833:
  5706     0E25  0875               	movf	___fladd@grs,w
  5707     0E26  00A7               	movwf	___fladd@a+3
  5708     0E27                     l3835:
  5709     0E27  01F5               	clrf	___fladd@grs
  5710     0E28                     l3837:
  5711     0E28  0873               	movf	___fladd@aexp,w
  5712     0E29  00A8               	movwf	??___fladd
  5713     0E2A  01A9               	clrf	??___fladd+1
  5714     0E2B  0829               	movf	??___fladd+1,w
  5715     0E2C  00AB               	movwf	??___fladd+3
  5716     0E2D  0874               	movf	___fladd@bexp,w
  5717     0E2E  0228               	subwf	??___fladd,w
  5718     0E2F  00AA               	movwf	??___fladd+2
  5719     0E30  1C03               	skipc
  5720     0E31  03AB               	decf	??___fladd+3,f
  5721     0E32  082B               	movf	??___fladd+3,w
  5722     0E33  3A80               	xorlw	128
  5723     0E34  00FF               	movwf	btemp+1
  5724     0E35  3080               	movlw	128
  5725     0E36  027F               	subwf	btemp+1,w
  5726     0E37  1D03               	skipz
  5727     0E38  2E3B               	goto	u3685
  5728     0E39  301A               	movlw	26
  5729     0E3A  022A               	subwf	??___fladd+2,w
  5730     0E3B                     u3685:
  5731     0E3B  1C03               	skipc
  5732     0E3C  2E3E               	goto	u3681
  5733     0E3D  2E3F               	goto	u3680
  5734     0E3E                     u3681:
  5735     0E3E  2E7A               	goto	l3853
  5736     0E3F                     u3680:
  5737     0E3F                     l3839:
  5738     0E3F  1283               	bcf	3,5	;RP0=0, select bank0
  5739     0E40  1303               	bcf	3,6	;RP1=0, select bank0
  5740     0E41  0823               	movf	___fladd@b+3,w
  5741     0E42  0422               	iorwf	___fladd@b+2,w
  5742     0E43  0421               	iorwf	___fladd@b+1,w
  5743     0E44  0420               	iorwf	___fladd@b,w
  5744     0E45  1D03               	skipz
  5745     0E46  2E48               	goto	u3691
  5746     0E47  2E4A               	goto	u3690
  5747     0E48                     u3691:
  5748     0E48  3001               	movlw	1
  5749     0E49  2E4B               	goto	u3700
  5750     0E4A                     u3690:
  5751     0E4A  3000               	movlw	0
  5752     0E4B                     u3700:
  5753     0E4B  00F5               	movwf	___fladd@grs
  5754     0E4C  3000               	movlw	0
  5755     0E4D  00A3               	movwf	___fladd@b+3
  5756     0E4E  3000               	movlw	0
  5757     0E4F  00A2               	movwf	___fladd@b+2
  5758     0E50  3000               	movlw	0
  5759     0E51  00A1               	movwf	___fladd@b+1
  5760     0E52  3000               	movlw	0
  5761     0E53  00A0               	movwf	___fladd@b
  5762     0E54  0873               	movf	___fladd@aexp,w
  5763     0E55  00F4               	movwf	___fladd@bexp
  5764     0E56  2E80               	goto	l764
  5765     0E57                     l766:
  5766     0E57  1C75               	btfss	___fladd@grs,0
  5767     0E58  2E5A               	goto	u3711
  5768     0E59  2E5B               	goto	u3710
  5769     0E5A                     u3711:
  5770     0E5A  2E64               	goto	l3843
  5771     0E5B                     u3710:
  5772     0E5B                     l3841:
  5773     0E5B  0875               	movf	___fladd@grs,w
  5774     0E5C  1283               	bcf	3,5	;RP0=0, select bank0
  5775     0E5D  1303               	bcf	3,6	;RP1=0, select bank0
  5776     0E5E  00A8               	movwf	??___fladd
  5777     0E5F  1003               	clrc
  5778     0E60  0C28               	rrf	??___fladd,w
  5779     0E61  3801               	iorlw	1
  5780     0E62  00F5               	movwf	___fladd@grs
  5781     0E63  2E66               	goto	l3845
  5782     0E64                     l3843:
  5783     0E64  1003               	clrc
  5784     0E65  0CF5               	rrf	___fladd@grs,f
  5785     0E66                     l3845:
  5786     0E66  1283               	bcf	3,5	;RP0=0, select bank0
  5787     0E67  1303               	bcf	3,6	;RP1=0, select bank0
  5788     0E68  1C20               	btfss	___fladd@b,0
  5789     0E69  2E6B               	goto	u3721
  5790     0E6A  2E6C               	goto	u3720
  5791     0E6B                     u3721:
  5792     0E6B  2E6D               	goto	l3849
  5793     0E6C                     u3720:
  5794     0E6C                     l3847:
  5795     0E6C  17F5               	bsf	___fladd@grs,7
  5796     0E6D                     l3849:
  5797     0E6D  3001               	movlw	1
  5798     0E6E  00A8               	movwf	??___fladd
  5799     0E6F                     u3735:
  5800     0E6F  0D23               	rlf	___fladd@b+3,w
  5801     0E70  0CA3               	rrf	___fladd@b+3,f
  5802     0E71  0CA2               	rrf	___fladd@b+2,f
  5803     0E72  0CA1               	rrf	___fladd@b+1,f
  5804     0E73  0CA0               	rrf	___fladd@b,f
  5805     0E74  0BA8               	decfsz	??___fladd& (0+127),f
  5806     0E75  2E6F               	goto	u3735
  5807     0E76                     l3851:
  5808     0E76  3001               	movlw	1
  5809     0E77  00FF               	movwf	btemp+1
  5810     0E78  087F               	movf	btemp+1,w
  5811     0E79  07F4               	addwf	___fladd@bexp,f
  5812     0E7A                     l3853:
  5813     0E7A  0873               	movf	___fladd@aexp,w
  5814     0E7B  0274               	subwf	___fladd@bexp,w
  5815     0E7C  1C03               	skipc
  5816     0E7D  2E7F               	goto	u3741
  5817     0E7E  2E80               	goto	u3740
  5818     0E7F                     u3741:
  5819     0E7F  2E57               	goto	l766
  5820     0E80                     u3740:
  5821     0E80                     l764:
  5822     0E80  1B72               	btfsc	___fladd@signs,6
  5823     0E81  2E83               	goto	u3751
  5824     0E82  2E84               	goto	u3750
  5825     0E83                     u3751:
  5826     0E83  2ED1               	goto	l3879
  5827     0E84                     u3750:
  5828     0E84                     l3855:
  5829     0E84  0874               	movf	___fladd@bexp,w
  5830     0E85  1D03               	btfss	3,2
  5831     0E86  2E88               	goto	u3761
  5832     0E87  2E89               	goto	u3760
  5833     0E88                     u3761:
  5834     0E88  2E94               	goto	l3861
  5835     0E89                     u3760:
  5836     0E89                     l3857:
  5837     0E89  3000               	movlw	0
  5838     0E8A  1283               	bcf	3,5	;RP0=0, select bank0
  5839     0E8B  1303               	bcf	3,6	;RP1=0, select bank0
  5840     0E8C  00A3               	movwf	?___fladd+3
  5841     0E8D  3000               	movlw	0
  5842     0E8E  00A2               	movwf	?___fladd+2
  5843     0E8F  3000               	movlw	0
  5844     0E90  00A1               	movwf	?___fladd+1
  5845     0E91  3000               	movlw	0
  5846     0E92  00A0               	movwf	?___fladd
  5847     0E93  2FFF               	goto	l773
  5848     0E94                     l3861:
  5849     0E94  1283               	bcf	3,5	;RP0=0, select bank0
  5850     0E95  1303               	bcf	3,6	;RP1=0, select bank0
  5851     0E96  0824               	movf	___fladd@a,w
  5852     0E97  07A0               	addwf	___fladd@b,f
  5853     0E98  0825               	movf	___fladd@a+1,w
  5854     0E99  1103               	clrz
  5855     0E9A  1803               	skipnc
  5856     0E9B  3E01               	addlw	1
  5857     0E9C  1903               	skipnz
  5858     0E9D  2E9F               	goto	u3771
  5859     0E9E  07A1               	addwf	___fladd@b+1,f
  5860     0E9F                     u3771:
  5861     0E9F  0826               	movf	___fladd@a+2,w
  5862     0EA0  1103               	clrz
  5863     0EA1  1803               	skipnc
  5864     0EA2  3E01               	addlw	1
  5865     0EA3  1903               	skipnz
  5866     0EA4  2EA6               	goto	u3772
  5867     0EA5  07A2               	addwf	___fladd@b+2,f
  5868     0EA6                     u3772:
  5869     0EA6  0827               	movf	___fladd@a+3,w
  5870     0EA7  1103               	clrz
  5871     0EA8  1803               	skipnc
  5872     0EA9  3E01               	addlw	1
  5873     0EAA  1903               	skipnz
  5874     0EAB  2EAD               	goto	u3773
  5875     0EAC  07A3               	addwf	___fladd@b+3,f
  5876     0EAD                     u3773:
  5877     0EAD                     l3863:
  5878     0EAD  1C23               	btfss	___fladd@b+3,0
  5879     0EAE  2EB0               	goto	u3781
  5880     0EAF  2EB1               	goto	u3780
  5881     0EB0                     u3781:
  5882     0EB0  2F87               	goto	l3915
  5883     0EB1                     u3780:
  5884     0EB1                     l3865:
  5885     0EB1  1C75               	btfss	___fladd@grs,0
  5886     0EB2  2EB4               	goto	u3791
  5887     0EB3  2EB5               	goto	u3790
  5888     0EB4                     u3791:
  5889     0EB4  2EBC               	goto	l3869
  5890     0EB5                     u3790:
  5891     0EB5                     l3867:
  5892     0EB5  0875               	movf	___fladd@grs,w
  5893     0EB6  00A8               	movwf	??___fladd
  5894     0EB7  1003               	clrc
  5895     0EB8  0C28               	rrf	??___fladd,w
  5896     0EB9  3801               	iorlw	1
  5897     0EBA  00F5               	movwf	___fladd@grs
  5898     0EBB  2EBE               	goto	l3871
  5899     0EBC                     l3869:
  5900     0EBC  1003               	clrc
  5901     0EBD  0CF5               	rrf	___fladd@grs,f
  5902     0EBE                     l3871:
  5903     0EBE  1C20               	btfss	___fladd@b,0
  5904     0EBF  2EC1               	goto	u3801
  5905     0EC0  2EC2               	goto	u3800
  5906     0EC1                     u3801:
  5907     0EC1  2EC3               	goto	l3875
  5908     0EC2                     u3800:
  5909     0EC2                     l3873:
  5910     0EC2  17F5               	bsf	___fladd@grs,7
  5911     0EC3                     l3875:
  5912     0EC3  3001               	movlw	1
  5913     0EC4  00A8               	movwf	??___fladd
  5914     0EC5                     u3815:
  5915     0EC5  0D23               	rlf	___fladd@b+3,w
  5916     0EC6  0CA3               	rrf	___fladd@b+3,f
  5917     0EC7  0CA2               	rrf	___fladd@b+2,f
  5918     0EC8  0CA1               	rrf	___fladd@b+1,f
  5919     0EC9  0CA0               	rrf	___fladd@b,f
  5920     0ECA  0BA8               	decfsz	??___fladd& (0+127),f
  5921     0ECB  2EC5               	goto	u3815
  5922     0ECC                     l3877:
  5923     0ECC  3001               	movlw	1
  5924     0ECD  00FF               	movwf	btemp+1
  5925     0ECE  087F               	movf	btemp+1,w
  5926     0ECF  07F4               	addwf	___fladd@bexp,f
  5927     0ED0  2F87               	goto	l3915
  5928     0ED1                     l3879:
  5929     0ED1  1283               	bcf	3,5	;RP0=0, select bank0
  5930     0ED2  1303               	bcf	3,6	;RP1=0, select bank0
  5931     0ED3  0823               	movf	___fladd@b+3,w
  5932     0ED4  3A80               	xorlw	128
  5933     0ED5  00FF               	movwf	btemp+1
  5934     0ED6  0827               	movf	___fladd@a+3,w
  5935     0ED7  3A80               	xorlw	128
  5936     0ED8  027F               	subwf	btemp+1,w
  5937     0ED9  1D03               	skipz
  5938     0EDA  2EE5               	goto	u3823
  5939     0EDB  0826               	movf	___fladd@a+2,w
  5940     0EDC  0222               	subwf	___fladd@b+2,w
  5941     0EDD  1D03               	skipz
  5942     0EDE  2EE5               	goto	u3823
  5943     0EDF  0825               	movf	___fladd@a+1,w
  5944     0EE0  0221               	subwf	___fladd@b+1,w
  5945     0EE1  1D03               	skipz
  5946     0EE2  2EE5               	goto	u3823
  5947     0EE3  0824               	movf	___fladd@a,w
  5948     0EE4  0220               	subwf	___fladd@b,w
  5949     0EE5                     u3823:
  5950     0EE5  1803               	skipnc
  5951     0EE6  2EE8               	goto	u3821
  5952     0EE7  2EE9               	goto	u3820
  5953     0EE8                     u3821:
  5954     0EE8  2F41               	goto	l3891
  5955     0EE9                     u3820:
  5956     0EE9                     l3881:
  5957     0EE9  30FF               	movlw	255
  5958     0EEA  00A8               	movwf	??___fladd
  5959     0EEB  30FF               	movlw	255
  5960     0EEC  00A9               	movwf	??___fladd+1
  5961     0EED  30FF               	movlw	255
  5962     0EEE  00AA               	movwf	??___fladd+2
  5963     0EEF  30FF               	movlw	255
  5964     0EF0  00AB               	movwf	??___fladd+3
  5965     0EF1  0824               	movf	___fladd@a,w
  5966     0EF2  00AC               	movwf	??___fladd+4
  5967     0EF3  0825               	movf	___fladd@a+1,w
  5968     0EF4  00AD               	movwf	??___fladd+5
  5969     0EF5  0826               	movf	___fladd@a+2,w
  5970     0EF6  00AE               	movwf	??___fladd+6
  5971     0EF7  0827               	movf	___fladd@a+3,w
  5972     0EF8  00AF               	movwf	??___fladd+7
  5973     0EF9  0820               	movf	___fladd@b,w
  5974     0EFA  02AC               	subwf	??___fladd+4,f
  5975     0EFB  0821               	movf	___fladd@b+1,w
  5976     0EFC  1C03               	skipc
  5977     0EFD  0F21               	incfsz	___fladd@b+1,w
  5978     0EFE  2F00               	goto	u3831
  5979     0EFF  2F01               	goto	u3832
  5980     0F00                     u3831:
  5981     0F00  02AD               	subwf	??___fladd+5,f
  5982     0F01                     u3832:
  5983     0F01  0822               	movf	___fladd@b+2,w
  5984     0F02  1C03               	skipc
  5985     0F03  0F22               	incfsz	___fladd@b+2,w
  5986     0F04  2F06               	goto	u3833
  5987     0F05  2F07               	goto	u3834
  5988     0F06                     u3833:
  5989     0F06  02AE               	subwf	??___fladd+6,f
  5990     0F07                     u3834:
  5991     0F07  0823               	movf	___fladd@b+3,w
  5992     0F08  1C03               	skipc
  5993     0F09  0F23               	incfsz	___fladd@b+3,w
  5994     0F0A  2F0C               	goto	u3835
  5995     0F0B  2F0D               	goto	u3836
  5996     0F0C                     u3835:
  5997     0F0C  02AF               	subwf	??___fladd+7,f
  5998     0F0D                     u3836:
  5999     0F0D  082C               	movf	??___fladd+4,w
  6000     0F0E  07A8               	addwf	??___fladd,f
  6001     0F0F  082D               	movf	??___fladd+5,w
  6002     0F10  1803               	skipnc
  6003     0F11  0F2D               	incfsz	??___fladd+5,w
  6004     0F12  2F14               	goto	u3840
  6005     0F13  2F15               	goto	u3841
  6006     0F14                     u3840:
  6007     0F14  07A9               	addwf	??___fladd+1,f
  6008     0F15                     u3841:
  6009     0F15  082E               	movf	??___fladd+6,w
  6010     0F16  1803               	skipnc
  6011     0F17  0F2E               	incfsz	??___fladd+6,w
  6012     0F18  2F1A               	goto	u3842
  6013     0F19  2F1B               	goto	u3843
  6014     0F1A                     u3842:
  6015     0F1A  07AA               	addwf	??___fladd+2,f
  6016     0F1B                     u3843:
  6017     0F1B  082F               	movf	??___fladd+7,w
  6018     0F1C  1803               	skipnc
  6019     0F1D  0A2F               	incf	??___fladd+7,w
  6020     0F1E  07AB               	addwf	??___fladd+3,f
  6021     0F1F  082B               	movf	??___fladd+3,w
  6022     0F20  00A3               	movwf	___fladd@b+3
  6023     0F21  082A               	movf	??___fladd+2,w
  6024     0F22  00A2               	movwf	___fladd@b+2
  6025     0F23  0829               	movf	??___fladd+1,w
  6026     0F24  00A1               	movwf	___fladd@b+1
  6027     0F25  0828               	movf	??___fladd,w
  6028     0F26  00A0               	movwf	___fladd@b
  6029     0F27                     l3883:
  6030     0F27  3080               	movlw	128
  6031     0F28  00FF               	movwf	btemp+1
  6032     0F29  087F               	movf	btemp+1,w
  6033     0F2A  06F2               	xorwf	___fladd@signs,f
  6034     0F2B                     l3885:
  6035     0F2B  09F5               	comf	___fladd@grs,f
  6036     0F2C  0AF5               	incf	___fladd@grs,f
  6037     0F2D                     l3887:
  6038     0F2D  0875               	movf	___fladd@grs,w
  6039     0F2E  1D03               	btfss	3,2
  6040     0F2F  2F31               	goto	u3851
  6041     0F30  2F32               	goto	u3850
  6042     0F31                     u3851:
  6043     0F31  2F4F               	goto	l781
  6044     0F32                     u3850:
  6045     0F32                     l3889:
  6046     0F32  3001               	movlw	1
  6047     0F33  07A0               	addwf	___fladd@b,f
  6048     0F34  3000               	movlw	0
  6049     0F35  1803               	skipnc
  6050     0F36  3001               	movlw	1
  6051     0F37  07A1               	addwf	___fladd@b+1,f
  6052     0F38  3000               	movlw	0
  6053     0F39  1803               	skipnc
  6054     0F3A  3001               	movlw	1
  6055     0F3B  07A2               	addwf	___fladd@b+2,f
  6056     0F3C  3000               	movlw	0
  6057     0F3D  1803               	skipnc
  6058     0F3E  3001               	movlw	1
  6059     0F3F  07A3               	addwf	___fladd@b+3,f
  6060     0F40  2F4F               	goto	l781
  6061     0F41                     l3891:
  6062     0F41  0824               	movf	___fladd@a,w
  6063     0F42  02A0               	subwf	___fladd@b,f
  6064     0F43  0825               	movf	___fladd@a+1,w
  6065     0F44  1C03               	skipc
  6066     0F45  0F25               	incfsz	___fladd@a+1,w
  6067     0F46  02A1               	subwf	___fladd@b+1,f
  6068     0F47  0826               	movf	___fladd@a+2,w
  6069     0F48  1C03               	skipc
  6070     0F49  0F26               	incfsz	___fladd@a+2,w
  6071     0F4A  02A2               	subwf	___fladd@b+2,f
  6072     0F4B  0827               	movf	___fladd@a+3,w
  6073     0F4C  1C03               	skipc
  6074     0F4D  0F27               	incfsz	___fladd@a+3,w
  6075     0F4E  02A3               	subwf	___fladd@b+3,f
  6076     0F4F                     l781:
  6077     0F4F  0823               	movf	___fladd@b+3,w
  6078     0F50  0422               	iorwf	___fladd@b+2,w
  6079     0F51  0421               	iorwf	___fladd@b+1,w
  6080     0F52  0420               	iorwf	___fladd@b,w
  6081     0F53  1D03               	skipz
  6082     0F54  2F56               	goto	u3861
  6083     0F55  2F57               	goto	u3860
  6084     0F56                     u3861:
  6085     0F56  2F83               	goto	l3913
  6086     0F57                     u3860:
  6087     0F57                     l3893:
  6088     0F57  0875               	movf	___fladd@grs,w
  6089     0F58  1D03               	btfss	3,2
  6090     0F59  2F5B               	goto	u3871
  6091     0F5A  2F5C               	goto	u3870
  6092     0F5B                     u3871:
  6093     0F5B  2F83               	goto	l3913
  6094     0F5C                     u3870:
  6095     0F5C                     l3895:
  6096     0F5C  3000               	movlw	0
  6097     0F5D  00A3               	movwf	?___fladd+3
  6098     0F5E  3000               	movlw	0
  6099     0F5F  00A2               	movwf	?___fladd+2
  6100     0F60  3000               	movlw	0
  6101     0F61  00A1               	movwf	?___fladd+1
  6102     0F62  3000               	movlw	0
  6103     0F63  00A0               	movwf	?___fladd
  6104     0F64  2FFF               	goto	l773
  6105     0F65                     l3899:
  6106     0F65  3001               	movlw	1
  6107     0F66  00A8               	movwf	??___fladd
  6108     0F67                     u3885:
  6109     0F67  1003               	clrc
  6110     0F68  0DA0               	rlf	___fladd@b,f
  6111     0F69  0DA1               	rlf	___fladd@b+1,f
  6112     0F6A  0DA2               	rlf	___fladd@b+2,f
  6113     0F6B  0DA3               	rlf	___fladd@b+3,f
  6114     0F6C  0BA8               	decfsz	??___fladd,f
  6115     0F6D  2F67               	goto	u3885
  6116     0F6E                     l3901:
  6117     0F6E  1FF5               	btfss	___fladd@grs,7
  6118     0F6F  2F71               	goto	u3891
  6119     0F70  2F72               	goto	u3890
  6120     0F71                     u3891:
  6121     0F71  2F73               	goto	l785
  6122     0F72                     u3890:
  6123     0F72                     l3903:
  6124     0F72  1420               	bsf	___fladd@b,0
  6125     0F73                     l785:
  6126     0F73  1C75               	btfss	___fladd@grs,0
  6127     0F74  2F76               	goto	u3901
  6128     0F75  2F77               	goto	u3900
  6129     0F76                     u3901:
  6130     0F76  2F7A               	goto	l3907
  6131     0F77                     u3900:
  6132     0F77                     l3905:
  6133     0F77  1403               	setc
  6134     0F78  0DF5               	rlf	___fladd@grs,f
  6135     0F79  2F7C               	goto	l3909
  6136     0F7A                     l3907:
  6137     0F7A  1003               	clrc
  6138     0F7B  0DF5               	rlf	___fladd@grs,f
  6139     0F7C                     l3909:
  6140     0F7C  0874               	movf	___fladd@bexp,w
  6141     0F7D  1903               	btfsc	3,2
  6142     0F7E  2F80               	goto	u3911
  6143     0F7F  2F81               	goto	u3910
  6144     0F80                     u3911:
  6145     0F80  2F83               	goto	l3913
  6146     0F81                     u3910:
  6147     0F81                     l3911:
  6148     0F81  3001               	movlw	1
  6149     0F82  02F4               	subwf	___fladd@bexp,f
  6150     0F83                     l3913:
  6151     0F83  1FA2               	btfss	___fladd@b+2,7
  6152     0F84  2F86               	goto	u3921
  6153     0F85  2F87               	goto	u3920
  6154     0F86                     u3921:
  6155     0F86  2F65               	goto	l3899
  6156     0F87                     u3920:
  6157     0F87                     l3915:
  6158     0F87  01F3               	clrf	___fladd@aexp
  6159     0F88                     l3917:
  6160     0F88  1FF5               	btfss	___fladd@grs,7
  6161     0F89  2F8B               	goto	u3931
  6162     0F8A  2F8C               	goto	u3930
  6163     0F8B                     u3931:
  6164     0F8B  2F9A               	goto	l3925
  6165     0F8C                     u3930:
  6166     0F8C                     l3919:
  6167     0F8C  0875               	movf	___fladd@grs,w
  6168     0F8D  397F               	andlw	127
  6169     0F8E  1903               	btfsc	3,2
  6170     0F8F  2F91               	goto	u3941
  6171     0F90  2F92               	goto	u3940
  6172     0F91                     u3941:
  6173     0F91  2F95               	goto	l791
  6174     0F92                     u3940:
  6175     0F92                     l3921:
  6176     0F92  01F3               	clrf	___fladd@aexp
  6177     0F93  0AF3               	incf	___fladd@aexp,f
  6178     0F94  2F9A               	goto	l3925
  6179     0F95                     l791:
  6180     0F95  1C20               	btfss	___fladd@b,0
  6181     0F96  2F98               	goto	u3951
  6182     0F97  2F99               	goto	u3950
  6183     0F98                     u3951:
  6184     0F98  2F9A               	goto	l3925
  6185     0F99                     u3950:
  6186     0F99  2F92               	goto	l3921
  6187     0F9A                     l3925:
  6188     0F9A  0873               	movf	___fladd@aexp,w
  6189     0F9B  1903               	btfsc	3,2
  6190     0F9C  2F9E               	goto	u3961
  6191     0F9D  2F9F               	goto	u3960
  6192     0F9E                     u3961:
  6193     0F9E  2FD3               	goto	l3935
  6194     0F9F                     u3960:
  6195     0F9F                     l3927:
  6196     0F9F  3001               	movlw	1
  6197     0FA0  07A0               	addwf	___fladd@b,f
  6198     0FA1  3000               	movlw	0
  6199     0FA2  1803               	skipnc
  6200     0FA3  3001               	movlw	1
  6201     0FA4  07A1               	addwf	___fladd@b+1,f
  6202     0FA5  3000               	movlw	0
  6203     0FA6  1803               	skipnc
  6204     0FA7  3001               	movlw	1
  6205     0FA8  07A2               	addwf	___fladd@b+2,f
  6206     0FA9  3000               	movlw	0
  6207     0FAA  1803               	skipnc
  6208     0FAB  3001               	movlw	1
  6209     0FAC  07A3               	addwf	___fladd@b+3,f
  6210     0FAD                     l3929:
  6211     0FAD  1C23               	btfss	___fladd@b+3,0
  6212     0FAE  2FB0               	goto	u3971
  6213     0FAF  2FB1               	goto	u3970
  6214     0FB0                     u3971:
  6215     0FB0  2FD3               	goto	l3935
  6216     0FB1                     u3970:
  6217     0FB1                     l3931:
  6218     0FB1  0820               	movf	___fladd@b,w
  6219     0FB2  00A8               	movwf	??___fladd
  6220     0FB3  0821               	movf	___fladd@b+1,w
  6221     0FB4  00A9               	movwf	??___fladd+1
  6222     0FB5  0822               	movf	___fladd@b+2,w
  6223     0FB6  00AA               	movwf	??___fladd+2
  6224     0FB7  0823               	movf	___fladd@b+3,w
  6225     0FB8  00AB               	movwf	??___fladd+3
  6226     0FB9  3001               	movlw	1
  6227     0FBA  00AC               	movwf	??___fladd+4
  6228     0FBB                     u3985:
  6229     0FBB  0D2B               	rlf	??___fladd+3,w
  6230     0FBC  0CAB               	rrf	??___fladd+3,f
  6231     0FBD  0CAA               	rrf	??___fladd+2,f
  6232     0FBE  0CA9               	rrf	??___fladd+1,f
  6233     0FBF  0CA8               	rrf	??___fladd,f
  6234     0FC0                     u3980:
  6235     0FC0  0BAC               	decfsz	??___fladd+4,f
  6236     0FC1  2FBB               	goto	u3985
  6237     0FC2  082B               	movf	??___fladd+3,w
  6238     0FC3  00A3               	movwf	___fladd@b+3
  6239     0FC4  082A               	movf	??___fladd+2,w
  6240     0FC5  00A2               	movwf	___fladd@b+2
  6241     0FC6  0829               	movf	??___fladd+1,w
  6242     0FC7  00A1               	movwf	___fladd@b+1
  6243     0FC8  0828               	movf	??___fladd,w
  6244     0FC9  00A0               	movwf	___fladd@b
  6245     0FCA  0A74               	incf	___fladd@bexp,w
  6246     0FCB  1903               	btfsc	3,2
  6247     0FCC  2FCE               	goto	u3991
  6248     0FCD  2FCF               	goto	u3990
  6249     0FCE                     u3991:
  6250     0FCE  2FD3               	goto	l3935
  6251     0FCF                     u3990:
  6252     0FCF                     l3933:
  6253     0FCF  3001               	movlw	1
  6254     0FD0  00FF               	movwf	btemp+1
  6255     0FD1  087F               	movf	btemp+1,w
  6256     0FD2  07F4               	addwf	___fladd@bexp,f
  6257     0FD3                     l3935:
  6258     0FD3  0A74               	incf	___fladd@bexp,w
  6259     0FD4  1903               	btfsc	3,2
  6260     0FD5  2FD7               	goto	u4001
  6261     0FD6  2FD8               	goto	u4000
  6262     0FD7                     u4001:
  6263     0FD7  2FDD               	goto	l3939
  6264     0FD8                     u4000:
  6265     0FD8                     l3937:
  6266     0FD8  0874               	movf	___fladd@bexp,w
  6267     0FD9  1D03               	btfss	3,2
  6268     0FDA  2FDC               	goto	u4011
  6269     0FDB  2FDD               	goto	u4010
  6270     0FDC                     u4011:
  6271     0FDC  2FEB               	goto	l3945
  6272     0FDD                     u4010:
  6273     0FDD                     l3939:
  6274     0FDD  3000               	movlw	0
  6275     0FDE  00A3               	movwf	___fladd@b+3
  6276     0FDF  3000               	movlw	0
  6277     0FE0  00A2               	movwf	___fladd@b+2
  6278     0FE1  3000               	movlw	0
  6279     0FE2  00A1               	movwf	___fladd@b+1
  6280     0FE3  3000               	movlw	0
  6281     0FE4  00A0               	movwf	___fladd@b
  6282     0FE5                     l3941:
  6283     0FE5  0874               	movf	___fladd@bexp,w
  6284     0FE6  1D03               	btfss	3,2
  6285     0FE7  2FE9               	goto	u4021
  6286     0FE8  2FEA               	goto	u4020
  6287     0FE9                     u4021:
  6288     0FE9  2FEB               	goto	l3945
  6289     0FEA                     u4020:
  6290     0FEA                     l3943:
  6291     0FEA  01F2               	clrf	___fladd@signs
  6292     0FEB                     l3945:
  6293     0FEB  1C74               	btfss	___fladd@bexp,0
  6294     0FEC  2FEE               	goto	u4031
  6295     0FED  2FEF               	goto	u4030
  6296     0FEE                     u4031:
  6297     0FEE  2FF1               	goto	l3949
  6298     0FEF                     u4030:
  6299     0FEF                     l3947:
  6300     0FEF  17A2               	bsf	___fladd@b+2,7
  6301     0FF0  2FF5               	goto	l3951
  6302     0FF1                     l3949:
  6303     0FF1  307F               	movlw	127
  6304     0FF2  00FF               	movwf	btemp+1
  6305     0FF3  087F               	movf	btemp+1,w
  6306     0FF4  05A2               	andwf	___fladd@b+2,f
  6307     0FF5                     l3951:
  6308     0FF5  0874               	movf	___fladd@bexp,w
  6309     0FF6  00A8               	movwf	??___fladd
  6310     0FF7  1003               	clrc
  6311     0FF8  0C28               	rrf	??___fladd,w
  6312     0FF9  00A3               	movwf	___fladd@b+3
  6313     0FFA                     l3953:
  6314     0FFA  1FF2               	btfss	___fladd@signs,7
  6315     0FFB  2FFD               	goto	u4041
  6316     0FFC  2FFE               	goto	u4040
  6317     0FFD                     u4041:
  6318     0FFD  2FFF               	goto	l803
  6319     0FFE                     u4040:
  6320     0FFE                     l3955:
  6321     0FFE  17A3               	bsf	___fladd@b+3,7
  6322     0FFF                     l803:
  6323     0FFF                     l773:
  6324     0FFF  0008               	return
  6325     1000                     __end_of___fladd:
  6326                           
  6327                           	psect	text12
  6328     0430                     __ptext12:	
  6329 ;; *************** function ___flmul *****************
  6330 ;; Defined at:
  6331 ;;		line 8 in file "C:\Program Files\Microchip\xc8\v2.45\pic\sources\c99\common\sprcmul.c"
  6332 ;; Parameters:    Size  Location     Type
  6333 ;;  b               4   10[BANK0 ] unsigned char 
  6334 ;;  a               4   14[BANK0 ] unsigned char 
  6335 ;; Auto vars:     Size  Location     Type
  6336 ;;  prod            4   30[BANK0 ] struct .
  6337 ;;  grs             4   25[BANK0 ] unsigned long 
  6338 ;;  temp            2   34[BANK0 ] struct .
  6339 ;;  bexp            1   29[BANK0 ] unsigned char 
  6340 ;;  aexp            1   24[BANK0 ] unsigned char 
  6341 ;;  sign            1   23[BANK0 ] unsigned char 
  6342 ;; Return value:  Size  Location     Type
  6343 ;;                  4   10[BANK0 ] unsigned char 
  6344 ;; Registers used:
  6345 ;;		wreg, status,2, status,0, btemp+1, pclath, cstack
  6346 ;; Tracked objects:
  6347 ;;		On entry : 0/0
  6348 ;;		On exit  : 0/0
  6349 ;;		Unchanged: 0/0
  6350 ;; Data sizes:     COMMON   BANK0   BANK1   BANK3   BANK2
  6351 ;;      Params:         0       8       0       0       0
  6352 ;;      Locals:         0      13       0       0       0
  6353 ;;      Temps:          0       5       0       0       0
  6354 ;;      Totals:         0      26       0       0       0
  6355 ;;Total ram usage:       26 bytes
  6356 ;; Hardware stack levels used: 1
  6357 ;; Hardware stack levels required when called: 2
  6358 ;; This function calls:
  6359 ;;		__Umul8_16
  6360 ;; This function is called by:
  6361 ;;		_run_program
  6362 ;; This function uses a non-reentrant model
  6363 ;;
  6364                           
  6365     0430                     ___flmul:	
  6366                           ;psect for function ___flmul
  6367                           
  6368     0430                     l4185:	
  6369                           ;incstack = 0
  6370                           ; Regs used in ___flmul: [wreg+status,2+status,0+btemp+1+pclath+cstack]
  6371                           
  6372     0430  1283               	bcf	3,5	;RP0=0, select bank0
  6373     0431  1303               	bcf	3,6	;RP1=0, select bank0
  6374     0432  082D               	movf	___flmul@b+3,w
  6375     0433  3980               	andlw	128
  6376     0434  00B7               	movwf	___flmul@sign
  6377     0435                     l4187:
  6378     0435  082D               	movf	___flmul@b+3,w
  6379     0436  00B2               	movwf	??___flmul
  6380     0437  0732               	addwf	??___flmul,w
  6381     0438  00BD               	movwf	___flmul@bexp
  6382     0439                     l4189:
  6383     0439  1FAC               	btfss	___flmul@b+2,7
  6384     043A  2C3C               	goto	u4501
  6385     043B  2C3D               	goto	u4500
  6386     043C                     u4501:
  6387     043C  2C3E               	goto	l4193
  6388     043D                     u4500:
  6389     043D                     l4191:
  6390     043D  143D               	bsf	___flmul@bexp,0
  6391     043E                     l4193:
  6392     043E  083D               	movf	___flmul@bexp,w
  6393     043F  1903               	btfsc	3,2
  6394     0440  2C42               	goto	u4511
  6395     0441  2C43               	goto	u4510
  6396     0442                     u4511:
  6397     0442  2C52               	goto	l4201
  6398     0443                     u4510:
  6399     0443                     l4195:
  6400     0443  0A3D               	incf	___flmul@bexp,w
  6401     0444  1D03               	btfss	3,2
  6402     0445  2C47               	goto	u4521
  6403     0446  2C48               	goto	u4520
  6404     0447                     u4521:
  6405     0447  2C50               	goto	l4199
  6406     0448                     u4520:
  6407     0448                     l4197:
  6408     0448  3000               	movlw	0
  6409     0449  00AD               	movwf	___flmul@b+3
  6410     044A  3000               	movlw	0
  6411     044B  00AC               	movwf	___flmul@b+2
  6412     044C  3000               	movlw	0
  6413     044D  00AB               	movwf	___flmul@b+1
  6414     044E  3000               	movlw	0
  6415     044F  00AA               	movwf	___flmul@b
  6416     0450                     l4199:
  6417     0450  17AC               	bsf	___flmul@b+2,7
  6418     0451  2C5A               	goto	l4203
  6419     0452                     l4201:
  6420     0452  3000               	movlw	0
  6421     0453  00AD               	movwf	___flmul@b+3
  6422     0454  3000               	movlw	0
  6423     0455  00AC               	movwf	___flmul@b+2
  6424     0456  3000               	movlw	0
  6425     0457  00AB               	movwf	___flmul@b+1
  6426     0458  3000               	movlw	0
  6427     0459  00AA               	movwf	___flmul@b
  6428     045A                     l4203:
  6429     045A  0831               	movf	___flmul@a+3,w
  6430     045B  3980               	andlw	128
  6431     045C  00FF               	movwf	btemp+1
  6432     045D  087F               	movf	btemp+1,w
  6433     045E  06B7               	xorwf	___flmul@sign,f
  6434     045F                     l4205:
  6435     045F  0831               	movf	___flmul@a+3,w
  6436     0460  00B2               	movwf	??___flmul
  6437     0461  0732               	addwf	??___flmul,w
  6438     0462  00B8               	movwf	___flmul@aexp
  6439     0463                     l4207:
  6440     0463  1FB0               	btfss	___flmul@a+2,7
  6441     0464  2C66               	goto	u4531
  6442     0465  2C67               	goto	u4530
  6443     0466                     u4531:
  6444     0466  2C68               	goto	l4211
  6445     0467                     u4530:
  6446     0467                     l4209:
  6447     0467  1438               	bsf	___flmul@aexp,0
  6448     0468                     l4211:
  6449     0468  0838               	movf	___flmul@aexp,w
  6450     0469  1903               	btfsc	3,2
  6451     046A  2C6C               	goto	u4541
  6452     046B  2C6D               	goto	u4540
  6453     046C                     u4541:
  6454     046C  2C7C               	goto	l4219
  6455     046D                     u4540:
  6456     046D                     l4213:
  6457     046D  0A38               	incf	___flmul@aexp,w
  6458     046E  1D03               	btfss	3,2
  6459     046F  2C71               	goto	u4551
  6460     0470  2C72               	goto	u4550
  6461     0471                     u4551:
  6462     0471  2C7A               	goto	l4217
  6463     0472                     u4550:
  6464     0472                     l4215:
  6465     0472  3000               	movlw	0
  6466     0473  00B1               	movwf	___flmul@a+3
  6467     0474  3000               	movlw	0
  6468     0475  00B0               	movwf	___flmul@a+2
  6469     0476  3000               	movlw	0
  6470     0477  00AF               	movwf	___flmul@a+1
  6471     0478  3000               	movlw	0
  6472     0479  00AE               	movwf	___flmul@a
  6473     047A                     l4217:
  6474     047A  17B0               	bsf	___flmul@a+2,7
  6475     047B  2C84               	goto	l4221
  6476     047C                     l4219:
  6477     047C  3000               	movlw	0
  6478     047D  00B1               	movwf	___flmul@a+3
  6479     047E  3000               	movlw	0
  6480     047F  00B0               	movwf	___flmul@a+2
  6481     0480  3000               	movlw	0
  6482     0481  00AF               	movwf	___flmul@a+1
  6483     0482  3000               	movlw	0
  6484     0483  00AE               	movwf	___flmul@a
  6485     0484                     l4221:
  6486     0484  0838               	movf	___flmul@aexp,w
  6487     0485  1903               	btfsc	3,2
  6488     0486  2C88               	goto	u4561
  6489     0487  2C89               	goto	u4560
  6490     0488                     u4561:
  6491     0488  2C8E               	goto	l4225
  6492     0489                     u4560:
  6493     0489                     l4223:
  6494     0489  083D               	movf	___flmul@bexp,w
  6495     048A  1D03               	btfss	3,2
  6496     048B  2C8D               	goto	u4571
  6497     048C  2C8E               	goto	u4570
  6498     048D                     u4571:
  6499     048D  2C97               	goto	l4229
  6500     048E                     u4570:
  6501     048E                     l4225:
  6502     048E  3000               	movlw	0
  6503     048F  00AD               	movwf	?___flmul+3
  6504     0490  3000               	movlw	0
  6505     0491  00AC               	movwf	?___flmul+2
  6506     0492  3000               	movlw	0
  6507     0493  00AB               	movwf	?___flmul+1
  6508     0494  3000               	movlw	0
  6509     0495  00AA               	movwf	?___flmul
  6510     0496  2F74               	goto	l856
  6511     0497                     l4229:
  6512     0497  082A               	movf	___flmul@b,w
  6513     0498  00F2               	movwf	__Umul8_16@multiplicand
  6514     0499  0830               	movf	___flmul@a+2,w
  6515     049A  160A  118A  247B  120A  118A  	fcall	__Umul8_16
  6516     049F  0873               	movf	?__Umul8_16+1,w
  6517     04A0  1283               	bcf	3,5	;RP0=0, select bank0
  6518     04A1  1303               	bcf	3,6	;RP1=0, select bank0
  6519     04A2  00C3               	movwf	___flmul@temp+1
  6520     04A3  0872               	movf	?__Umul8_16,w
  6521     04A4  00C2               	movwf	___flmul@temp
  6522     04A5                     l4231:
  6523     04A5  0842               	movf	___flmul@temp,w
  6524     04A6  00B2               	movwf	??___flmul
  6525     04A7  01B3               	clrf	??___flmul+1
  6526     04A8  01B4               	clrf	??___flmul+2
  6527     04A9  01B5               	clrf	??___flmul+3
  6528     04AA  0835               	movf	??___flmul+3,w
  6529     04AB  00BC               	movwf	___flmul@grs+3
  6530     04AC  0834               	movf	??___flmul+2,w
  6531     04AD  00BB               	movwf	___flmul@grs+2
  6532     04AE  0833               	movf	??___flmul+1,w
  6533     04AF  00BA               	movwf	___flmul@grs+1
  6534     04B0  0832               	movf	??___flmul,w
  6535     04B1  00B9               	movwf	___flmul@grs
  6536     04B2                     l4233:
  6537     04B2  0843               	movf	___flmul@temp+1,w
  6538     04B3  00B2               	movwf	??___flmul
  6539     04B4  01B3               	clrf	??___flmul+1
  6540     04B5  01B4               	clrf	??___flmul+2
  6541     04B6  01B5               	clrf	??___flmul+3
  6542     04B7  0835               	movf	??___flmul+3,w
  6543     04B8  00C1               	movwf	___flmul@prod+3
  6544     04B9  0834               	movf	??___flmul+2,w
  6545     04BA  00C0               	movwf	___flmul@prod+2
  6546     04BB  0833               	movf	??___flmul+1,w
  6547     04BC  00BF               	movwf	___flmul@prod+1
  6548     04BD  0832               	movf	??___flmul,w
  6549     04BE  00BE               	movwf	___flmul@prod
  6550     04BF  082B               	movf	___flmul@b+1,w
  6551     04C0  00F2               	movwf	__Umul8_16@multiplicand
  6552     04C1  082F               	movf	___flmul@a+1,w
  6553     04C2  160A  118A  247B  120A  118A  	fcall	__Umul8_16
  6554     04C7  0873               	movf	?__Umul8_16+1,w
  6555     04C8  1283               	bcf	3,5	;RP0=0, select bank0
  6556     04C9  1303               	bcf	3,6	;RP1=0, select bank0
  6557     04CA  00C3               	movwf	___flmul@temp+1
  6558     04CB  0872               	movf	?__Umul8_16,w
  6559     04CC  00C2               	movwf	___flmul@temp
  6560     04CD                     l4235:
  6561     04CD  0842               	movf	___flmul@temp,w
  6562     04CE  00B2               	movwf	??___flmul
  6563     04CF  01B3               	clrf	??___flmul+1
  6564     04D0  01B4               	clrf	??___flmul+2
  6565     04D1  01B5               	clrf	??___flmul+3
  6566     04D2  0832               	movf	??___flmul,w
  6567     04D3  07B9               	addwf	___flmul@grs,f
  6568     04D4  0833               	movf	??___flmul+1,w
  6569     04D5  1103               	clrz
  6570     04D6  1803               	skipnc
  6571     04D7  3E01               	addlw	1
  6572     04D8  1903               	skipnz
  6573     04D9  2CDB               	goto	u4581
  6574     04DA  07BA               	addwf	___flmul@grs+1,f
  6575     04DB                     u4581:
  6576     04DB  0834               	movf	??___flmul+2,w
  6577     04DC  1103               	clrz
  6578     04DD  1803               	skipnc
  6579     04DE  3E01               	addlw	1
  6580     04DF  1903               	skipnz
  6581     04E0  2CE2               	goto	u4582
  6582     04E1  07BB               	addwf	___flmul@grs+2,f
  6583     04E2                     u4582:
  6584     04E2  0835               	movf	??___flmul+3,w
  6585     04E3  1103               	clrz
  6586     04E4  1803               	skipnc
  6587     04E5  3E01               	addlw	1
  6588     04E6  1903               	skipnz
  6589     04E7  2CE9               	goto	u4583
  6590     04E8  07BC               	addwf	___flmul@grs+3,f
  6591     04E9                     u4583:
  6592     04E9                     l4237:
  6593     04E9  0843               	movf	___flmul@temp+1,w
  6594     04EA  00B2               	movwf	??___flmul
  6595     04EB  01B3               	clrf	??___flmul+1
  6596     04EC  01B4               	clrf	??___flmul+2
  6597     04ED  01B5               	clrf	??___flmul+3
  6598     04EE  0832               	movf	??___flmul,w
  6599     04EF  07BE               	addwf	___flmul@prod,f
  6600     04F0  0833               	movf	??___flmul+1,w
  6601     04F1  1103               	clrz
  6602     04F2  1803               	skipnc
  6603     04F3  3E01               	addlw	1
  6604     04F4  1903               	skipnz
  6605     04F5  2CF7               	goto	u4591
  6606     04F6  07BF               	addwf	___flmul@prod+1,f
  6607     04F7                     u4591:
  6608     04F7  0834               	movf	??___flmul+2,w
  6609     04F8  1103               	clrz
  6610     04F9  1803               	skipnc
  6611     04FA  3E01               	addlw	1
  6612     04FB  1903               	skipnz
  6613     04FC  2CFE               	goto	u4592
  6614     04FD  07C0               	addwf	___flmul@prod+2,f
  6615     04FE                     u4592:
  6616     04FE  0835               	movf	??___flmul+3,w
  6617     04FF  1103               	clrz
  6618     0500  1803               	skipnc
  6619     0501  3E01               	addlw	1
  6620     0502  1903               	skipnz
  6621     0503  2D05               	goto	u4593
  6622     0504  07C1               	addwf	___flmul@prod+3,f
  6623     0505                     u4593:
  6624     0505  082C               	movf	___flmul@b+2,w
  6625     0506  00F2               	movwf	__Umul8_16@multiplicand
  6626     0507  082E               	movf	___flmul@a,w
  6627     0508  160A  118A  247B  120A  118A  	fcall	__Umul8_16
  6628     050D  0873               	movf	?__Umul8_16+1,w
  6629     050E  1283               	bcf	3,5	;RP0=0, select bank0
  6630     050F  1303               	bcf	3,6	;RP1=0, select bank0
  6631     0510  00C3               	movwf	___flmul@temp+1
  6632     0511  0872               	movf	?__Umul8_16,w
  6633     0512  00C2               	movwf	___flmul@temp
  6634     0513                     l4239:
  6635     0513  0842               	movf	___flmul@temp,w
  6636     0514  00B2               	movwf	??___flmul
  6637     0515  01B3               	clrf	??___flmul+1
  6638     0516  01B4               	clrf	??___flmul+2
  6639     0517  01B5               	clrf	??___flmul+3
  6640     0518  0832               	movf	??___flmul,w
  6641     0519  07B9               	addwf	___flmul@grs,f
  6642     051A  0833               	movf	??___flmul+1,w
  6643     051B  1103               	clrz
  6644     051C  1803               	skipnc
  6645     051D  3E01               	addlw	1
  6646     051E  1903               	skipnz
  6647     051F  2D21               	goto	u4601
  6648     0520  07BA               	addwf	___flmul@grs+1,f
  6649     0521                     u4601:
  6650     0521  0834               	movf	??___flmul+2,w
  6651     0522  1103               	clrz
  6652     0523  1803               	skipnc
  6653     0524  3E01               	addlw	1
  6654     0525  1903               	skipnz
  6655     0526  2D28               	goto	u4602
  6656     0527  07BB               	addwf	___flmul@grs+2,f
  6657     0528                     u4602:
  6658     0528  0835               	movf	??___flmul+3,w
  6659     0529  1103               	clrz
  6660     052A  1803               	skipnc
  6661     052B  3E01               	addlw	1
  6662     052C  1903               	skipnz
  6663     052D  2D2F               	goto	u4603
  6664     052E  07BC               	addwf	___flmul@grs+3,f
  6665     052F                     u4603:
  6666     052F                     l4241:
  6667     052F  0843               	movf	___flmul@temp+1,w
  6668     0530  00B2               	movwf	??___flmul
  6669     0531  01B3               	clrf	??___flmul+1
  6670     0532  01B4               	clrf	??___flmul+2
  6671     0533  01B5               	clrf	??___flmul+3
  6672     0534  0832               	movf	??___flmul,w
  6673     0535  07BE               	addwf	___flmul@prod,f
  6674     0536  0833               	movf	??___flmul+1,w
  6675     0537  1103               	clrz
  6676     0538  1803               	skipnc
  6677     0539  3E01               	addlw	1
  6678     053A  1903               	skipnz
  6679     053B  2D3D               	goto	u4611
  6680     053C  07BF               	addwf	___flmul@prod+1,f
  6681     053D                     u4611:
  6682     053D  0834               	movf	??___flmul+2,w
  6683     053E  1103               	clrz
  6684     053F  1803               	skipnc
  6685     0540  3E01               	addlw	1
  6686     0541  1903               	skipnz
  6687     0542  2D44               	goto	u4612
  6688     0543  07C0               	addwf	___flmul@prod+2,f
  6689     0544                     u4612:
  6690     0544  0835               	movf	??___flmul+3,w
  6691     0545  1103               	clrz
  6692     0546  1803               	skipnc
  6693     0547  3E01               	addlw	1
  6694     0548  1903               	skipnz
  6695     0549  2D4B               	goto	u4613
  6696     054A  07C1               	addwf	___flmul@prod+3,f
  6697     054B                     u4613:
  6698     054B                     l4243:
  6699     054B  3008               	movlw	8
  6700     054C  00B2               	movwf	??___flmul
  6701     054D                     u4625:
  6702     054D  1003               	clrc
  6703     054E  0DB9               	rlf	___flmul@grs,f
  6704     054F  0DBA               	rlf	___flmul@grs+1,f
  6705     0550  0DBB               	rlf	___flmul@grs+2,f
  6706     0551  0DBC               	rlf	___flmul@grs+3,f
  6707     0552  0BB2               	decfsz	??___flmul,f
  6708     0553  2D4D               	goto	u4625
  6709     0554                     l4245:
  6710     0554  082B               	movf	___flmul@b+1,w
  6711     0555  00F2               	movwf	__Umul8_16@multiplicand
  6712     0556  082E               	movf	___flmul@a,w
  6713     0557  160A  118A  247B  120A  118A  	fcall	__Umul8_16
  6714     055C  0873               	movf	?__Umul8_16+1,w
  6715     055D  1283               	bcf	3,5	;RP0=0, select bank0
  6716     055E  1303               	bcf	3,6	;RP1=0, select bank0
  6717     055F  00C3               	movwf	___flmul@temp+1
  6718     0560  0872               	movf	?__Umul8_16,w
  6719     0561  00C2               	movwf	___flmul@temp
  6720     0562                     l4247:
  6721     0562  0842               	movf	___flmul@temp,w
  6722     0563  00B2               	movwf	??___flmul
  6723     0564  0843               	movf	___flmul@temp+1,w
  6724     0565  00B3               	movwf	??___flmul+1
  6725     0566  01B4               	clrf	??___flmul+2
  6726     0567  01B5               	clrf	??___flmul+3
  6727     0568  0832               	movf	??___flmul,w
  6728     0569  07B9               	addwf	___flmul@grs,f
  6729     056A  0833               	movf	??___flmul+1,w
  6730     056B  1103               	clrz
  6731     056C  1803               	skipnc
  6732     056D  3E01               	addlw	1
  6733     056E  1903               	skipnz
  6734     056F  2D71               	goto	u4631
  6735     0570  07BA               	addwf	___flmul@grs+1,f
  6736     0571                     u4631:
  6737     0571  0834               	movf	??___flmul+2,w
  6738     0572  1103               	clrz
  6739     0573  1803               	skipnc
  6740     0574  3E01               	addlw	1
  6741     0575  1903               	skipnz
  6742     0576  2D78               	goto	u4632
  6743     0577  07BB               	addwf	___flmul@grs+2,f
  6744     0578                     u4632:
  6745     0578  0835               	movf	??___flmul+3,w
  6746     0579  1103               	clrz
  6747     057A  1803               	skipnc
  6748     057B  3E01               	addlw	1
  6749     057C  1903               	skipnz
  6750     057D  2D7F               	goto	u4633
  6751     057E  07BC               	addwf	___flmul@grs+3,f
  6752     057F                     u4633:
  6753     057F                     l4249:
  6754     057F  082A               	movf	___flmul@b,w
  6755     0580  00F2               	movwf	__Umul8_16@multiplicand
  6756     0581  082F               	movf	___flmul@a+1,w
  6757     0582  160A  118A  247B  120A  118A  	fcall	__Umul8_16
  6758     0587  0873               	movf	?__Umul8_16+1,w
  6759     0588  1283               	bcf	3,5	;RP0=0, select bank0
  6760     0589  1303               	bcf	3,6	;RP1=0, select bank0
  6761     058A  00C3               	movwf	___flmul@temp+1
  6762     058B  0872               	movf	?__Umul8_16,w
  6763     058C  00C2               	movwf	___flmul@temp
  6764     058D                     l4251:
  6765     058D  0842               	movf	___flmul@temp,w
  6766     058E  00B2               	movwf	??___flmul
  6767     058F  0843               	movf	___flmul@temp+1,w
  6768     0590  00B3               	movwf	??___flmul+1
  6769     0591  01B4               	clrf	??___flmul+2
  6770     0592  01B5               	clrf	??___flmul+3
  6771     0593  0832               	movf	??___flmul,w
  6772     0594  07B9               	addwf	___flmul@grs,f
  6773     0595  0833               	movf	??___flmul+1,w
  6774     0596  1103               	clrz
  6775     0597  1803               	skipnc
  6776     0598  3E01               	addlw	1
  6777     0599  1903               	skipnz
  6778     059A  2D9C               	goto	u4641
  6779     059B  07BA               	addwf	___flmul@grs+1,f
  6780     059C                     u4641:
  6781     059C  0834               	movf	??___flmul+2,w
  6782     059D  1103               	clrz
  6783     059E  1803               	skipnc
  6784     059F  3E01               	addlw	1
  6785     05A0  1903               	skipnz
  6786     05A1  2DA3               	goto	u4642
  6787     05A2  07BB               	addwf	___flmul@grs+2,f
  6788     05A3                     u4642:
  6789     05A3  0835               	movf	??___flmul+3,w
  6790     05A4  1103               	clrz
  6791     05A5  1803               	skipnc
  6792     05A6  3E01               	addlw	1
  6793     05A7  1903               	skipnz
  6794     05A8  2DAA               	goto	u4643
  6795     05A9  07BC               	addwf	___flmul@grs+3,f
  6796     05AA                     u4643:
  6797     05AA                     l4253:
  6798     05AA  3008               	movlw	8
  6799     05AB  00B2               	movwf	??___flmul
  6800     05AC                     u4655:
  6801     05AC  1003               	clrc
  6802     05AD  0DB9               	rlf	___flmul@grs,f
  6803     05AE  0DBA               	rlf	___flmul@grs+1,f
  6804     05AF  0DBB               	rlf	___flmul@grs+2,f
  6805     05B0  0DBC               	rlf	___flmul@grs+3,f
  6806     05B1  0BB2               	decfsz	??___flmul,f
  6807     05B2  2DAC               	goto	u4655
  6808     05B3  082A               	movf	___flmul@b,w
  6809     05B4  00F2               	movwf	__Umul8_16@multiplicand
  6810     05B5  082E               	movf	___flmul@a,w
  6811     05B6  160A  118A  247B  120A  118A  	fcall	__Umul8_16
  6812     05BB  0873               	movf	?__Umul8_16+1,w
  6813     05BC  1283               	bcf	3,5	;RP0=0, select bank0
  6814     05BD  1303               	bcf	3,6	;RP1=0, select bank0
  6815     05BE  00C3               	movwf	___flmul@temp+1
  6816     05BF  0872               	movf	?__Umul8_16,w
  6817     05C0  00C2               	movwf	___flmul@temp
  6818     05C1                     l4255:
  6819     05C1  0842               	movf	___flmul@temp,w
  6820     05C2  00B2               	movwf	??___flmul
  6821     05C3  0843               	movf	___flmul@temp+1,w
  6822     05C4  00B3               	movwf	??___flmul+1
  6823     05C5  01B4               	clrf	??___flmul+2
  6824     05C6  01B5               	clrf	??___flmul+3
  6825     05C7  0832               	movf	??___flmul,w
  6826     05C8  07B9               	addwf	___flmul@grs,f
  6827     05C9  0833               	movf	??___flmul+1,w
  6828     05CA  1103               	clrz
  6829     05CB  1803               	skipnc
  6830     05CC  3E01               	addlw	1
  6831     05CD  1903               	skipnz
  6832     05CE  2DD0               	goto	u4661
  6833     05CF  07BA               	addwf	___flmul@grs+1,f
  6834     05D0                     u4661:
  6835     05D0  0834               	movf	??___flmul+2,w
  6836     05D1  1103               	clrz
  6837     05D2  1803               	skipnc
  6838     05D3  3E01               	addlw	1
  6839     05D4  1903               	skipnz
  6840     05D5  2DD7               	goto	u4662
  6841     05D6  07BB               	addwf	___flmul@grs+2,f
  6842     05D7                     u4662:
  6843     05D7  0835               	movf	??___flmul+3,w
  6844     05D8  1103               	clrz
  6845     05D9  1803               	skipnc
  6846     05DA  3E01               	addlw	1
  6847     05DB  1903               	skipnz
  6848     05DC  2DDE               	goto	u4663
  6849     05DD  07BC               	addwf	___flmul@grs+3,f
  6850     05DE                     u4663:
  6851     05DE                     l4257:
  6852     05DE  082B               	movf	___flmul@b+1,w
  6853     05DF  00F2               	movwf	__Umul8_16@multiplicand
  6854     05E0  0830               	movf	___flmul@a+2,w
  6855     05E1  160A  118A  247B  120A  118A  	fcall	__Umul8_16
  6856     05E6  0873               	movf	?__Umul8_16+1,w
  6857     05E7  1283               	bcf	3,5	;RP0=0, select bank0
  6858     05E8  1303               	bcf	3,6	;RP1=0, select bank0
  6859     05E9  00C3               	movwf	___flmul@temp+1
  6860     05EA  0872               	movf	?__Umul8_16,w
  6861     05EB  00C2               	movwf	___flmul@temp
  6862     05EC  0842               	movf	___flmul@temp,w
  6863     05ED  00B2               	movwf	??___flmul
  6864     05EE  0843               	movf	___flmul@temp+1,w
  6865     05EF  00B3               	movwf	??___flmul+1
  6866     05F0  01B4               	clrf	??___flmul+2
  6867     05F1  01B5               	clrf	??___flmul+3
  6868     05F2  0832               	movf	??___flmul,w
  6869     05F3  07BE               	addwf	___flmul@prod,f
  6870     05F4  0833               	movf	??___flmul+1,w
  6871     05F5  1103               	clrz
  6872     05F6  1803               	skipnc
  6873     05F7  3E01               	addlw	1
  6874     05F8  1903               	skipnz
  6875     05F9  2DFB               	goto	u4671
  6876     05FA  07BF               	addwf	___flmul@prod+1,f
  6877     05FB                     u4671:
  6878     05FB  0834               	movf	??___flmul+2,w
  6879     05FC  1103               	clrz
  6880     05FD  1803               	skipnc
  6881     05FE  3E01               	addlw	1
  6882     05FF  1903               	skipnz
  6883     0600  2E02               	goto	u4672
  6884     0601  07C0               	addwf	___flmul@prod+2,f
  6885     0602                     u4672:
  6886     0602  0835               	movf	??___flmul+3,w
  6887     0603  1103               	clrz
  6888     0604  1803               	skipnc
  6889     0605  3E01               	addlw	1
  6890     0606  1903               	skipnz
  6891     0607  2E09               	goto	u4673
  6892     0608  07C1               	addwf	___flmul@prod+3,f
  6893     0609                     u4673:
  6894     0609                     l4259:
  6895     0609  082C               	movf	___flmul@b+2,w
  6896     060A  00F2               	movwf	__Umul8_16@multiplicand
  6897     060B  082F               	movf	___flmul@a+1,w
  6898     060C  160A  118A  247B  120A  118A  	fcall	__Umul8_16
  6899     0611  0873               	movf	?__Umul8_16+1,w
  6900     0612  1283               	bcf	3,5	;RP0=0, select bank0
  6901     0613  1303               	bcf	3,6	;RP1=0, select bank0
  6902     0614  00C3               	movwf	___flmul@temp+1
  6903     0615  0872               	movf	?__Umul8_16,w
  6904     0616  00C2               	movwf	___flmul@temp
  6905     0617                     l4261:
  6906     0617  0842               	movf	___flmul@temp,w
  6907     0618  00B2               	movwf	??___flmul
  6908     0619  0843               	movf	___flmul@temp+1,w
  6909     061A  00B3               	movwf	??___flmul+1
  6910     061B  01B4               	clrf	??___flmul+2
  6911     061C  01B5               	clrf	??___flmul+3
  6912     061D  0832               	movf	??___flmul,w
  6913     061E  07BE               	addwf	___flmul@prod,f
  6914     061F  0833               	movf	??___flmul+1,w
  6915     0620  1103               	clrz
  6916     0621  1803               	skipnc
  6917     0622  3E01               	addlw	1
  6918     0623  1903               	skipnz
  6919     0624  2E26               	goto	u4681
  6920     0625  07BF               	addwf	___flmul@prod+1,f
  6921     0626                     u4681:
  6922     0626  0834               	movf	??___flmul+2,w
  6923     0627  1103               	clrz
  6924     0628  1803               	skipnc
  6925     0629  3E01               	addlw	1
  6926     062A  1903               	skipnz
  6927     062B  2E2D               	goto	u4682
  6928     062C  07C0               	addwf	___flmul@prod+2,f
  6929     062D                     u4682:
  6930     062D  0835               	movf	??___flmul+3,w
  6931     062E  1103               	clrz
  6932     062F  1803               	skipnc
  6933     0630  3E01               	addlw	1
  6934     0631  1903               	skipnz
  6935     0632  2E34               	goto	u4683
  6936     0633  07C1               	addwf	___flmul@prod+3,f
  6937     0634                     u4683:
  6938     0634  082C               	movf	___flmul@b+2,w
  6939     0635  00F2               	movwf	__Umul8_16@multiplicand
  6940     0636  0830               	movf	___flmul@a+2,w
  6941     0637  160A  118A  247B  120A  118A  	fcall	__Umul8_16
  6942     063C  0873               	movf	?__Umul8_16+1,w
  6943     063D  1283               	bcf	3,5	;RP0=0, select bank0
  6944     063E  1303               	bcf	3,6	;RP1=0, select bank0
  6945     063F  00C3               	movwf	___flmul@temp+1
  6946     0640  0872               	movf	?__Umul8_16,w
  6947     0641  00C2               	movwf	___flmul@temp
  6948     0642                     l4263:
  6949     0642  0842               	movf	___flmul@temp,w
  6950     0643  00B2               	movwf	??___flmul
  6951     0644  0843               	movf	___flmul@temp+1,w
  6952     0645  00B3               	movwf	??___flmul+1
  6953     0646  01B4               	clrf	??___flmul+2
  6954     0647  01B5               	clrf	??___flmul+3
  6955     0648  3008               	movlw	8
  6956     0649                     u4695:
  6957     0649  1003               	clrc
  6958     064A  0DB2               	rlf	??___flmul,f
  6959     064B  0DB3               	rlf	??___flmul+1,f
  6960     064C  0DB4               	rlf	??___flmul+2,f
  6961     064D  0DB5               	rlf	??___flmul+3,f
  6962     064E                     u4690:
  6963     064E  3EFF               	addlw	-1
  6964     064F  1D03               	skipz
  6965     0650  2E49               	goto	u4695
  6966     0651  0832               	movf	??___flmul,w
  6967     0652  07BE               	addwf	___flmul@prod,f
  6968     0653  0833               	movf	??___flmul+1,w
  6969     0654  1103               	clrz
  6970     0655  1803               	skipnc
  6971     0656  3E01               	addlw	1
  6972     0657  1903               	skipnz
  6973     0658  2E5A               	goto	u4701
  6974     0659  07BF               	addwf	___flmul@prod+1,f
  6975     065A                     u4701:
  6976     065A  0834               	movf	??___flmul+2,w
  6977     065B  1103               	clrz
  6978     065C  1803               	skipnc
  6979     065D  3E01               	addlw	1
  6980     065E  1903               	skipnz
  6981     065F  2E61               	goto	u4702
  6982     0660  07C0               	addwf	___flmul@prod+2,f
  6983     0661                     u4702:
  6984     0661  0835               	movf	??___flmul+3,w
  6985     0662  1103               	clrz
  6986     0663  1803               	skipnc
  6987     0664  3E01               	addlw	1
  6988     0665  1903               	skipnz
  6989     0666  2E68               	goto	u4703
  6990     0667  07C1               	addwf	___flmul@prod+3,f
  6991     0668                     u4703:
  6992     0668                     l4265:
  6993     0668  0839               	movf	___flmul@grs,w
  6994     0669  00B2               	movwf	??___flmul
  6995     066A  083A               	movf	___flmul@grs+1,w
  6996     066B  00B3               	movwf	??___flmul+1
  6997     066C  083B               	movf	___flmul@grs+2,w
  6998     066D  00B4               	movwf	??___flmul+2
  6999     066E  083C               	movf	___flmul@grs+3,w
  7000     066F  00B5               	movwf	??___flmul+3
  7001     0670  3018               	movlw	24
  7002     0671                     u4715:
  7003     0671  1003               	clrc
  7004     0672  0CB5               	rrf	??___flmul+3,f
  7005     0673  0CB4               	rrf	??___flmul+2,f
  7006     0674  0CB3               	rrf	??___flmul+1,f
  7007     0675  0CB2               	rrf	??___flmul,f
  7008     0676                     u4710:
  7009     0676  3EFF               	addlw	-1
  7010     0677  1D03               	skipz
  7011     0678  2E71               	goto	u4715
  7012     0679  0832               	movf	??___flmul,w
  7013     067A  07BE               	addwf	___flmul@prod,f
  7014     067B  0833               	movf	??___flmul+1,w
  7015     067C  1103               	clrz
  7016     067D  1803               	skipnc
  7017     067E  3E01               	addlw	1
  7018     067F  1903               	skipnz
  7019     0680  2E82               	goto	u4721
  7020     0681  07BF               	addwf	___flmul@prod+1,f
  7021     0682                     u4721:
  7022     0682  0834               	movf	??___flmul+2,w
  7023     0683  1103               	clrz
  7024     0684  1803               	skipnc
  7025     0685  3E01               	addlw	1
  7026     0686  1903               	skipnz
  7027     0687  2E89               	goto	u4722
  7028     0688  07C0               	addwf	___flmul@prod+2,f
  7029     0689                     u4722:
  7030     0689  0835               	movf	??___flmul+3,w
  7031     068A  1103               	clrz
  7032     068B  1803               	skipnc
  7033     068C  3E01               	addlw	1
  7034     068D  1903               	skipnz
  7035     068E  2E90               	goto	u4723
  7036     068F  07C1               	addwf	___flmul@prod+3,f
  7037     0690                     u4723:
  7038     0690                     l4267:
  7039     0690  3008               	movlw	8
  7040     0691  00B2               	movwf	??___flmul
  7041     0692                     u4735:
  7042     0692  1003               	clrc
  7043     0693  0DB9               	rlf	___flmul@grs,f
  7044     0694  0DBA               	rlf	___flmul@grs+1,f
  7045     0695  0DBB               	rlf	___flmul@grs+2,f
  7046     0696  0DBC               	rlf	___flmul@grs+3,f
  7047     0697  0BB2               	decfsz	??___flmul,f
  7048     0698  2E92               	goto	u4735
  7049     0699                     l4269:
  7050     0699  083D               	movf	___flmul@bexp,w
  7051     069A  0738               	addwf	___flmul@aexp,w
  7052     069B  00B2               	movwf	??___flmul
  7053     069C  01B3               	clrf	??___flmul+1
  7054     069D  0DB3               	rlf	??___flmul+1,f
  7055     069E  0832               	movf	??___flmul,w
  7056     069F  3E82               	addlw	130
  7057     06A0  00C2               	movwf	___flmul@temp
  7058     06A1  0833               	movf	??___flmul+1,w
  7059     06A2  1803               	skipnc
  7060     06A3  3E01               	addlw	1
  7061     06A4  3EFF               	addlw	255
  7062     06A5  00C3               	movwf	___flmul@temp+1
  7063     06A6  2EC4               	goto	l4281
  7064     06A7                     l4271:
  7065     06A7  3001               	movlw	1
  7066     06A8  00B2               	movwf	??___flmul
  7067     06A9                     u4745:
  7068     06A9  1003               	clrc
  7069     06AA  0DBE               	rlf	___flmul@prod,f
  7070     06AB  0DBF               	rlf	___flmul@prod+1,f
  7071     06AC  0DC0               	rlf	___flmul@prod+2,f
  7072     06AD  0DC1               	rlf	___flmul@prod+3,f
  7073     06AE  0BB2               	decfsz	??___flmul,f
  7074     06AF  2EA9               	goto	u4745
  7075     06B0                     l4273:
  7076     06B0  1FBC               	btfss	___flmul@grs+3,7
  7077     06B1  2EB3               	goto	u4751
  7078     06B2  2EB4               	goto	u4750
  7079     06B3                     u4751:
  7080     06B3  2EB5               	goto	l4277
  7081     06B4                     u4750:
  7082     06B4                     l4275:
  7083     06B4  143E               	bsf	___flmul@prod,0
  7084     06B5                     l4277:
  7085     06B5  3001               	movlw	1
  7086     06B6  00B2               	movwf	??___flmul
  7087     06B7                     u4765:
  7088     06B7  1003               	clrc
  7089     06B8  0DB9               	rlf	___flmul@grs,f
  7090     06B9  0DBA               	rlf	___flmul@grs+1,f
  7091     06BA  0DBB               	rlf	___flmul@grs+2,f
  7092     06BB  0DBC               	rlf	___flmul@grs+3,f
  7093     06BC  0BB2               	decfsz	??___flmul,f
  7094     06BD  2EB7               	goto	u4765
  7095     06BE                     l4279:
  7096     06BE  30FF               	movlw	255
  7097     06BF  07C2               	addwf	___flmul@temp,f
  7098     06C0  1803               	skipnc
  7099     06C1  0AC3               	incf	___flmul@temp+1,f
  7100     06C2  30FF               	movlw	255
  7101     06C3  07C3               	addwf	___flmul@temp+1,f
  7102     06C4                     l4281:
  7103     06C4  1FC0               	btfss	___flmul@prod+2,7
  7104     06C5  2EC7               	goto	u4771
  7105     06C6  2EC8               	goto	u4770
  7106     06C7                     u4771:
  7107     06C7  2EA7               	goto	l4271
  7108     06C8                     u4770:
  7109     06C8                     l4283:
  7110     06C8  01B8               	clrf	___flmul@aexp
  7111     06C9                     l4285:
  7112     06C9  1FBC               	btfss	___flmul@grs+3,7
  7113     06CA  2ECC               	goto	u4781
  7114     06CB  2ECD               	goto	u4780
  7115     06CC                     u4781:
  7116     06CC  2EE9               	goto	l4293
  7117     06CD                     u4780:
  7118     06CD                     l4287:
  7119     06CD  30FF               	movlw	255
  7120     06CE  0539               	andwf	___flmul@grs,w
  7121     06CF  00B2               	movwf	??___flmul
  7122     06D0  30FF               	movlw	255
  7123     06D1  053A               	andwf	___flmul@grs+1,w
  7124     06D2  00B3               	movwf	??___flmul+1
  7125     06D3  30FF               	movlw	255
  7126     06D4  053B               	andwf	___flmul@grs+2,w
  7127     06D5  00B4               	movwf	??___flmul+2
  7128     06D6  307F               	movlw	127
  7129     06D7  053C               	andwf	___flmul@grs+3,w
  7130     06D8  00B5               	movwf	??___flmul+3
  7131     06D9  0835               	movf	??___flmul+3,w
  7132     06DA  0434               	iorwf	??___flmul+2,w
  7133     06DB  0433               	iorwf	??___flmul+1,w
  7134     06DC  0432               	iorwf	??___flmul,w
  7135     06DD  1903               	skipnz
  7136     06DE  2EE0               	goto	u4791
  7137     06DF  2EE1               	goto	u4790
  7138     06E0                     u4791:
  7139     06E0  2EE4               	goto	l862
  7140     06E1                     u4790:
  7141     06E1                     l4289:
  7142     06E1  01B8               	clrf	___flmul@aexp
  7143     06E2  0AB8               	incf	___flmul@aexp,f
  7144     06E3  2EE9               	goto	l4293
  7145     06E4                     l862:
  7146     06E4  1C3E               	btfss	___flmul@prod,0
  7147     06E5  2EE7               	goto	u4801
  7148     06E6  2EE8               	goto	u4800
  7149     06E7                     u4801:
  7150     06E7  2EE9               	goto	l4293
  7151     06E8                     u4800:
  7152     06E8  2EE1               	goto	l4289
  7153     06E9                     l4293:
  7154     06E9  0838               	movf	___flmul@aexp,w
  7155     06EA  1903               	btfsc	3,2
  7156     06EB  2EED               	goto	u4811
  7157     06EC  2EEE               	goto	u4810
  7158     06ED                     u4811:
  7159     06ED  2F1F               	goto	l4303
  7160     06EE                     u4810:
  7161     06EE                     l4295:
  7162     06EE  3001               	movlw	1
  7163     06EF  07BE               	addwf	___flmul@prod,f
  7164     06F0  3000               	movlw	0
  7165     06F1  1803               	skipnc
  7166     06F2  3001               	movlw	1
  7167     06F3  07BF               	addwf	___flmul@prod+1,f
  7168     06F4  3000               	movlw	0
  7169     06F5  1803               	skipnc
  7170     06F6  3001               	movlw	1
  7171     06F7  07C0               	addwf	___flmul@prod+2,f
  7172     06F8  3000               	movlw	0
  7173     06F9  1803               	skipnc
  7174     06FA  3001               	movlw	1
  7175     06FB  07C1               	addwf	___flmul@prod+3,f
  7176     06FC                     l4297:
  7177     06FC  1C41               	btfss	___flmul@prod+3,0
  7178     06FD  2EFF               	goto	u4821
  7179     06FE  2F00               	goto	u4820
  7180     06FF                     u4821:
  7181     06FF  2F1F               	goto	l4303
  7182     0700                     u4820:
  7183     0700                     l4299:
  7184     0700  083E               	movf	___flmul@prod,w
  7185     0701  00B2               	movwf	??___flmul
  7186     0702  083F               	movf	___flmul@prod+1,w
  7187     0703  00B3               	movwf	??___flmul+1
  7188     0704  0840               	movf	___flmul@prod+2,w
  7189     0705  00B4               	movwf	??___flmul+2
  7190     0706  0841               	movf	___flmul@prod+3,w
  7191     0707  00B5               	movwf	??___flmul+3
  7192     0708  3001               	movlw	1
  7193     0709  00B6               	movwf	??___flmul+4
  7194     070A                     u4835:
  7195     070A  0D35               	rlf	??___flmul+3,w
  7196     070B  0CB5               	rrf	??___flmul+3,f
  7197     070C  0CB4               	rrf	??___flmul+2,f
  7198     070D  0CB3               	rrf	??___flmul+1,f
  7199     070E  0CB2               	rrf	??___flmul,f
  7200     070F                     u4830:
  7201     070F  0BB6               	decfsz	??___flmul+4,f
  7202     0710  2F0A               	goto	u4835
  7203     0711  0835               	movf	??___flmul+3,w
  7204     0712  00C1               	movwf	___flmul@prod+3
  7205     0713  0834               	movf	??___flmul+2,w
  7206     0714  00C0               	movwf	___flmul@prod+2
  7207     0715  0833               	movf	??___flmul+1,w
  7208     0716  00BF               	movwf	___flmul@prod+1
  7209     0717  0832               	movf	??___flmul,w
  7210     0718  00BE               	movwf	___flmul@prod
  7211     0719                     l4301:
  7212     0719  3001               	movlw	1
  7213     071A  07C2               	addwf	___flmul@temp,f
  7214     071B  1803               	skipnc
  7215     071C  0AC3               	incf	___flmul@temp+1,f
  7216     071D  3000               	movlw	0
  7217     071E  07C3               	addwf	___flmul@temp+1,f
  7218     071F                     l4303:
  7219     071F  0843               	movf	___flmul@temp+1,w
  7220     0720  3A80               	xorlw	128
  7221     0721  00FF               	movwf	btemp+1
  7222     0722  3080               	movlw	128
  7223     0723  027F               	subwf	btemp+1,w
  7224     0724  1D03               	skipz
  7225     0725  2F28               	goto	u4845
  7226     0726  30FF               	movlw	255
  7227     0727  0242               	subwf	___flmul@temp,w
  7228     0728                     u4845:
  7229     0728  1C03               	skipc
  7230     0729  2F2B               	goto	u4841
  7231     072A  2F2C               	goto	u4840
  7232     072B                     u4841:
  7233     072B  2F37               	goto	l4307
  7234     072C                     u4840:
  7235     072C                     l4305:
  7236     072C  307F               	movlw	127
  7237     072D  1283               	bcf	3,5	;RP0=0, select bank0
  7238     072E  1303               	bcf	3,6	;RP1=0, select bank0
  7239     072F  00C1               	movwf	___flmul@prod+3
  7240     0730  3080               	movlw	128
  7241     0731  00C0               	movwf	___flmul@prod+2
  7242     0732  3000               	movlw	0
  7243     0733  00BF               	movwf	___flmul@prod+1
  7244     0734  3000               	movlw	0
  7245     0735  00BE               	movwf	___flmul@prod
  7246     0736  2F68               	goto	l4321
  7247     0737                     l4307:
  7248     0737  1283               	bcf	3,5	;RP0=0, select bank0
  7249     0738  1303               	bcf	3,6	;RP1=0, select bank0
  7250     0739  0843               	movf	___flmul@temp+1,w
  7251     073A  3A80               	xorlw	128
  7252     073B  00FF               	movwf	btemp+1
  7253     073C  3080               	movlw	128
  7254     073D  027F               	subwf	btemp+1,w
  7255     073E  1D03               	skipz
  7256     073F  2F42               	goto	u4855
  7257     0740  3001               	movlw	1
  7258     0741  0242               	subwf	___flmul@temp,w
  7259     0742                     u4855:
  7260     0742  1803               	skipnc
  7261     0743  2F45               	goto	u4851
  7262     0744  2F46               	goto	u4850
  7263     0745                     u4851:
  7264     0745  2F52               	goto	l4313
  7265     0746                     u4850:
  7266     0746                     l4309:
  7267     0746  3000               	movlw	0
  7268     0747  1283               	bcf	3,5	;RP0=0, select bank0
  7269     0748  1303               	bcf	3,6	;RP1=0, select bank0
  7270     0749  00C1               	movwf	___flmul@prod+3
  7271     074A  3000               	movlw	0
  7272     074B  00C0               	movwf	___flmul@prod+2
  7273     074C  3000               	movlw	0
  7274     074D  00BF               	movwf	___flmul@prod+1
  7275     074E  3000               	movlw	0
  7276     074F  00BE               	movwf	___flmul@prod
  7277     0750                     l4311:
  7278     0750  01B7               	clrf	___flmul@sign
  7279     0751  2F68               	goto	l4321
  7280     0752                     l4313:
  7281     0752  1283               	bcf	3,5	;RP0=0, select bank0
  7282     0753  1303               	bcf	3,6	;RP1=0, select bank0
  7283     0754  0842               	movf	___flmul@temp,w
  7284     0755  00BD               	movwf	___flmul@bexp
  7285     0756  30FF               	movlw	255
  7286     0757  05BE               	andwf	___flmul@prod,f
  7287     0758  30FF               	movlw	255
  7288     0759  05BF               	andwf	___flmul@prod+1,f
  7289     075A  307F               	movlw	127
  7290     075B  05C0               	andwf	___flmul@prod+2,f
  7291     075C  3000               	movlw	0
  7292     075D  05C1               	andwf	___flmul@prod+3,f
  7293     075E                     l4315:
  7294     075E  1C3D               	btfss	___flmul@bexp,0
  7295     075F  2F61               	goto	u4861
  7296     0760  2F62               	goto	u4860
  7297     0761                     u4861:
  7298     0761  2F63               	goto	l4319
  7299     0762                     u4860:
  7300     0762                     l4317:
  7301     0762  17C0               	bsf	___flmul@prod+2,7
  7302     0763                     l4319:
  7303     0763  083D               	movf	___flmul@bexp,w
  7304     0764  00B2               	movwf	??___flmul
  7305     0765  1003               	clrc
  7306     0766  0C32               	rrf	??___flmul,w
  7307     0767  00C1               	movwf	___flmul@prod+3
  7308     0768                     l4321:
  7309     0768  0837               	movf	___flmul@sign,w
  7310     0769  00FF               	movwf	btemp+1
  7311     076A  087F               	movf	btemp+1,w
  7312     076B  04C1               	iorwf	___flmul@prod+3,f
  7313     076C                     l4323:
  7314     076C  0841               	movf	___flmul@prod+3,w
  7315     076D  00AD               	movwf	?___flmul+3
  7316     076E  0840               	movf	___flmul@prod+2,w
  7317     076F  00AC               	movwf	?___flmul+2
  7318     0770  083F               	movf	___flmul@prod+1,w
  7319     0771  00AB               	movwf	?___flmul+1
  7320     0772  083E               	movf	___flmul@prod,w
  7321     0773  00AA               	movwf	?___flmul
  7322     0774                     l856:
  7323     0774  0008               	return
  7324     0775                     __end_of___flmul:
  7325                           
  7326                           	psect	text13
  7327     147B                     __ptext13:	
  7328 ;; *************** function __Umul8_16 *****************
  7329 ;; Defined at:
  7330 ;;		line 4 in file "C:\Program Files\Microchip\xc8\v2.45\pic\sources\c99\common\Umul8_16.c"
  7331 ;; Parameters:    Size  Location     Type
  7332 ;;  multiplier      1    wreg     unsigned char 
  7333 ;;  multiplicand    1    2[COMMON] unsigned char 
  7334 ;; Auto vars:     Size  Location     Type
  7335 ;;  multiplier      1    4[BANK0 ] unsigned char 
  7336 ;;  word_mpld       2    2[BANK0 ] unsigned short 
  7337 ;;  product         2    0[BANK0 ] unsigned short 
  7338 ;; Return value:  Size  Location     Type
  7339 ;;                  2    2[COMMON] unsigned int 
  7340 ;; Registers used:
  7341 ;;		wreg, status,2, status,0
  7342 ;; Tracked objects:
  7343 ;;		On entry : 0/0
  7344 ;;		On exit  : 0/0
  7345 ;;		Unchanged: 0/0
  7346 ;; Data sizes:     COMMON   BANK0   BANK1   BANK3   BANK2
  7347 ;;      Params:         2       0       0       0       0
  7348 ;;      Locals:         0       5       0       0       0
  7349 ;;      Temps:          2       0       0       0       0
  7350 ;;      Totals:         4       5       0       0       0
  7351 ;;Total ram usage:        9 bytes
  7352 ;; Hardware stack levels used: 1
  7353 ;; Hardware stack levels required when called: 1
  7354 ;; This function calls:
  7355 ;;		Nothing
  7356 ;; This function is called by:
  7357 ;;		___flmul
  7358 ;; This function uses a non-reentrant model
  7359 ;;
  7360                           
  7361     147B                     __Umul8_16:	
  7362                           ;psect for function __Umul8_16
  7363                           
  7364                           
  7365                           ;incstack = 0
  7366                           ; Regs used in __Umul8_16: [wreg+status,2+status,0]
  7367                           ;__Umul8_16@multiplier stored from wreg
  7368     147B  1283               	bcf	3,5	;RP0=0, select bank0
  7369     147C  1303               	bcf	3,6	;RP1=0, select bank0
  7370     147D  00A4               	movwf	__Umul8_16@multiplier
  7371     147E                     l3957:
  7372     147E  01A0               	clrf	__Umul8_16@product
  7373     147F  01A1               	clrf	__Umul8_16@product+1
  7374     1480                     l3959:
  7375     1480  0872               	movf	__Umul8_16@multiplicand,w
  7376     1481  00F4               	movwf	??__Umul8_16
  7377     1482  01F5               	clrf	??__Umul8_16+1
  7378     1483  0874               	movf	??__Umul8_16,w
  7379     1484  00A2               	movwf	__Umul8_16@word_mpld
  7380     1485  0875               	movf	??__Umul8_16+1,w
  7381     1486  00A3               	movwf	__Umul8_16@word_mpld+1
  7382     1487                     l3961:
  7383     1487  1C24               	btfss	__Umul8_16@multiplier,0
  7384     1488  2C8A               	goto	u4051
  7385     1489  2C8B               	goto	u4050
  7386     148A                     u4051:
  7387     148A  2C91               	goto	l875
  7388     148B                     u4050:
  7389     148B                     l3963:
  7390     148B  0822               	movf	__Umul8_16@word_mpld,w
  7391     148C  07A0               	addwf	__Umul8_16@product,f
  7392     148D  1803               	skipnc
  7393     148E  0AA1               	incf	__Umul8_16@product+1,f
  7394     148F  0823               	movf	__Umul8_16@word_mpld+1,w
  7395     1490  07A1               	addwf	__Umul8_16@product+1,f
  7396     1491                     l875:
  7397     1491  3001               	movlw	1
  7398     1492                     u4065:
  7399     1492  1003               	clrc
  7400     1493  0DA2               	rlf	__Umul8_16@word_mpld,f
  7401     1494  0DA3               	rlf	__Umul8_16@word_mpld+1,f
  7402     1495  3EFF               	addlw	-1
  7403     1496  1D03               	skipz
  7404     1497  2C92               	goto	u4065
  7405     1498  1003               	clrc
  7406     1499  0CA4               	rrf	__Umul8_16@multiplier,f
  7407     149A                     l3965:
  7408     149A  0824               	movf	__Umul8_16@multiplier,w
  7409     149B  1D03               	btfss	3,2
  7410     149C  2C9E               	goto	u4071
  7411     149D  2C9F               	goto	u4070
  7412     149E                     u4071:
  7413     149E  2C87               	goto	l3961
  7414     149F                     u4070:
  7415     149F                     l3967:
  7416     149F  0821               	movf	__Umul8_16@product+1,w
  7417     14A0  00F3               	movwf	?__Umul8_16+1
  7418     14A1  0820               	movf	__Umul8_16@product,w
  7419     14A2  00F2               	movwf	?__Umul8_16
  7420     14A3                     l877:
  7421     14A3  0008               	return
  7422     14A4                     __end_of__Umul8_16:
  7423                           
  7424                           	psect	text14
  7425     0803                     __ptext14:	
  7426 ;; *************** function ___flge *****************
  7427 ;; Defined at:
  7428 ;;		line 4 in file "C:\Program Files\Microchip\xc8\v2.45\pic\sources\c99\common\flge.c"
  7429 ;; Parameters:    Size  Location     Type
  7430 ;;  ff1             4   44[BANK0 ] unsigned int 
  7431 ;;  ff2             4   48[BANK0 ] unsigned int 
  7432 ;; Auto vars:     Size  Location     Type
  7433 ;;		None
  7434 ;; Return value:  Size  Location     Type
  7435 ;;		None               void
  7436 ;; Registers used:
  7437 ;;		wreg, status,2, status,0
  7438 ;; Tracked objects:
  7439 ;;		On entry : 0/0
  7440 ;;		On exit  : 0/0
  7441 ;;		Unchanged: 0/0
  7442 ;; Data sizes:     COMMON   BANK0   BANK1   BANK3   BANK2
  7443 ;;      Params:         0       8       0       0       0
  7444 ;;      Locals:         0       0       0       0       0
  7445 ;;      Temps:          0       4       0       0       0
  7446 ;;      Totals:         0      12       0       0       0
  7447 ;;Total ram usage:       12 bytes
  7448 ;; Hardware stack levels used: 1
  7449 ;; Hardware stack levels required when called: 1
  7450 ;; This function calls:
  7451 ;;		Nothing
  7452 ;; This function is called by:
  7453 ;;		_run_program
  7454 ;; This function uses a non-reentrant model
  7455 ;;
  7456                           
  7457     0803                     ___flge:	
  7458                           ;psect for function ___flge
  7459                           
  7460     0803                     l4121:	
  7461                           ;incstack = 0
  7462                           ; Regs used in ___flge: [wreg+status,2+status,0]
  7463                           
  7464     0803  3000               	movlw	0
  7465     0804  1283               	bcf	3,5	;RP0=0, select bank0
  7466     0805  1303               	bcf	3,6	;RP1=0, select bank0
  7467     0806  054C               	andwf	___flge@ff1,w
  7468     0807  00D4               	movwf	??___flge
  7469     0808  3000               	movlw	0
  7470     0809  054D               	andwf	___flge@ff1+1,w
  7471     080A  00D5               	movwf	??___flge+1
  7472     080B  3080               	movlw	128
  7473     080C  054E               	andwf	___flge@ff1+2,w
  7474     080D  00D6               	movwf	??___flge+2
  7475     080E  307F               	movlw	127
  7476     080F  054F               	andwf	___flge@ff1+3,w
  7477     0810  00D7               	movwf	??___flge+3
  7478     0811  0857               	movf	??___flge+3,w
  7479     0812  0456               	iorwf	??___flge+2,w
  7480     0813  0455               	iorwf	??___flge+1,w
  7481     0814  0454               	iorwf	??___flge,w
  7482     0815  1D03               	skipz
  7483     0816  2818               	goto	u4331
  7484     0817  2819               	goto	u4330
  7485     0818                     u4331:
  7486     0818  2821               	goto	l637
  7487     0819                     u4330:
  7488     0819                     l4123:
  7489     0819  3000               	movlw	0
  7490     081A  00CF               	movwf	___flge@ff1+3
  7491     081B  3000               	movlw	0
  7492     081C  00CE               	movwf	___flge@ff1+2
  7493     081D  3000               	movlw	0
  7494     081E  00CD               	movwf	___flge@ff1+1
  7495     081F  3000               	movlw	0
  7496     0820  00CC               	movwf	___flge@ff1
  7497     0821                     l637:
  7498     0821  3000               	movlw	0
  7499     0822  0550               	andwf	___flge@ff2,w
  7500     0823  00D4               	movwf	??___flge
  7501     0824  3000               	movlw	0
  7502     0825  0551               	andwf	___flge@ff2+1,w
  7503     0826  00D5               	movwf	??___flge+1
  7504     0827  3080               	movlw	128
  7505     0828  0552               	andwf	___flge@ff2+2,w
  7506     0829  00D6               	movwf	??___flge+2
  7507     082A  307F               	movlw	127
  7508     082B  0553               	andwf	___flge@ff2+3,w
  7509     082C  00D7               	movwf	??___flge+3
  7510     082D  0857               	movf	??___flge+3,w
  7511     082E  0456               	iorwf	??___flge+2,w
  7512     082F  0455               	iorwf	??___flge+1,w
  7513     0830  0454               	iorwf	??___flge,w
  7514     0831  1D03               	skipz
  7515     0832  2834               	goto	u4341
  7516     0833  2835               	goto	u4340
  7517     0834                     u4341:
  7518     0834  283D               	goto	l4127
  7519     0835                     u4340:
  7520     0835                     l4125:
  7521     0835  3000               	movlw	0
  7522     0836  00D3               	movwf	___flge@ff2+3
  7523     0837  3000               	movlw	0
  7524     0838  00D2               	movwf	___flge@ff2+2
  7525     0839  3000               	movlw	0
  7526     083A  00D1               	movwf	___flge@ff2+1
  7527     083B  3000               	movlw	0
  7528     083C  00D0               	movwf	___flge@ff2
  7529     083D                     l4127:
  7530     083D  1FCF               	btfss	___flge@ff1+3,7
  7531     083E  2840               	goto	u4351
  7532     083F  2841               	goto	u4350
  7533     0840                     u4351:
  7534     0840  2865               	goto	l4131
  7535     0841                     u4350:
  7536     0841                     l4129:
  7537     0841  3000               	movlw	0
  7538     0842  00D4               	movwf	??___flge
  7539     0843  3000               	movlw	0
  7540     0844  00D5               	movwf	??___flge+1
  7541     0845  3000               	movlw	0
  7542     0846  00D6               	movwf	??___flge+2
  7543     0847  3080               	movlw	128
  7544     0848  00D7               	movwf	??___flge+3
  7545     0849  084C               	movf	___flge@ff1,w
  7546     084A  02D4               	subwf	??___flge,f
  7547     084B  084D               	movf	___flge@ff1+1,w
  7548     084C  1C03               	skipc
  7549     084D  0F4D               	incfsz	___flge@ff1+1,w
  7550     084E  2850               	goto	u4361
  7551     084F  2851               	goto	u4362
  7552     0850                     u4361:
  7553     0850  02D5               	subwf	??___flge+1,f
  7554     0851                     u4362:
  7555     0851  084E               	movf	___flge@ff1+2,w
  7556     0852  1C03               	skipc
  7557     0853  0F4E               	incfsz	___flge@ff1+2,w
  7558     0854  2856               	goto	u4363
  7559     0855  2857               	goto	u4364
  7560     0856                     u4363:
  7561     0856  02D6               	subwf	??___flge+2,f
  7562     0857                     u4364:
  7563     0857  084F               	movf	___flge@ff1+3,w
  7564     0858  1C03               	skipc
  7565     0859  0F4F               	incfsz	___flge@ff1+3,w
  7566     085A  285C               	goto	u4365
  7567     085B  285D               	goto	u4366
  7568     085C                     u4365:
  7569     085C  02D7               	subwf	??___flge+3,f
  7570     085D                     u4366:
  7571     085D  0857               	movf	??___flge+3,w
  7572     085E  00CF               	movwf	___flge@ff1+3
  7573     085F  0856               	movf	??___flge+2,w
  7574     0860  00CE               	movwf	___flge@ff1+2
  7575     0861  0855               	movf	??___flge+1,w
  7576     0862  00CD               	movwf	___flge@ff1+1
  7577     0863  0854               	movf	??___flge,w
  7578     0864  00CC               	movwf	___flge@ff1
  7579     0865                     l4131:
  7580     0865  1FD3               	btfss	___flge@ff2+3,7
  7581     0866  2868               	goto	u4371
  7582     0867  2869               	goto	u4370
  7583     0868                     u4371:
  7584     0868  288D               	goto	l640
  7585     0869                     u4370:
  7586     0869                     l4133:
  7587     0869  3000               	movlw	0
  7588     086A  00D4               	movwf	??___flge
  7589     086B  3000               	movlw	0
  7590     086C  00D5               	movwf	??___flge+1
  7591     086D  3000               	movlw	0
  7592     086E  00D6               	movwf	??___flge+2
  7593     086F  3080               	movlw	128
  7594     0870  00D7               	movwf	??___flge+3
  7595     0871  0850               	movf	___flge@ff2,w
  7596     0872  02D4               	subwf	??___flge,f
  7597     0873  0851               	movf	___flge@ff2+1,w
  7598     0874  1C03               	skipc
  7599     0875  0F51               	incfsz	___flge@ff2+1,w
  7600     0876  2878               	goto	u4381
  7601     0877  2879               	goto	u4382
  7602     0878                     u4381:
  7603     0878  02D5               	subwf	??___flge+1,f
  7604     0879                     u4382:
  7605     0879  0852               	movf	___flge@ff2+2,w
  7606     087A  1C03               	skipc
  7607     087B  0F52               	incfsz	___flge@ff2+2,w
  7608     087C  287E               	goto	u4383
  7609     087D  287F               	goto	u4384
  7610     087E                     u4383:
  7611     087E  02D6               	subwf	??___flge+2,f
  7612     087F                     u4384:
  7613     087F  0853               	movf	___flge@ff2+3,w
  7614     0880  1C03               	skipc
  7615     0881  0F53               	incfsz	___flge@ff2+3,w
  7616     0882  2884               	goto	u4385
  7617     0883  2885               	goto	u4386
  7618     0884                     u4385:
  7619     0884  02D7               	subwf	??___flge+3,f
  7620     0885                     u4386:
  7621     0885  0857               	movf	??___flge+3,w
  7622     0886  00D3               	movwf	___flge@ff2+3
  7623     0887  0856               	movf	??___flge+2,w
  7624     0888  00D2               	movwf	___flge@ff2+2
  7625     0889  0855               	movf	??___flge+1,w
  7626     088A  00D1               	movwf	___flge@ff2+1
  7627     088B  0854               	movf	??___flge,w
  7628     088C  00D0               	movwf	___flge@ff2
  7629     088D                     l640:
  7630     088D  3080               	movlw	128
  7631     088E  06CF               	xorwf	___flge@ff1+3,f
  7632     088F  3080               	movlw	128
  7633     0890  06D3               	xorwf	___flge@ff2+3,f
  7634     0891  0853               	movf	___flge@ff2+3,w
  7635     0892  024F               	subwf	___flge@ff1+3,w
  7636     0893  1D03               	skipz
  7637     0894  289F               	goto	u4395
  7638     0895  0852               	movf	___flge@ff2+2,w
  7639     0896  024E               	subwf	___flge@ff1+2,w
  7640     0897  1D03               	skipz
  7641     0898  289F               	goto	u4395
  7642     0899  0851               	movf	___flge@ff2+1,w
  7643     089A  024D               	subwf	___flge@ff1+1,w
  7644     089B  1D03               	skipz
  7645     089C  289F               	goto	u4395
  7646     089D  0850               	movf	___flge@ff2,w
  7647     089E  024C               	subwf	___flge@ff1,w
  7648     089F                     u4395:
  7649     089F  1803               	skipnc
  7650     08A0  28A2               	goto	u4391
  7651     08A1  28A3               	goto	u4390
  7652     08A2                     u4391:
  7653     08A2  28A5               	goto	l4137
  7654     08A3                     u4390:
  7655     08A3                     l4135:
  7656     08A3  1003               	clrc
  7657     08A4  28A6               	goto	l645
  7658     08A5                     l4137:
  7659     08A5  1403               	setc
  7660     08A6                     l645:
  7661     08A6  0008               	return
  7662     08A7                     __end_of___flge:
  7663                           
  7664                           	psect	text15
  7665     15C2                     __ptext15:	
  7666 ;; *************** function ___awmod *****************
  7667 ;; Defined at:
  7668 ;;		line 5 in file "C:\Program Files\Microchip\xc8\v2.45\pic\sources\c99\common\awmod.c"
  7669 ;; Parameters:    Size  Location     Type
  7670 ;;  divisor         2    2[COMMON] int 
  7671 ;;  dividend        2    4[COMMON] int 
  7672 ;; Auto vars:     Size  Location     Type
  7673 ;;  sign            1    7[COMMON] unsigned char 
  7674 ;;  counter         1    6[COMMON] unsigned char 
  7675 ;; Return value:  Size  Location     Type
  7676 ;;                  2    2[COMMON] int 
  7677 ;; Registers used:
  7678 ;;		wreg, status,2, status,0, btemp+1
  7679 ;; Tracked objects:
  7680 ;;		On entry : 0/0
  7681 ;;		On exit  : 0/0
  7682 ;;		Unchanged: 0/0
  7683 ;; Data sizes:     COMMON   BANK0   BANK1   BANK3   BANK2
  7684 ;;      Params:         4       0       0       0       0
  7685 ;;      Locals:         2       0       0       0       0
  7686 ;;      Temps:          0       0       0       0       0
  7687 ;;      Totals:         6       0       0       0       0
  7688 ;;Total ram usage:        6 bytes
  7689 ;; Hardware stack levels used: 1
  7690 ;; Hardware stack levels required when called: 1
  7691 ;; This function calls:
  7692 ;;		Nothing
  7693 ;; This function is called by:
  7694 ;;		_water_level_screen
  7695 ;;		_run_program
  7696 ;; This function uses a non-reentrant model
  7697 ;;
  7698                           
  7699     15C2                     ___awmod:	
  7700                           ;psect for function ___awmod
  7701                           
  7702     15C2                     l4083:	
  7703                           ;incstack = 0
  7704                           ; Regs used in ___awmod: [wreg+status,2+status,0+btemp+1]
  7705                           
  7706     15C2  01F7               	clrf	___awmod@sign
  7707     15C3                     l4085:
  7708     15C3  1FF5               	btfss	___awmod@dividend+1,7
  7709     15C4  2DC6               	goto	u4241
  7710     15C5  2DC7               	goto	u4240
  7711     15C6                     u4241:
  7712     15C6  2DCE               	goto	l4091
  7713     15C7                     u4240:
  7714     15C7                     l4087:
  7715     15C7  09F4               	comf	___awmod@dividend,f
  7716     15C8  09F5               	comf	___awmod@dividend+1,f
  7717     15C9  0AF4               	incf	___awmod@dividend,f
  7718     15CA  1903               	skipnz
  7719     15CB  0AF5               	incf	___awmod@dividend+1,f
  7720     15CC                     l4089:
  7721     15CC  01F7               	clrf	___awmod@sign
  7722     15CD  0AF7               	incf	___awmod@sign,f
  7723     15CE                     l4091:
  7724     15CE  1FF3               	btfss	___awmod@divisor+1,7
  7725     15CF  2DD1               	goto	u4251
  7726     15D0  2DD2               	goto	u4250
  7727     15D1                     u4251:
  7728     15D1  2DD7               	goto	l4095
  7729     15D2                     u4250:
  7730     15D2                     l4093:
  7731     15D2  09F2               	comf	___awmod@divisor,f
  7732     15D3  09F3               	comf	___awmod@divisor+1,f
  7733     15D4  0AF2               	incf	___awmod@divisor,f
  7734     15D5  1903               	skipnz
  7735     15D6  0AF3               	incf	___awmod@divisor+1,f
  7736     15D7                     l4095:
  7737     15D7  0872               	movf	___awmod@divisor,w
  7738     15D8  0473               	iorwf	___awmod@divisor+1,w
  7739     15D9  1903               	btfsc	3,2
  7740     15DA  2DDC               	goto	u4261
  7741     15DB  2DDD               	goto	u4260
  7742     15DC                     u4261:
  7743     15DC  2E0C               	goto	l4113
  7744     15DD                     u4260:
  7745     15DD                     l4097:
  7746     15DD  01F6               	clrf	___awmod@counter
  7747     15DE  0AF6               	incf	___awmod@counter,f
  7748     15DF  2DEB               	goto	l4103
  7749     15E0                     l4099:
  7750     15E0  3001               	movlw	1
  7751     15E1                     u4275:
  7752     15E1  1003               	clrc
  7753     15E2  0DF2               	rlf	___awmod@divisor,f
  7754     15E3  0DF3               	rlf	___awmod@divisor+1,f
  7755     15E4  3EFF               	addlw	-1
  7756     15E5  1D03               	skipz
  7757     15E6  2DE1               	goto	u4275
  7758     15E7                     l4101:
  7759     15E7  3001               	movlw	1
  7760     15E8  00FF               	movwf	btemp+1
  7761     15E9  087F               	movf	btemp+1,w
  7762     15EA  07F6               	addwf	___awmod@counter,f
  7763     15EB                     l4103:
  7764     15EB  1FF3               	btfss	___awmod@divisor+1,7
  7765     15EC  2DEE               	goto	u4281
  7766     15ED  2DEF               	goto	u4280
  7767     15EE                     u4281:
  7768     15EE  2DE0               	goto	l4099
  7769     15EF                     u4280:
  7770     15EF                     l4105:
  7771     15EF  0873               	movf	___awmod@divisor+1,w
  7772     15F0  0275               	subwf	___awmod@dividend+1,w
  7773     15F1  1D03               	skipz
  7774     15F2  2DF5               	goto	u4295
  7775     15F3  0872               	movf	___awmod@divisor,w
  7776     15F4  0274               	subwf	___awmod@dividend,w
  7777     15F5                     u4295:
  7778     15F5  1C03               	skipc
  7779     15F6  2DF8               	goto	u4291
  7780     15F7  2DF9               	goto	u4290
  7781     15F8                     u4291:
  7782     15F8  2DFF               	goto	l4109
  7783     15F9                     u4290:
  7784     15F9                     l4107:
  7785     15F9  0872               	movf	___awmod@divisor,w
  7786     15FA  02F4               	subwf	___awmod@dividend,f
  7787     15FB  0873               	movf	___awmod@divisor+1,w
  7788     15FC  1C03               	skipc
  7789     15FD  03F5               	decf	___awmod@dividend+1,f
  7790     15FE  02F5               	subwf	___awmod@dividend+1,f
  7791     15FF                     l4109:
  7792     15FF  3001               	movlw	1
  7793     1600                     u4305:
  7794     1600  1003               	clrc
  7795     1601  0CF3               	rrf	___awmod@divisor+1,f
  7796     1602  0CF2               	rrf	___awmod@divisor,f
  7797     1603  3EFF               	addlw	-1
  7798     1604  1D03               	skipz
  7799     1605  2E00               	goto	u4305
  7800     1606                     l4111:
  7801     1606  3001               	movlw	1
  7802     1607  02F6               	subwf	___awmod@counter,f
  7803     1608  1D03               	btfss	3,2
  7804     1609  2E0B               	goto	u4311
  7805     160A  2E0C               	goto	u4310
  7806     160B                     u4311:
  7807     160B  2DEF               	goto	l4105
  7808     160C                     u4310:
  7809     160C                     l4113:
  7810     160C  0877               	movf	___awmod@sign,w
  7811     160D  1903               	btfsc	3,2
  7812     160E  2E10               	goto	u4321
  7813     160F  2E11               	goto	u4320
  7814     1610                     u4321:
  7815     1610  2E16               	goto	l4117
  7816     1611                     u4320:
  7817     1611                     l4115:
  7818     1611  09F4               	comf	___awmod@dividend,f
  7819     1612  09F5               	comf	___awmod@dividend+1,f
  7820     1613  0AF4               	incf	___awmod@dividend,f
  7821     1614  1903               	skipnz
  7822     1615  0AF5               	incf	___awmod@dividend+1,f
  7823     1616                     l4117:
  7824     1616  0875               	movf	___awmod@dividend+1,w
  7825     1617  00F3               	movwf	?___awmod+1
  7826     1618  0874               	movf	___awmod@dividend,w
  7827     1619  00F2               	movwf	?___awmod
  7828     161A                     l625:
  7829     161A  0008               	return
  7830     161B                     __end_of___awmod:
  7831                           
  7832                           	psect	text16
  7833     161B                     __ptext16:	
  7834 ;; *************** function ___awdiv *****************
  7835 ;; Defined at:
  7836 ;;		line 5 in file "C:\Program Files\Microchip\xc8\v2.45\pic\sources\c99\common\awdiv.c"
  7837 ;; Parameters:    Size  Location     Type
  7838 ;;  divisor         2    2[COMMON] int 
  7839 ;;  dividend        2    4[COMMON] int 
  7840 ;; Auto vars:     Size  Location     Type
  7841 ;;  quotient        2    2[BANK0 ] int 
  7842 ;;  sign            1    1[BANK0 ] unsigned char 
  7843 ;;  counter         1    0[BANK0 ] unsigned char 
  7844 ;; Return value:  Size  Location     Type
  7845 ;;                  2    2[COMMON] int 
  7846 ;; Registers used:
  7847 ;;		wreg, status,2, status,0, btemp+1
  7848 ;; Tracked objects:
  7849 ;;		On entry : 0/0
  7850 ;;		On exit  : 0/0
  7851 ;;		Unchanged: 0/0
  7852 ;; Data sizes:     COMMON   BANK0   BANK1   BANK3   BANK2
  7853 ;;      Params:         4       0       0       0       0
  7854 ;;      Locals:         0       4       0       0       0
  7855 ;;      Temps:          0       0       0       0       0
  7856 ;;      Totals:         4       4       0       0       0
  7857 ;;Total ram usage:        8 bytes
  7858 ;; Hardware stack levels used: 1
  7859 ;; Hardware stack levels required when called: 1
  7860 ;; This function calls:
  7861 ;;		Nothing
  7862 ;; This function is called by:
  7863 ;;		_run_program
  7864 ;; This function uses a non-reentrant model
  7865 ;;
  7866                           
  7867     161B                     ___awdiv:	
  7868                           ;psect for function ___awdiv
  7869                           
  7870     161B                     l5203:	
  7871                           ;incstack = 0
  7872                           ; Regs used in ___awdiv: [wreg+status,2+status,0+btemp+1]
  7873                           
  7874     161B  1283               	bcf	3,5	;RP0=0, select bank0
  7875     161C  1303               	bcf	3,6	;RP1=0, select bank0
  7876     161D  01A1               	clrf	___awdiv@sign
  7877     161E                     l5205:
  7878     161E  1FF3               	btfss	___awdiv@divisor+1,7
  7879     161F  2E21               	goto	u5441
  7880     1620  2E22               	goto	u5440
  7881     1621                     u5441:
  7882     1621  2E29               	goto	l5211
  7883     1622                     u5440:
  7884     1622                     l5207:
  7885     1622  09F2               	comf	___awdiv@divisor,f
  7886     1623  09F3               	comf	___awdiv@divisor+1,f
  7887     1624  0AF2               	incf	___awdiv@divisor,f
  7888     1625  1903               	skipnz
  7889     1626  0AF3               	incf	___awdiv@divisor+1,f
  7890     1627                     l5209:
  7891     1627  01A1               	clrf	___awdiv@sign
  7892     1628  0AA1               	incf	___awdiv@sign,f
  7893     1629                     l5211:
  7894     1629  1FF5               	btfss	___awdiv@dividend+1,7
  7895     162A  2E2C               	goto	u5451
  7896     162B  2E2D               	goto	u5450
  7897     162C                     u5451:
  7898     162C  2E36               	goto	l5217
  7899     162D                     u5450:
  7900     162D                     l5213:
  7901     162D  09F4               	comf	___awdiv@dividend,f
  7902     162E  09F5               	comf	___awdiv@dividend+1,f
  7903     162F  0AF4               	incf	___awdiv@dividend,f
  7904     1630  1903               	skipnz
  7905     1631  0AF5               	incf	___awdiv@dividend+1,f
  7906     1632                     l5215:
  7907     1632  3001               	movlw	1
  7908     1633  00FF               	movwf	btemp+1
  7909     1634  087F               	movf	btemp+1,w
  7910     1635  06A1               	xorwf	___awdiv@sign,f
  7911     1636                     l5217:
  7912     1636  01A2               	clrf	___awdiv@quotient
  7913     1637  01A3               	clrf	___awdiv@quotient+1
  7914     1638                     l5219:
  7915     1638  0872               	movf	___awdiv@divisor,w
  7916     1639  0473               	iorwf	___awdiv@divisor+1,w
  7917     163A  1903               	btfsc	3,2
  7918     163B  2E3D               	goto	u5461
  7919     163C  2E3E               	goto	u5460
  7920     163D                     u5461:
  7921     163D  2E75               	goto	l5239
  7922     163E                     u5460:
  7923     163E                     l5221:
  7924     163E  01A0               	clrf	___awdiv@counter
  7925     163F  0AA0               	incf	___awdiv@counter,f
  7926     1640  2E4C               	goto	l5227
  7927     1641                     l5223:
  7928     1641  3001               	movlw	1
  7929     1642                     u5475:
  7930     1642  1003               	clrc
  7931     1643  0DF2               	rlf	___awdiv@divisor,f
  7932     1644  0DF3               	rlf	___awdiv@divisor+1,f
  7933     1645  3EFF               	addlw	-1
  7934     1646  1D03               	skipz
  7935     1647  2E42               	goto	u5475
  7936     1648                     l5225:
  7937     1648  3001               	movlw	1
  7938     1649  00FF               	movwf	btemp+1
  7939     164A  087F               	movf	btemp+1,w
  7940     164B  07A0               	addwf	___awdiv@counter,f
  7941     164C                     l5227:
  7942     164C  1FF3               	btfss	___awdiv@divisor+1,7
  7943     164D  2E4F               	goto	u5481
  7944     164E  2E50               	goto	u5480
  7945     164F                     u5481:
  7946     164F  2E41               	goto	l5223
  7947     1650                     u5480:
  7948     1650                     l5229:
  7949     1650  3001               	movlw	1
  7950     1651                     u5495:
  7951     1651  1003               	clrc
  7952     1652  0DA2               	rlf	___awdiv@quotient,f
  7953     1653  0DA3               	rlf	___awdiv@quotient+1,f
  7954     1654  3EFF               	addlw	-1
  7955     1655  1D03               	skipz
  7956     1656  2E51               	goto	u5495
  7957     1657  0873               	movf	___awdiv@divisor+1,w
  7958     1658  0275               	subwf	___awdiv@dividend+1,w
  7959     1659  1D03               	skipz
  7960     165A  2E5D               	goto	u5505
  7961     165B  0872               	movf	___awdiv@divisor,w
  7962     165C  0274               	subwf	___awdiv@dividend,w
  7963     165D                     u5505:
  7964     165D  1C03               	skipc
  7965     165E  2E60               	goto	u5501
  7966     165F  2E61               	goto	u5500
  7967     1660                     u5501:
  7968     1660  2E68               	goto	l5235
  7969     1661                     u5500:
  7970     1661                     l5231:
  7971     1661  0872               	movf	___awdiv@divisor,w
  7972     1662  02F4               	subwf	___awdiv@dividend,f
  7973     1663  0873               	movf	___awdiv@divisor+1,w
  7974     1664  1C03               	skipc
  7975     1665  03F5               	decf	___awdiv@dividend+1,f
  7976     1666  02F5               	subwf	___awdiv@dividend+1,f
  7977     1667                     l5233:
  7978     1667  1422               	bsf	___awdiv@quotient,0
  7979     1668                     l5235:
  7980     1668  3001               	movlw	1
  7981     1669                     u5515:
  7982     1669  1003               	clrc
  7983     166A  0CF3               	rrf	___awdiv@divisor+1,f
  7984     166B  0CF2               	rrf	___awdiv@divisor,f
  7985     166C  3EFF               	addlw	-1
  7986     166D  1D03               	skipz
  7987     166E  2E69               	goto	u5515
  7988     166F                     l5237:
  7989     166F  3001               	movlw	1
  7990     1670  02A0               	subwf	___awdiv@counter,f
  7991     1671  1D03               	btfss	3,2
  7992     1672  2E74               	goto	u5521
  7993     1673  2E75               	goto	u5520
  7994     1674                     u5521:
  7995     1674  2E50               	goto	l5229
  7996     1675                     u5520:
  7997     1675                     l5239:
  7998     1675  0821               	movf	___awdiv@sign,w
  7999     1676  1903               	btfsc	3,2
  8000     1677  2E79               	goto	u5531
  8001     1678  2E7A               	goto	u5530
  8002     1679                     u5531:
  8003     1679  2E7F               	goto	l5243
  8004     167A                     u5530:
  8005     167A                     l5241:
  8006     167A  09A2               	comf	___awdiv@quotient,f
  8007     167B  09A3               	comf	___awdiv@quotient+1,f
  8008     167C  0AA2               	incf	___awdiv@quotient,f
  8009     167D  1903               	skipnz
  8010     167E  0AA3               	incf	___awdiv@quotient+1,f
  8011     167F                     l5243:
  8012     167F  0823               	movf	___awdiv@quotient+1,w
  8013     1680  00F3               	movwf	?___awdiv+1
  8014     1681  0822               	movf	___awdiv@quotient,w
  8015     1682  00F2               	movwf	?___awdiv
  8016     1683                     l612:
  8017     1683  0008               	return
  8018     1684                     __end_of___awdiv:
  8019                           
  8020                           	psect	text17
  8021     1515                     __ptext17:	
  8022 ;; *************** function _read_digital_keypad *****************
  8023 ;; Defined at:
  8024 ;;		line 10 in file "digital_keypad.c"
  8025 ;; Parameters:    Size  Location     Type
  8026 ;;  mode            1    wreg     unsigned char 
  8027 ;; Auto vars:     Size  Location     Type
  8028 ;;  mode            1    0[COMMON] unsigned char 
  8029 ;;  key             1    2[COMMON] unsigned char 
  8030 ;; Return value:  Size  Location     Type
  8031 ;;                  1    wreg      unsigned char 
  8032 ;; Registers used:
  8033 ;;		wreg, status,2, status,0, btemp+1
  8034 ;; Tracked objects:
  8035 ;;		On entry : 0/0
  8036 ;;		On exit  : 0/0
  8037 ;;		Unchanged: 0/0
  8038 ;; Data sizes:     COMMON   BANK0   BANK1   BANK3   BANK2
  8039 ;;      Params:         0       0       0       0       0
  8040 ;;      Locals:         1       0       0       0       0
  8041 ;;      Temps:          0       0       0       0       0
  8042 ;;      Totals:         1       0       0       0       0
  8043 ;;Total ram usage:        1 bytes
  8044 ;; Hardware stack levels used: 1
  8045 ;; Hardware stack levels required when called: 1
  8046 ;; This function calls:
  8047 ;;		Nothing
  8048 ;; This function is called by:
  8049 ;;		_main
  8050 ;; This function uses a non-reentrant model
  8051 ;;
  8052                           
  8053     1515                     _read_digital_keypad:	
  8054                           ;psect for function _read_digital_keypad
  8055                           
  8056     1515                     l4389:	
  8057                           ;incstack = 0
  8058                           ; Regs used in _read_digital_keypad: [wreg+status,2+status,0+btemp+1]
  8059                           
  8060                           
  8061                           ;digital_keypad.c: 11:     static unsigned char once = 1;;digital_keypad.c: 12:     stat
      +                          ic unsigned char long_press = 1;;digital_keypad.c: 13:     static unsigned char pre_key;
      +                          ;digital_keypad.c: 14:     unsigned char key = PORTB & 0x3F;
  8062     1515  1283               	bcf	3,5	;RP0=0, select bank0
  8063     1516  1303               	bcf	3,6	;RP1=0, select bank0
  8064     1517  0806               	movf	6,w	;volatile
  8065     1518  393F               	andlw	63
  8066     1519  00F2               	movwf	read_digital_keypad@key
  8067     151A                     l4391:
  8068                           
  8069                           ;digital_keypad.c: 16:     if ((key != 0x3F) && once) {
  8070     151A  303F               	movlw	63
  8071     151B  0672               	xorwf	read_digital_keypad@key,w
  8072     151C  1903               	btfsc	3,2
  8073     151D  2D1F               	goto	u5011
  8074     151E  2D20               	goto	u5010
  8075     151F                     u5011:
  8076     151F  2D2B               	goto	l4401
  8077     1520                     u5010:
  8078     1520                     l4393:
  8079     1520  087B               	movf	read_digital_keypad@once,w
  8080     1521  1903               	btfsc	3,2
  8081     1522  2D24               	goto	u5021
  8082     1523  2D25               	goto	u5020
  8083     1524                     u5021:
  8084     1524  2D2B               	goto	l4401
  8085     1525                     u5020:
  8086     1525                     l4395:
  8087                           
  8088                           ;digital_keypad.c: 17:         once = 0;
  8089     1525  01FB               	clrf	read_digital_keypad@once
  8090     1526                     l4397:
  8091                           
  8092                           ;digital_keypad.c: 18:         pre_key = key;
  8093     1526  0872               	movf	read_digital_keypad@key,w
  8094     1527  00E8               	movwf	read_digital_keypad@pre_key
  8095     1528                     l4399:
  8096                           
  8097                           ;digital_keypad.c: 19:         long_press = 1;
  8098     1528  01EA               	clrf	read_digital_keypad@long_press
  8099     1529  0AEA               	incf	read_digital_keypad@long_press,f
  8100                           
  8101                           ;digital_keypad.c: 20:     } else if ((key == 0x3F) && !once) {
  8102     152A  2D69               	goto	l4433
  8103     152B                     l4401:
  8104     152B  303F               	movlw	63
  8105     152C  0672               	xorwf	read_digital_keypad@key,w
  8106     152D  1D03               	btfss	3,2
  8107     152E  2D30               	goto	u5031
  8108     152F  2D31               	goto	u5030
  8109     1530                     u5031:
  8110     1530  2D42               	goto	l4415
  8111     1531                     u5030:
  8112     1531                     l4403:
  8113     1531  087B               	movf	read_digital_keypad@once,w
  8114     1532  1D03               	btfss	3,2
  8115     1533  2D35               	goto	u5041
  8116     1534  2D36               	goto	u5040
  8117     1535                     u5041:
  8118     1535  2D42               	goto	l4415
  8119     1536                     u5040:
  8120     1536                     l4405:
  8121                           
  8122                           ;digital_keypad.c: 21:         once = 1;
  8123     1536  01FB               	clrf	read_digital_keypad@once
  8124     1537  0AFB               	incf	read_digital_keypad@once,f
  8125     1538                     l4407:
  8126                           
  8127                           ;digital_keypad.c: 22:         if (long_press < 15) {
  8128     1538  300F               	movlw	15
  8129     1539  026A               	subwf	read_digital_keypad@long_press,w
  8130     153A  1803               	skipnc
  8131     153B  2D3D               	goto	u5051
  8132     153C  2D3E               	goto	u5050
  8133     153D                     u5051:
  8134     153D  2D69               	goto	l4433
  8135     153E                     u5050:
  8136     153E                     l4409:
  8137                           
  8138                           ;digital_keypad.c: 23:             long_press = 1;
  8139     153E  01EA               	clrf	read_digital_keypad@long_press
  8140     153F  0AEA               	incf	read_digital_keypad@long_press,f
  8141     1540                     l4411:
  8142                           
  8143                           ;digital_keypad.c: 24:             return pre_key;
  8144     1540  0868               	movf	read_digital_keypad@pre_key,w
  8145     1541  2D6A               	goto	l126
  8146     1542                     l4415:
  8147     1542  087B               	movf	read_digital_keypad@once,w
  8148     1543  1D03               	btfss	3,2
  8149     1544  2D46               	goto	u5061
  8150     1545  2D47               	goto	u5060
  8151     1546                     u5061:
  8152     1546  2D52               	goto	l4421
  8153     1547                     u5060:
  8154     1547                     l4417:
  8155     1547  3010               	movlw	16
  8156     1548  026A               	subwf	read_digital_keypad@long_press,w
  8157     1549  1803               	skipnc
  8158     154A  2D4C               	goto	u5071
  8159     154B  2D4D               	goto	u5070
  8160     154C                     u5071:
  8161     154C  2D52               	goto	l4421
  8162     154D                     u5070:
  8163     154D                     l4419:
  8164                           
  8165                           ;digital_keypad.c: 27:         long_press++;
  8166     154D  3001               	movlw	1
  8167     154E  00FF               	movwf	btemp+1
  8168     154F  087F               	movf	btemp+1,w
  8169     1550  07EA               	addwf	read_digital_keypad@long_press,f
  8170                           
  8171                           ;digital_keypad.c: 28:     } else if (!once && long_press == 16 &&pre_key==0x37) {
  8172     1551  2D69               	goto	l4433
  8173     1552                     l4421:
  8174     1552  087B               	movf	read_digital_keypad@once,w
  8175     1553  1D03               	btfss	3,2
  8176     1554  2D56               	goto	u5081
  8177     1555  2D57               	goto	u5080
  8178     1556                     u5081:
  8179     1556  2D69               	goto	l127
  8180     1557                     u5080:
  8181     1557                     l4423:
  8182     1557  3010               	movlw	16
  8183     1558  066A               	xorwf	read_digital_keypad@long_press,w
  8184     1559  1D03               	btfss	3,2
  8185     155A  2D5C               	goto	u5091
  8186     155B  2D5D               	goto	u5090
  8187     155C                     u5091:
  8188     155C  2D69               	goto	l127
  8189     155D                     u5090:
  8190     155D                     l4425:
  8191     155D  3037               	movlw	55
  8192     155E  0668               	xorwf	read_digital_keypad@pre_key,w
  8193     155F  1D03               	btfss	3,2
  8194     1560  2D62               	goto	u5101
  8195     1561  2D63               	goto	u5100
  8196     1562                     u5101:
  8197     1562  2D69               	goto	l127
  8198     1563                     u5100:
  8199     1563                     l4427:
  8200                           
  8201                           ;digital_keypad.c: 29:         long_press++;
  8202     1563  3001               	movlw	1
  8203     1564  00FF               	movwf	btemp+1
  8204     1565  087F               	movf	btemp+1,w
  8205     1566  07EA               	addwf	read_digital_keypad@long_press,f
  8206     1567                     l4429:
  8207                           
  8208                           ;digital_keypad.c: 30:         return 0x99;
  8209     1567  3099               	movlw	153
  8210     1568  2D6A               	goto	l126
  8211     1569                     l127:
  8212     1569                     l4433:
  8213                           
  8214                           ;digital_keypad.c: 33:     return 0x3F;
  8215     1569  303F               	movlw	63
  8216     156A                     l126:
  8217     156A  0008               	return
  8218     156B                     __end_of_read_digital_keypad:
  8219                           
  8220                           	psect	text18
  8221     16EF                     __ptext18:	
  8222 ;; *************** function _power_on_screen *****************
  8223 ;; Defined at:
  8224 ;;		line 15 in file "washing_machine_function_def.c"
  8225 ;; Parameters:    Size  Location     Type
  8226 ;;		None
  8227 ;; Auto vars:     Size  Location     Type
  8228 ;;  i               1    9[BANK0 ] unsigned char 
  8229 ;;  i               1    8[BANK0 ] unsigned char 
  8230 ;; Return value:  Size  Location     Type
  8231 ;;                  1    wreg      void 
  8232 ;; Registers used:
  8233 ;;		wreg, fsr0l, fsr0h, status,2, status,0, btemp+1, pclath, cstack
  8234 ;; Tracked objects:
  8235 ;;		On entry : 0/0
  8236 ;;		On exit  : 0/0
  8237 ;;		Unchanged: 0/0
  8238 ;; Data sizes:     COMMON   BANK0   BANK1   BANK3   BANK2
  8239 ;;      Params:         0       0       0       0       0
  8240 ;;      Locals:         0       2       0       0       0
  8241 ;;      Temps:          0       3       0       0       0
  8242 ;;      Totals:         0       5       0       0       0
  8243 ;;Total ram usage:        5 bytes
  8244 ;; Hardware stack levels used: 1
  8245 ;; Hardware stack levels required when called: 3
  8246 ;; This function calls:
  8247 ;;		_clcd_print
  8248 ;;		_clcd_putch
  8249 ;; This function is called by:
  8250 ;;		_main
  8251 ;; This function uses a non-reentrant model
  8252 ;;
  8253                           
  8254     16EF                     _power_on_screen:	
  8255                           ;psect for function _power_on_screen
  8256                           
  8257     16EF                     l4437:	
  8258                           ;incstack = 0
  8259                           ; Regs used in _power_on_screen: [wreg-fsr0h+status,2+status,0+btemp+1+pclath+cstack]
  8260                           
  8261                           
  8262                           ;washing_machine_function_def.c: 16:     for (unsigned char i = 0; i < 16; i++) {
  8263     16EF  1283               	bcf	3,5	;RP0=0, select bank0
  8264     16F0  1303               	bcf	3,6	;RP1=0, select bank0
  8265     16F1  01A8               	clrf	power_on_screen@i
  8266     16F2                     l4443:
  8267                           
  8268                           ;washing_machine_function_def.c: 17:         clcd_putch(0xFF, (0x80 + i));
  8269     16F2  0828               	movf	power_on_screen@i,w
  8270     16F3  3E80               	addlw	128
  8271     16F4  00F8               	movwf	clcd_putch@addr
  8272     16F5  30FF               	movlw	255
  8273     16F6  160A  118A  23C1  160A  118A  	fcall	_clcd_putch
  8274     16FB                     l4445:
  8275                           
  8276                           ;washing_machine_function_def.c: 18:         _delay((unsigned long)((100)*(20000000/4000
      +                          .0)));
  8277     16FB  3003               	movlw	3
  8278     16FC  1283               	bcf	3,5	;RP0=0, select bank0
  8279     16FD  1303               	bcf	3,6	;RP1=0, select bank0
  8280     16FE  00A7               	movwf	??_power_on_screen+2
  8281     16FF  308A               	movlw	138
  8282     1700  00A6               	movwf	??_power_on_screen+1
  8283     1701  3055               	movlw	85
  8284     1702  00A5               	movwf	??_power_on_screen
  8285     1703                     u5797:
  8286     1703  0BA5               	decfsz	??_power_on_screen,f
  8287     1704  2F03               	goto	u5797
  8288     1705  0BA6               	decfsz	??_power_on_screen+1,f
  8289     1706  2F03               	goto	u5797
  8290     1707  0BA7               	decfsz	??_power_on_screen+2,f
  8291     1708  2F03               	goto	u5797
  8292     1709                     l4447:
  8293                           
  8294                           ;washing_machine_function_def.c: 19:     }
  8295     1709  3001               	movlw	1
  8296     170A  00FF               	movwf	btemp+1
  8297     170B  087F               	movf	btemp+1,w
  8298     170C  1283               	bcf	3,5	;RP0=0, select bank0
  8299     170D  1303               	bcf	3,6	;RP1=0, select bank0
  8300     170E  07A8               	addwf	power_on_screen@i,f
  8301     170F                     l4449:
  8302     170F  3010               	movlw	16
  8303     1710  0228               	subwf	power_on_screen@i,w
  8304     1711  1C03               	skipc
  8305     1712  2F14               	goto	u5111
  8306     1713  2F15               	goto	u5110
  8307     1714                     u5111:
  8308     1714  2EF2               	goto	l4443
  8309     1715                     u5110:
  8310     1715                     l4451:
  8311                           
  8312                           ;washing_machine_function_def.c: 21:     clcd_print("Powering ON", (0xC0 + 3));
  8313     1715  308A               	movlw	low (STR_24| (0+32768))
  8314     1716  00A0               	movwf	clcd_print@str
  8315     1717  3090               	movlw	high (STR_24| (0+32768))
  8316     1718  00A1               	movwf	clcd_print@str+1
  8317     1719  30C3               	movlw	195
  8318     171A  00A2               	movwf	clcd_print@addr
  8319     171B  160A  118A  24A4  160A  118A  	fcall	_clcd_print
  8320                           
  8321                           ;washing_machine_function_def.c: 22:     clcd_print("Washing Machine", (0x90+1));
  8322     1720  3041               	movlw	low (STR_3| (0+32768))
  8323     1721  1283               	bcf	3,5	;RP0=0, select bank0
  8324     1722  1303               	bcf	3,6	;RP1=0, select bank0
  8325     1723  00A0               	movwf	clcd_print@str
  8326     1724  3090               	movlw	high (STR_3| (0+32768))
  8327     1725  00A1               	movwf	clcd_print@str+1
  8328     1726  3091               	movlw	145
  8329     1727  00A2               	movwf	clcd_print@addr
  8330     1728  160A  118A  24A4  160A  118A  	fcall	_clcd_print
  8331     172D                     l4453:
  8332                           
  8333                           ;washing_machine_function_def.c: 24:     for (unsigned char i = 0; i < 16; i++) {
  8334     172D  1283               	bcf	3,5	;RP0=0, select bank0
  8335     172E  1303               	bcf	3,6	;RP1=0, select bank0
  8336     172F  01A9               	clrf	power_on_screen@i_201
  8337     1730                     l4459:
  8338                           
  8339                           ;washing_machine_function_def.c: 25:         clcd_putch(0xFF, (0xD0+i));
  8340     1730  0829               	movf	power_on_screen@i_201,w
  8341     1731  3ED0               	addlw	208
  8342     1732  00F8               	movwf	clcd_putch@addr
  8343     1733  30FF               	movlw	255
  8344     1734  160A  118A  23C1  160A  118A  	fcall	_clcd_putch
  8345     1739                     l4461:
  8346                           
  8347                           ;washing_machine_function_def.c: 26:         _delay((unsigned long)((100)*(20000000/4000
      +                          .0)));
  8348     1739  3003               	movlw	3
  8349     173A  1283               	bcf	3,5	;RP0=0, select bank0
  8350     173B  1303               	bcf	3,6	;RP1=0, select bank0
  8351     173C  00A7               	movwf	??_power_on_screen+2
  8352     173D  308A               	movlw	138
  8353     173E  00A6               	movwf	??_power_on_screen+1
  8354     173F  3055               	movlw	85
  8355     1740  00A5               	movwf	??_power_on_screen
  8356     1741                     u5807:
  8357     1741  0BA5               	decfsz	??_power_on_screen,f
  8358     1742  2F41               	goto	u5807
  8359     1743  0BA6               	decfsz	??_power_on_screen+1,f
  8360     1744  2F41               	goto	u5807
  8361     1745  0BA7               	decfsz	??_power_on_screen+2,f
  8362     1746  2F41               	goto	u5807
  8363     1747                     l4463:
  8364                           
  8365                           ;washing_machine_function_def.c: 27:     }
  8366     1747  3001               	movlw	1
  8367     1748  00FF               	movwf	btemp+1
  8368     1749  087F               	movf	btemp+1,w
  8369     174A  1283               	bcf	3,5	;RP0=0, select bank0
  8370     174B  1303               	bcf	3,6	;RP1=0, select bank0
  8371     174C  07A9               	addwf	power_on_screen@i_201,f
  8372     174D                     l4465:
  8373     174D  3010               	movlw	16
  8374     174E  0229               	subwf	power_on_screen@i_201,w
  8375     174F  1C03               	skipc
  8376     1750  2F52               	goto	u5121
  8377     1751  2F53               	goto	u5120
  8378     1752                     u5121:
  8379     1752  2F30               	goto	l4459
  8380     1753                     u5120:
  8381     1753                     l4467:
  8382                           
  8383                           ;washing_machine_function_def.c: 29:     _delay((unsigned long)((500)*(20000000/4000.0))
      +                          );
  8384     1753  300D               	movlw	13
  8385     1754  1283               	bcf	3,5	;RP0=0, select bank0
  8386     1755  1303               	bcf	3,6	;RP1=0, select bank0
  8387     1756  00A7               	movwf	??_power_on_screen+2
  8388     1757  30AF               	movlw	175
  8389     1758  00A6               	movwf	??_power_on_screen+1
  8390     1759  30B5               	movlw	181
  8391     175A  00A5               	movwf	??_power_on_screen
  8392     175B                     u5817:
  8393     175B  0BA5               	decfsz	??_power_on_screen,f
  8394     175C  2F5B               	goto	u5817
  8395     175D  0BA6               	decfsz	??_power_on_screen+1,f
  8396     175E  2F5B               	goto	u5817
  8397     175F  0BA7               	decfsz	??_power_on_screen+2,f
  8398     1760  2F5B               	goto	u5817
  8399     1761  2F62               	nop2
  8400     1762                     l227:
  8401     1762  0008               	return
  8402     1763                     __end_of_power_on_screen:
  8403                           
  8404                           	psect	text19
  8405     13C1                     __ptext19:	
  8406 ;; *************** function _clcd_putch *****************
  8407 ;; Defined at:
  8408 ;;		line 49 in file "clcd.c"
  8409 ;; Parameters:    Size  Location     Type
  8410 ;;  data            1    wreg     const unsigned char 
  8411 ;;  addr            1    8[COMMON] unsigned char 
  8412 ;; Auto vars:     Size  Location     Type
  8413 ;;  data            1    4[BANK0 ] const unsigned char 
  8414 ;; Return value:  Size  Location     Type
  8415 ;;                  1    wreg      void 
  8416 ;; Registers used:
  8417 ;;		wreg, status,2, status,0, pclath, cstack
  8418 ;; Tracked objects:
  8419 ;;		On entry : 0/0
  8420 ;;		On exit  : 0/0
  8421 ;;		Unchanged: 0/0
  8422 ;; Data sizes:     COMMON   BANK0   BANK1   BANK3   BANK2
  8423 ;;      Params:         1       0       0       0       0
  8424 ;;      Locals:         0       1       0       0       0
  8425 ;;      Temps:          0       0       0       0       0
  8426 ;;      Totals:         1       1       0       0       0
  8427 ;;Total ram usage:        2 bytes
  8428 ;; Hardware stack levels used: 1
  8429 ;; Hardware stack levels required when called: 2
  8430 ;; This function calls:
  8431 ;;		_clcd_write
  8432 ;; This function is called by:
  8433 ;;		_power_on_screen
  8434 ;;		_washing_program_display
  8435 ;;		_water_level_screen
  8436 ;;		_run_program
  8437 ;; This function uses a non-reentrant model
  8438 ;;
  8439                           
  8440     13C1                     _clcd_putch:	
  8441                           ;psect for function _clcd_putch
  8442                           
  8443                           
  8444                           ;incstack = 0
  8445                           ; Regs used in _clcd_putch: [wreg+status,2+status,0+pclath+cstack]
  8446                           ;clcd_putch@data stored from wreg
  8447     13C1  1283               	bcf	3,5	;RP0=0, select bank0
  8448     13C2  1303               	bcf	3,6	;RP1=0, select bank0
  8449     13C3  00A4               	movwf	clcd_putch@data
  8450     13C4                     l4003:
  8451                           
  8452                           ;clcd.c: 49: void clcd_putch(const char data, unsigned char addr);clcd.c: 50: {;clcd.c: 
      +                          51:     clcd_write(addr, 0);
  8453     13C4  01F2               	clrf	clcd_write@mode
  8454     13C5  0878               	movf	clcd_putch@addr,w
  8455     13C6  160A  118A  23F0  160A  118A  	fcall	_clcd_write
  8456                           
  8457                           ;clcd.c: 52:     clcd_write(data, 1);
  8458     13CB  01F2               	clrf	clcd_write@mode
  8459     13CC  0AF2               	incf	clcd_write@mode,f
  8460     13CD  1283               	bcf	3,5	;RP0=0, select bank0
  8461     13CE  1303               	bcf	3,6	;RP1=0, select bank0
  8462     13CF  0824               	movf	clcd_putch@data,w
  8463     13D0  160A  118A  23F0  160A  118A  	fcall	_clcd_write
  8464     13D5                     l100:
  8465     13D5  0008               	return
  8466     13D6                     __end_of_clcd_putch:
  8467                           
  8468                           	psect	text20
  8469     14A4                     __ptext20:	
  8470 ;; *************** function _clcd_print *****************
  8471 ;; Defined at:
  8472 ;;		line 55 in file "clcd.c"
  8473 ;; Parameters:    Size  Location     Type
  8474 ;;  str             2    0[BANK0 ] PTR const unsigned char 
  8475 ;;		 -> STR_47(16), STR_46(7), STR_45(11), STR_44(11), 
  8476 ;;		 -> STR_43(7), STR_42(16), STR_41(15), STR_40(17), 
  8477 ;;		 -> STR_39(5), STR_38(6), STR_37(6), STR_36(6), 
  8478 ;;		 -> STR_35(6), STR_34(6), STR_33(5), STR_32(16), 
  8479 ;;		 -> STR_31(7), STR_30(11), STR_29(6), STR_28(6), 
  8480 ;;		 -> STR_27(14), STR_26(16), STR_25(16), STR_24(12), 
  8481 ;;		 -> STR_23(4), STR_22(5), STR_21(7), STR_20(4), 
  8482 ;;		 -> STR_19(5), STR_18(11), STR_17(10), STR_16(9), 
  8483 ;;		 -> STR_15(10), STR_14(11), STR_13(8), STR_12(12), 
  8484 ;;		 -> STR_11(11), STR_10(7), STR_9(10), STR_8(6), 
  8485 ;;		 -> STR_7(6), STR_6(11), STR_5(12), STR_4(13), 
  8486 ;;		 -> STR_3(16), STR_2(9), STR_1(15), 
  8487 ;;  addr            1    2[BANK0 ] unsigned char 
  8488 ;; Auto vars:     Size  Location     Type
  8489 ;;		None
  8490 ;; Return value:  Size  Location     Type
  8491 ;;                  1    wreg      void 
  8492 ;; Registers used:
  8493 ;;		wreg, fsr0l, fsr0h, status,2, status,0, btemp+1, pclath, cstack
  8494 ;; Tracked objects:
  8495 ;;		On entry : 0/0
  8496 ;;		On exit  : 0/0
  8497 ;;		Unchanged: 0/0
  8498 ;; Data sizes:     COMMON   BANK0   BANK1   BANK3   BANK2
  8499 ;;      Params:         0       3       0       0       0
  8500 ;;      Locals:         0       0       0       0       0
  8501 ;;      Temps:          0       0       0       0       0
  8502 ;;      Totals:         0       3       0       0       0
  8503 ;;Total ram usage:        3 bytes
  8504 ;; Hardware stack levels used: 1
  8505 ;; Hardware stack levels required when called: 2
  8506 ;; This function calls:
  8507 ;;		_clcd_write
  8508 ;; This function is called by:
  8509 ;;		_main
  8510 ;;		_power_on_screen
  8511 ;;		_washing_program_display
  8512 ;;		_water_level_screen
  8513 ;;		_run_program
  8514 ;;		_door_status_check
  8515 ;; This function uses a non-reentrant model
  8516 ;;
  8517                           
  8518     14A4                     _clcd_print:	
  8519                           ;psect for function _clcd_print
  8520                           
  8521     14A4                     l3725:	
  8522                           ;incstack = 0
  8523                           ; Regs used in _clcd_print: [wreg-fsr0h+status,2+status,0+btemp+1+pclath+cstack]
  8524                           
  8525                           
  8526                           ;clcd.c: 55: void clcd_print(const char *str, unsigned char addr);clcd.c: 56: {;clcd.c: 
      +                          57:     clcd_write(addr, 0);
  8527     14A4  01F2               	clrf	clcd_write@mode
  8528     14A5  1283               	bcf	3,5	;RP0=0, select bank0
  8529     14A6  1303               	bcf	3,6	;RP1=0, select bank0
  8530     14A7  0822               	movf	clcd_print@addr,w
  8531     14A8  160A  118A  23F0  160A  118A  	fcall	_clcd_write
  8532                           
  8533                           ;clcd.c: 59:     while (*str != '\0')
  8534     14AD  2CC6               	goto	l3731
  8535     14AE                     l3727:
  8536                           
  8537                           ;clcd.c: 60:     {;clcd.c: 61:         clcd_write(*str, 1);
  8538     14AE  01F2               	clrf	clcd_write@mode
  8539     14AF  0AF2               	incf	clcd_write@mode,f
  8540     14B0  0821               	movf	clcd_print@str+1,w
  8541     14B1  00FF               	movwf	btemp+1
  8542     14B2  0820               	movf	clcd_print@str,w
  8543     14B3  0084               	movwf	4
  8544     14B4  160A  118A  217F  160A  118A  	fcall	stringtab
  8545     14B9  160A  118A  23F0  160A  118A  	fcall	_clcd_write
  8546     14BE                     l3729:
  8547                           
  8548                           ;clcd.c: 62:         str++;
  8549     14BE  3001               	movlw	1
  8550     14BF  1283               	bcf	3,5	;RP0=0, select bank0
  8551     14C0  1303               	bcf	3,6	;RP1=0, select bank0
  8552     14C1  07A0               	addwf	clcd_print@str,f
  8553     14C2  1803               	skipnc
  8554     14C3  0AA1               	incf	clcd_print@str+1,f
  8555     14C4  3000               	movlw	0
  8556     14C5  07A1               	addwf	clcd_print@str+1,f
  8557     14C6                     l3731:
  8558                           
  8559                           ;clcd.c: 59:     while (*str != '\0')
  8560     14C6  1283               	bcf	3,5	;RP0=0, select bank0
  8561     14C7  1303               	bcf	3,6	;RP1=0, select bank0
  8562     14C8  0821               	movf	clcd_print@str+1,w
  8563     14C9  00FF               	movwf	btemp+1
  8564     14CA  0820               	movf	clcd_print@str,w
  8565     14CB  0084               	movwf	4
  8566     14CC  160A  118A  217F  160A  118A  	fcall	stringtab
  8567     14D1  3A00               	xorlw	0
  8568     14D2  1D03               	skipz
  8569     14D3  2CD5               	goto	u3581
  8570     14D4  2CD6               	goto	u3580
  8571     14D5                     u3581:
  8572     14D5  2CAE               	goto	l3727
  8573     14D6                     u3580:
  8574     14D6                     l106:
  8575     14D6  0008               	return
  8576     14D7                     __end_of_clcd_print:
  8577                           
  8578                           	psect	text21
  8579     13D6                     __ptext21:	
  8580 ;; *************** function _init_config *****************
  8581 ;; Defined at:
  8582 ;;		line 12 in file "main.c"
  8583 ;; Parameters:    Size  Location     Type
  8584 ;;		None
  8585 ;; Auto vars:     Size  Location     Type
  8586 ;;		None
  8587 ;; Return value:  Size  Location     Type
  8588 ;;                  1    wreg      void 
  8589 ;; Registers used:
  8590 ;;		wreg, status,2, status,0, pclath, cstack
  8591 ;; Tracked objects:
  8592 ;;		On entry : 0/0
  8593 ;;		On exit  : 0/0
  8594 ;;		Unchanged: 0/0
  8595 ;; Data sizes:     COMMON   BANK0   BANK1   BANK3   BANK2
  8596 ;;      Params:         0       0       0       0       0
  8597 ;;      Locals:         0       0       0       0       0
  8598 ;;      Temps:          0       0       0       0       0
  8599 ;;      Totals:         0       0       0       0       0
  8600 ;;Total ram usage:        0 bytes
  8601 ;; Hardware stack levels used: 1
  8602 ;; Hardware stack levels required when called: 4
  8603 ;; This function calls:
  8604 ;;		_init_clcd
  8605 ;;		_init_digital_keypad
  8606 ;;		_init_timer2
  8607 ;; This function is called by:
  8608 ;;		_main
  8609 ;; This function uses a non-reentrant model
  8610 ;;
  8611                           
  8612     13D6                     _init_config:	
  8613                           ;psect for function _init_config
  8614                           
  8615     13D6                     l4375:	
  8616                           ;incstack = 0
  8617                           ; Regs used in _init_config: [wreg+status,2+status,0+pclath+cstack]
  8618                           
  8619                           
  8620                           ;main.c: 14: }
  8621     13D6  160A  118A  2394  160A  118A  	fcall	_init_clcd
  8622                           
  8623                           ;main.c: 15: void main(void) {
  8624     13DB  160A  118A  238E  160A  118A  	fcall	_init_digital_keypad
  8625                           
  8626                           ;main.c: 16:     init_config();
  8627     13E0  160A  118A  239F  160A  118A  	fcall	_init_timer2
  8628     13E5                     l4377:
  8629                           
  8630                           ;main.c: 17:      unsigned char key;
  8631     13E5  178B               	bsf	11,7	;volatile
  8632     13E6                     l4379:
  8633                           
  8634                           ;main.c: 18:         clcd_print("Press KEY 5 to",(0x80 + 1));
  8635     13E6  170B               	bsf	11,6	;volatile
  8636     13E7                     l4381:
  8637                           
  8638                           ;main.c: 19:         clcd_print("Power ON",(0xC0 + 4));
  8639     13E7  1683               	bsf	3,5	;RP0=1, select bank1
  8640     13E8  1303               	bcf	3,6	;RP1=0, select bank1
  8641     13E9  1087               	bcf	7,1	;volatile
  8642     13EA                     l4383:
  8643                           
  8644                           ;main.c: 20:         clcd_print("Washing Machine",(0x90+1));
  8645     13EA  1107               	bcf	7,2	;volatile
  8646     13EB                     l4385:
  8647                           
  8648                           ;main.c: 21:        while(read_digital_keypad(1)!= 0x2F)
  8649     13EB  1283               	bcf	3,5	;RP0=0, select bank0
  8650     13EC  1303               	bcf	3,6	;RP1=0, select bank0
  8651     13ED  1087               	bcf	7,1	;volatile
  8652     13EE                     l4387:
  8653                           
  8654                           ;main.c: 22:        {
  8655     13EE  1107               	bcf	7,2	;volatile
  8656     13EF                     l43:
  8657     13EF  0008               	return
  8658     13F0                     __end_of_init_config:
  8659                           
  8660                           	psect	text22
  8661     139F                     __ptext22:	
  8662 ;; *************** function _init_timer2 *****************
  8663 ;; Defined at:
  8664 ;;		line 4 in file "timers.c"
  8665 ;; Parameters:    Size  Location     Type
  8666 ;;		None
  8667 ;; Auto vars:     Size  Location     Type
  8668 ;;		None
  8669 ;; Return value:  Size  Location     Type
  8670 ;;                  1    wreg      void 
  8671 ;; Registers used:
  8672 ;;		wreg, status,2
  8673 ;; Tracked objects:
  8674 ;;		On entry : 0/0
  8675 ;;		On exit  : 0/0
  8676 ;;		Unchanged: 0/0
  8677 ;; Data sizes:     COMMON   BANK0   BANK1   BANK3   BANK2
  8678 ;;      Params:         0       0       0       0       0
  8679 ;;      Locals:         0       0       0       0       0
  8680 ;;      Temps:          0       0       0       0       0
  8681 ;;      Totals:         0       0       0       0       0
  8682 ;;Total ram usage:        0 bytes
  8683 ;; Hardware stack levels used: 1
  8684 ;; Hardware stack levels required when called: 1
  8685 ;; This function calls:
  8686 ;;		Nothing
  8687 ;; This function is called by:
  8688 ;;		_init_config
  8689 ;; This function uses a non-reentrant model
  8690 ;;
  8691                           
  8692     139F                     _init_timer2:	
  8693                           ;psect for function _init_timer2
  8694                           
  8695     139F                     l3981:	
  8696                           ;incstack = 0
  8697                           ; Regs used in _init_timer2: [wreg+status,2]
  8698                           
  8699                           
  8700                           ;timers.c: 6:     TMR2=0;
  8701     139F  1283               	bcf	3,5	;RP0=0, select bank0
  8702     13A0  1303               	bcf	3,6	;RP1=0, select bank0
  8703     13A1  0191               	clrf	17	;volatile
  8704     13A2                     l3983:
  8705                           
  8706                           ;timers.c: 7:     T2CKPS1 = 0;
  8707     13A2  1092               	bcf	18,1	;volatile
  8708     13A3                     l3985:
  8709                           
  8710                           ;timers.c: 8:     T2CKPS0 = 0;
  8711     13A3  1012               	bcf	18,0	;volatile
  8712     13A4                     l3987:
  8713                           
  8714                           ;timers.c: 10:     TOUTPS3 = 0;
  8715     13A4  1312               	bcf	18,6	;volatile
  8716     13A5                     l3989:
  8717                           
  8718                           ;timers.c: 11:     TOUTPS2 = 0;
  8719     13A5  1292               	bcf	18,5	;volatile
  8720     13A6                     l3991:
  8721                           
  8722                           ;timers.c: 12:     TOUTPS1 = 0;
  8723     13A6  1212               	bcf	18,4	;volatile
  8724     13A7                     l3993:
  8725                           
  8726                           ;timers.c: 13:     TOUTPS0 = 0;
  8727     13A7  1192               	bcf	18,3	;volatile
  8728     13A8                     l3995:
  8729                           
  8730                           ;timers.c: 17:     TMR2ON = 0;
  8731     13A8  1112               	bcf	18,2	;volatile
  8732     13A9                     l3997:
  8733                           
  8734                           ;timers.c: 19:     TMR2IF=0;
  8735     13A9  108C               	bcf	12,1	;volatile
  8736     13AA                     l3999:
  8737                           
  8738                           ;timers.c: 21:     TMR2IE = 1;
  8739     13AA  1683               	bsf	3,5	;RP0=1, select bank1
  8740     13AB  1303               	bcf	3,6	;RP1=0, select bank1
  8741     13AC  148C               	bsf	12,1	;volatile
  8742     13AD                     l4001:
  8743                           
  8744                           ;timers.c: 24:     PR2 = 250;
  8745     13AD  30FA               	movlw	250
  8746     13AE  0092               	movwf	18	;volatile
  8747     13AF                     l174:
  8748     13AF  0008               	return
  8749     13B0                     __end_of_init_timer2:
  8750                           
  8751                           	psect	text23
  8752     138E                     __ptext23:	
  8753 ;; *************** function _init_digital_keypad *****************
  8754 ;; Defined at:
  8755 ;;		line 4 in file "digital_keypad.c"
  8756 ;; Parameters:    Size  Location     Type
  8757 ;;		None
  8758 ;; Auto vars:     Size  Location     Type
  8759 ;;		None
  8760 ;; Return value:  Size  Location     Type
  8761 ;;                  1    wreg      void 
  8762 ;; Registers used:
  8763 ;;		wreg, status,2
  8764 ;; Tracked objects:
  8765 ;;		On entry : 0/0
  8766 ;;		On exit  : 0/0
  8767 ;;		Unchanged: 0/0
  8768 ;; Data sizes:     COMMON   BANK0   BANK1   BANK3   BANK2
  8769 ;;      Params:         0       0       0       0       0
  8770 ;;      Locals:         0       0       0       0       0
  8771 ;;      Temps:          0       0       0       0       0
  8772 ;;      Totals:         0       0       0       0       0
  8773 ;;Total ram usage:        0 bytes
  8774 ;; Hardware stack levels used: 1
  8775 ;; Hardware stack levels required when called: 1
  8776 ;; This function calls:
  8777 ;;		Nothing
  8778 ;; This function is called by:
  8779 ;;		_init_config
  8780 ;; This function uses a non-reentrant model
  8781 ;;
  8782                           
  8783     138E                     _init_digital_keypad:	
  8784                           ;psect for function _init_digital_keypad
  8785                           
  8786     138E                     l3979:	
  8787                           ;incstack = 0
  8788                           ; Regs used in _init_digital_keypad: [wreg+status,2]
  8789                           
  8790                           
  8791                           ;digital_keypad.c: 6:     TRISB = TRISB | 0x3F;
  8792     138E  1683               	bsf	3,5	;RP0=1, select bank1
  8793     138F  1303               	bcf	3,6	;RP1=0, select bank1
  8794     1390  0806               	movf	6,w	;volatile
  8795     1391  383F               	iorlw	63
  8796     1392  0086               	movwf	6	;volatile
  8797     1393                     l113:
  8798     1393  0008               	return
  8799     1394                     __end_of_init_digital_keypad:
  8800                           
  8801                           	psect	text24
  8802     1394                     __ptext24:	
  8803 ;; *************** function _init_clcd *****************
  8804 ;; Defined at:
  8805 ;;		line 37 in file "clcd.c"
  8806 ;; Parameters:    Size  Location     Type
  8807 ;;		None
  8808 ;; Auto vars:     Size  Location     Type
  8809 ;;		None
  8810 ;; Return value:  Size  Location     Type
  8811 ;;                  1    wreg      void 
  8812 ;; Registers used:
  8813 ;;		wreg, status,2, status,0, pclath, cstack
  8814 ;; Tracked objects:
  8815 ;;		On entry : 0/0
  8816 ;;		On exit  : 0/0
  8817 ;;		Unchanged: 0/0
  8818 ;; Data sizes:     COMMON   BANK0   BANK1   BANK3   BANK2
  8819 ;;      Params:         0       0       0       0       0
  8820 ;;      Locals:         0       0       0       0       0
  8821 ;;      Temps:          0       0       0       0       0
  8822 ;;      Totals:         0       0       0       0       0
  8823 ;;Total ram usage:        0 bytes
  8824 ;; Hardware stack levels used: 1
  8825 ;; Hardware stack levels required when called: 3
  8826 ;; This function calls:
  8827 ;;		_init_display_controller
  8828 ;; This function is called by:
  8829 ;;		_init_config
  8830 ;; This function uses a non-reentrant model
  8831 ;;
  8832                           
  8833     1394                     _init_clcd:	
  8834                           ;psect for function _init_clcd
  8835                           
  8836     1394                     l3971:	
  8837                           ;incstack = 0
  8838                           ; Regs used in _init_clcd: [wreg+status,2+status,0+pclath+cstack]
  8839                           
  8840                           
  8841                           ;clcd.c: 40:     TRISD = 0x00;
  8842     1394  1683               	bsf	3,5	;RP0=1, select bank1
  8843     1395  1303               	bcf	3,6	;RP1=0, select bank1
  8844     1396  0188               	clrf	8	;volatile
  8845     1397                     l3973:
  8846                           
  8847                           ;clcd.c: 43:     TRISE2 = 0;
  8848     1397  1109               	bcf	9,2	;volatile
  8849     1398                     l3975:
  8850                           
  8851                           ;clcd.c: 44:     TRISE1 = 0;
  8852     1398  1089               	bcf	9,1	;volatile
  8853     1399                     l3977:
  8854                           
  8855                           ;clcd.c: 46:     init_display_controller();
  8856     1399  160A  118A  256B  160A  118A  	fcall	_init_display_controller
  8857     139E                     l97:
  8858     139E  0008               	return
  8859     139F                     __end_of_init_clcd:
  8860                           
  8861                           	psect	text25
  8862     156B                     __ptext25:	
  8863 ;; *************** function _init_display_controller *****************
  8864 ;; Defined at:
  8865 ;;		line 16 in file "clcd.c"
  8866 ;; Parameters:    Size  Location     Type
  8867 ;;		None
  8868 ;; Auto vars:     Size  Location     Type
  8869 ;;		None
  8870 ;; Return value:  Size  Location     Type
  8871 ;;                  1    wreg      void 
  8872 ;; Registers used:
  8873 ;;		wreg, status,2, status,0, pclath, cstack
  8874 ;; Tracked objects:
  8875 ;;		On entry : 0/0
  8876 ;;		On exit  : 0/0
  8877 ;;		Unchanged: 0/0
  8878 ;; Data sizes:     COMMON   BANK0   BANK1   BANK3   BANK2
  8879 ;;      Params:         0       0       0       0       0
  8880 ;;      Locals:         0       0       0       0       0
  8881 ;;      Temps:          2       0       0       0       0
  8882 ;;      Totals:         2       0       0       0       0
  8883 ;;Total ram usage:        2 bytes
  8884 ;; Hardware stack levels used: 1
  8885 ;; Hardware stack levels required when called: 2
  8886 ;; This function calls:
  8887 ;;		_clcd_write
  8888 ;; This function is called by:
  8889 ;;		_init_clcd
  8890 ;; This function uses a non-reentrant model
  8891 ;;
  8892                           
  8893     156B                     _init_display_controller:	
  8894                           ;psect for function _init_display_controller
  8895                           
  8896     156B                     l3737:	
  8897                           ;incstack = 0
  8898                           ; Regs used in _init_display_controller: [wreg+status,2+status,0+pclath+cstack]
  8899                           
  8900                           
  8901                           ;clcd.c: 19:     _delay((unsigned long)((30)*(20000000/4000.0)));
  8902     156B  30C3               	movlw	195
  8903     156C  00F7               	movwf	??_init_display_controller+1
  8904     156D  30CD               	movlw	205
  8905     156E  00F6               	movwf	??_init_display_controller
  8906     156F                     u5827:
  8907     156F  0BF6               	decfsz	??_init_display_controller,f
  8908     1570  2D6F               	goto	u5827
  8909     1571  0BF7               	decfsz	??_init_display_controller+1,f
  8910     1572  2D6F               	goto	u5827
  8911     1573                     l3739:
  8912                           
  8913                           ;clcd.c: 22:     clcd_write(0x33, 0);
  8914     1573  01F2               	clrf	clcd_write@mode
  8915     1574  3033               	movlw	51
  8916     1575  160A  118A  23F0  160A  118A  	fcall	_clcd_write
  8917     157A                     l3741:
  8918                           
  8919                           ;clcd.c: 23:     _delay((unsigned long)((4100)*(20000000/4000000.0)));
  8920     157A  301B               	movlw	27
  8921     157B  00F7               	movwf	??_init_display_controller+1
  8922     157C  309E               	movlw	158
  8923     157D  00F6               	movwf	??_init_display_controller
  8924     157E                     u5837:
  8925     157E  0BF6               	decfsz	??_init_display_controller,f
  8926     157F  2D7E               	goto	u5837
  8927     1580  0BF7               	decfsz	??_init_display_controller+1,f
  8928     1581  2D7E               	goto	u5837
  8929     1582  0000               	nop
  8930                           
  8931                           ;clcd.c: 24:     clcd_write(0x33, 0);
  8932     1583  01F2               	clrf	clcd_write@mode
  8933     1584  3033               	movlw	51
  8934     1585  160A  118A  23F0  160A  118A  	fcall	_clcd_write
  8935     158A                     l3743:
  8936                           
  8937                           ;clcd.c: 25:     _delay((unsigned long)((100)*(20000000/4000000.0)));
  8938     158A  30A6               	movlw	166
  8939     158B  00F6               	movwf	??_init_display_controller
  8940     158C                     u5847:
  8941     158C  0BF6               	decfsz	??_init_display_controller,f
  8942     158D  2D8C               	goto	u5847
  8943     158E  0000               	nop
  8944     158F                     l3745:
  8945                           
  8946                           ;clcd.c: 26:     clcd_write(0x33, 0);
  8947     158F  01F2               	clrf	clcd_write@mode
  8948     1590  3033               	movlw	51
  8949     1591  160A  118A  23F0  160A  118A  	fcall	_clcd_write
  8950     1596                     l3747:
  8951                           
  8952                           ;clcd.c: 27:     _delay((unsigned long)((1)*(20000000/4000000.0)));
  8953     1596  2D97               	nop2	;2 cycle nop
  8954     1597  2D98               	nop2	;2 cycle nop
  8955     1598  0000               	nop
  8956     1599                     l3749:
  8957                           
  8958                           ;clcd.c: 29:     clcd_write(0x3C, 0);
  8959     1599  01F2               	clrf	clcd_write@mode
  8960     159A  303C               	movlw	60
  8961     159B  160A  118A  23F0  160A  118A  	fcall	_clcd_write
  8962     15A0                     l3751:
  8963                           
  8964                           ;clcd.c: 30:     _delay((unsigned long)((100)*(20000000/4000000.0)));
  8965     15A0  30A6               	movlw	166
  8966     15A1  00F6               	movwf	??_init_display_controller
  8967     15A2                     u5857:
  8968     15A2  0BF6               	decfsz	??_init_display_controller,f
  8969     15A3  2DA2               	goto	u5857
  8970     15A4  0000               	nop
  8971                           
  8972                           ;clcd.c: 31:     clcd_write(0x01, 0);
  8973     15A5  01F2               	clrf	clcd_write@mode
  8974     15A6  3001               	movlw	1
  8975     15A7  160A  118A  23F0  160A  118A  	fcall	_clcd_write
  8976     15AC                     l3753:
  8977                           
  8978                           ;clcd.c: 32:     _delay((unsigned long)((500)*(20000000/4000000.0)));
  8979     15AC  3004               	movlw	4
  8980     15AD  00F7               	movwf	??_init_display_controller+1
  8981     15AE  303D               	movlw	61
  8982     15AF  00F6               	movwf	??_init_display_controller
  8983     15B0                     u5867:
  8984     15B0  0BF6               	decfsz	??_init_display_controller,f
  8985     15B1  2DB0               	goto	u5867
  8986     15B2  0BF7               	decfsz	??_init_display_controller+1,f
  8987     15B3  2DB0               	goto	u5867
  8988     15B4  2DB5               	nop2
  8989     15B5                     l3755:
  8990                           
  8991                           ;clcd.c: 33:     clcd_write(0x0C, 0);
  8992     15B5  01F2               	clrf	clcd_write@mode
  8993     15B6  300C               	movlw	12
  8994     15B7  160A  118A  23F0  160A  118A  	fcall	_clcd_write
  8995                           
  8996                           ;clcd.c: 34:     _delay((unsigned long)((100)*(20000000/4000000.0)));
  8997     15BC  30A6               	movlw	166
  8998     15BD  00F6               	movwf	??_init_display_controller
  8999     15BE                     u5877:
  9000     15BE  0BF6               	decfsz	??_init_display_controller,f
  9001     15BF  2DBE               	goto	u5877
  9002     15C0  0000               	nop
  9003     15C1                     l94:
  9004     15C1  0008               	return
  9005     15C2                     __end_of_init_display_controller:
  9006                           
  9007                           	psect	text26
  9008     13F0                     __ptext26:	
  9009 ;; *************** function _clcd_write *****************
  9010 ;; Defined at:
  9011 ;;		line 4 in file "clcd.c"
  9012 ;; Parameters:    Size  Location     Type
  9013 ;;  byte            1    wreg     unsigned char 
  9014 ;;  mode            1    2[COMMON] unsigned char 
  9015 ;; Auto vars:     Size  Location     Type
  9016 ;;  byte            1    5[COMMON] unsigned char 
  9017 ;; Return value:  Size  Location     Type
  9018 ;;                  1    wreg      void 
  9019 ;; Registers used:
  9020 ;;		wreg
  9021 ;; Tracked objects:
  9022 ;;		On entry : 0/0
  9023 ;;		On exit  : 0/0
  9024 ;;		Unchanged: 0/0
  9025 ;; Data sizes:     COMMON   BANK0   BANK1   BANK3   BANK2
  9026 ;;      Params:         1       0       0       0       0
  9027 ;;      Locals:         1       0       0       0       0
  9028 ;;      Temps:          2       0       0       0       0
  9029 ;;      Totals:         4       0       0       0       0
  9030 ;;Total ram usage:        4 bytes
  9031 ;; Hardware stack levels used: 1
  9032 ;; Hardware stack levels required when called: 1
  9033 ;; This function calls:
  9034 ;;		Nothing
  9035 ;; This function is called by:
  9036 ;;		_init_display_controller
  9037 ;;		_clcd_putch
  9038 ;;		_clcd_print
  9039 ;;		_clear_screen
  9040 ;; This function uses a non-reentrant model
  9041 ;;
  9042                           
  9043     13F0                     _clcd_write:	
  9044                           ;psect for function _clcd_write
  9045                           
  9046                           
  9047                           ;incstack = 0
  9048                           ; Regs used in _clcd_write: [wreg]
  9049                           ;clcd_write@byte stored from wreg
  9050     13F0  00F5               	movwf	clcd_write@byte
  9051     13F1                     l3717:
  9052                           
  9053                           ;clcd.c: 4: void clcd_write(unsigned char byte, unsigned char mode);clcd.c: 5: {;clcd.c:
      +                           6:     RE2 = mode;
  9054     13F1  1872               	btfsc	clcd_write@mode,0
  9055     13F2  2BF4               	goto	u3561
  9056     13F3  2BF8               	goto	u3560
  9057     13F4                     u3561:
  9058     13F4  1283               	bcf	3,5	;RP0=0, select bank0
  9059     13F5  1303               	bcf	3,6	;RP1=0, select bank0
  9060     13F6  1509               	bsf	9,2	;volatile
  9061     13F7  2BFB               	goto	u3574
  9062     13F8                     u3560:
  9063     13F8  1283               	bcf	3,5	;RP0=0, select bank0
  9064     13F9  1303               	bcf	3,6	;RP1=0, select bank0
  9065     13FA  1109               	bcf	9,2	;volatile
  9066     13FB                     u3574:
  9067     13FB                     l3719:
  9068                           
  9069                           ;clcd.c: 7:     PORTD = byte;
  9070     13FB  0875               	movf	clcd_write@byte,w
  9071     13FC  0088               	movwf	8	;volatile
  9072     13FD                     l3721:
  9073                           
  9074                           ;clcd.c: 9:     RE1 = 1;
  9075     13FD  1489               	bsf	9,1	;volatile
  9076                           
  9077                           ;clcd.c: 10:     _delay((unsigned long)((100)*(20000000/4000000.0)));
  9078     13FE  30A6               	movlw	166
  9079     13FF  00F3               	movwf	??_clcd_write
  9080     1400                     u5887:
  9081     1400  0BF3               	decfsz	??_clcd_write,f
  9082     1401  2C00               	goto	u5887
  9083     1402  0000               	nop
  9084     1403                     l3723:
  9085                           
  9086                           ;clcd.c: 11:     RE1 = 0;
  9087     1403  1283               	bcf	3,5	;RP0=0, select bank0
  9088     1404  1303               	bcf	3,6	;RP1=0, select bank0
  9089     1405  1089               	bcf	9,1	;volatile
  9090                           
  9091                           ;clcd.c: 13:     _delay((unsigned long)((4100)*(20000000/4000000.0)));
  9092     1406  301B               	movlw	27
  9093     1407  00F4               	movwf	??_clcd_write+1
  9094     1408  309E               	movlw	158
  9095     1409  00F3               	movwf	??_clcd_write
  9096     140A                     u5897:
  9097     140A  0BF3               	decfsz	??_clcd_write,f
  9098     140B  2C0A               	goto	u5897
  9099     140C  0BF4               	decfsz	??_clcd_write+1,f
  9100     140D  2C0A               	goto	u5897
  9101     140E  0000               	nop
  9102     140F                     l91:
  9103     140F  0008               	return
  9104     1410                     __end_of_clcd_write:
  9105                           
  9106                           	psect	text27
  9107     14D7                     __ptext27:	
  9108 ;; *************** function _isr *****************
  9109 ;; Defined at:
  9110 ;;		line 5 in file "isr.c"
  9111 ;; Parameters:    Size  Location     Type
  9112 ;;		None
  9113 ;; Auto vars:     Size  Location     Type
  9114 ;;		None
  9115 ;; Return value:  Size  Location     Type
  9116 ;;                  1    wreg      void 
  9117 ;; Registers used:
  9118 ;;		wreg, status,2, status,0
  9119 ;; Tracked objects:
  9120 ;;		On entry : 0/0
  9121 ;;		On exit  : 0/0
  9122 ;;		Unchanged: 0/0
  9123 ;; Data sizes:     COMMON   BANK0   BANK1   BANK3   BANK2
  9124 ;;      Params:         0       0       0       0       0
  9125 ;;      Locals:         0       0       0       0       0
  9126 ;;      Temps:          2       0       0       0       0
  9127 ;;      Totals:         2       0       0       0       0
  9128 ;;Total ram usage:        2 bytes
  9129 ;; Hardware stack levels used: 1
  9130 ;; This function calls:
  9131 ;;		Nothing
  9132 ;; This function is called by:
  9133 ;;		Interrupt level 1
  9134 ;; This function uses a non-reentrant model
  9135 ;;
  9136                           
  9137     14D7                     _isr:	
  9138                           ;psect for function _isr
  9139                           
  9140     14D7                     i1l3415:
  9141                           
  9142                           ;isr.c: 7:     if(TMR2IF)
  9143     14D7  1283               	bcf	3,5	;RP0=0, select bank0
  9144     14D8  1303               	bcf	3,6	;RP1=0, select bank0
  9145     14D9  1C8C               	btfss	12,1	;volatile
  9146     14DA  2CDC               	goto	u350_21
  9147     14DB  2CDD               	goto	u350_20
  9148     14DC                     u350_21:
  9149     14DC  2D0E               	goto	i1l149
  9150     14DD                     u350_20:
  9151     14DD                     i1l3417:
  9152                           
  9153                           ;isr.c: 8:     {;isr.c: 9:          if (TMR2IF)
  9154     14DD  1C8C               	btfss	12,1	;volatile
  9155     14DE  2CE0               	goto	u351_21
  9156     14DF  2CE1               	goto	u351_20
  9157     14E0                     u351_21:
  9158     14E0  2D0E               	goto	i1l149
  9159     14E1                     u351_20:
  9160     14E1                     i1l3419:
  9161                           
  9162                           ;isr.c: 10:         {;isr.c: 11:             TMR2IF = 0;
  9163     14E1  108C               	bcf	12,1	;volatile
  9164     14E2                     i1l3421:
  9165                           
  9166                           ;isr.c: 13:         if( ++count == 20000)
  9167     14E2  3001               	movlw	1
  9168     14E3  1683               	bsf	3,5	;RP0=1, select bank1
  9169     14E4  1303               	bcf	3,6	;RP1=0, select bank1
  9170     14E5  07C8               	addwf	_count^(0+128),f
  9171     14E6  1803               	skipnc
  9172     14E7  0AC9               	incf	(_count+1)^(0+128),f
  9173     14E8  3000               	movlw	0
  9174     14E9  07C9               	addwf	(_count+1)^(0+128),f
  9175     14EA  3020               	movlw	32
  9176     14EB  0648               	xorwf	_count^(0+128),w
  9177     14EC  304E               	movlw	78
  9178     14ED  1903               	skipnz
  9179     14EE  0649               	xorwf	(_count+1)^(0+128),w
  9180     14EF  1D03               	btfss	3,2
  9181     14F0  2CF2               	goto	u352_21
  9182     14F1  2CF3               	goto	u352_20
  9183     14F2                     u352_21:
  9184     14F2  2D0E               	goto	i1l149
  9185     14F3                     u352_20:
  9186     14F3                     i1l3423:
  9187                           
  9188                           ;isr.c: 14:         {;isr.c: 15:               count = 0;
  9189     14F3  01C8               	clrf	_count^(0+128)
  9190     14F4  01C9               	clrf	(_count+1)^(0+128)
  9191     14F5                     i1l3425:
  9192                           
  9193                           ;isr.c: 16:             if(sec!=0)
  9194     14F5  1283               	bcf	3,5	;RP0=0, select bank0
  9195     14F6  1303               	bcf	3,6	;RP1=0, select bank0
  9196     14F7  0867               	movf	_sec,w
  9197     14F8  1903               	btfsc	3,2
  9198     14F9  2CFB               	goto	u353_21
  9199     14FA  2CFC               	goto	u353_20
  9200     14FB                     u353_21:
  9201     14FB  2CFF               	goto	i1l3429
  9202     14FC                     u353_20:
  9203     14FC                     i1l3427:
  9204                           
  9205                           ;isr.c: 17:             {;isr.c: 18:                 sec--;
  9206     14FC  3001               	movlw	1
  9207     14FD  02E7               	subwf	_sec,f
  9208                           
  9209                           ;isr.c: 20:             }
  9210     14FE  2D0E               	goto	i1l149
  9211     14FF                     i1l3429:
  9212     14FF  0867               	movf	_sec,w
  9213     1500  1D03               	btfss	3,2
  9214     1501  2D03               	goto	u354_21
  9215     1502  2D04               	goto	u354_20
  9216     1503                     u354_21:
  9217     1503  2D0E               	goto	i1l144
  9218     1504                     u354_20:
  9219     1504                     i1l3431:
  9220     1504  0869               	movf	_min,w
  9221     1505  1903               	btfsc	3,2
  9222     1506  2D08               	goto	u355_21
  9223     1507  2D09               	goto	u355_20
  9224     1508                     u355_21:
  9225     1508  2D0E               	goto	i1l144
  9226     1509                     u355_20:
  9227     1509                     i1l3433:
  9228                           
  9229                           ;isr.c: 22:             {;isr.c: 23:                 min--;
  9230     1509  3001               	movlw	1
  9231     150A  02E9               	subwf	_min,f
  9232     150B                     i1l3435:
  9233                           
  9234                           ;isr.c: 24:                 sec=59;
  9235     150B  303B               	movlw	59
  9236     150C  00E7               	movwf	_sec
  9237     150D  2D0E               	goto	i1l149
  9238     150E                     i1l144:	
  9239                           ;isr.c: 27:     }
  9240                           
  9241     150E                     i1l149:
  9242     150E  0871               	movf	??_isr+1,w
  9243     150F  008A               	movwf	10
  9244     1510  0E70               	swapf	??_isr,w
  9245     1511  0083               	movwf	3
  9246     1512  0EFE               	swapf	btemp,f
  9247     1513  0E7E               	swapf	btemp,w
  9248     1514  0009               	retfie
  9249     1515                     __end_of_isr:
  9250     007E                     btemp	set	126	;btemp
  9251     007E                     wtemp0	set	126
  9252                           
  9253                           	psect	intentry
  9254     0004                     __pintentry:	
  9255                           ;incstack = 0
  9256                           ; Regs used in _isr: [wreg+status,2+status,0]
  9257                           
  9258     0004                     interrupt_function:
  9259     007E                     saved_w	set	btemp
  9260     0004  00FE               	movwf	btemp
  9261     0005  0E03               	swapf	3,w
  9262     0006  00F0               	movwf	??_isr
  9263     0007  080A               	movf	10,w
  9264     0008  00F1               	movwf	??_isr+1
  9265     0009  160A  118A  2CD7   	ljmp	_isr
  9266                           
  9267                           	psect	config
  9268                           
  9269                           ;Config register CONFIG @ 0x2007
  9270                           ;	Oscillator Selection bits
  9271                           ;	FOSC = 0x3, unprogrammed default
  9272                           ;	Watchdog Timer Enable bit
  9273                           ;	WDTE = OFF, WDT disabled
  9274                           ;	Power-up Timer Enable bit
  9275                           ;	PWRTE = 0x1, unprogrammed default
  9276                           ;	Brown-out Reset Enable bit
  9277                           ;	BOREN = 0x1, unprogrammed default
  9278                           ;	Low-Voltage (Single-Supply) In-Circuit Serial Programming Enable bit
  9279                           ;	LVP = 0x1, unprogrammed default
  9280                           ;	Data EEPROM Memory Code Protection bit
  9281                           ;	CPD = 0x1, unprogrammed default
  9282                           ;	Flash Program Memory Write Enable bits
  9283                           ;	WRT = 0x3, unprogrammed default
  9284                           ;	In-Circuit Debugger Mode bit
  9285                           ;	DEBUG = 0x1, unprogrammed default
  9286                           ;	Flash Program Memory Code Protection bit
  9287                           ;	CP = 0x1, unprogrammed default
  9288     2007                     	org	8199
  9289     2007  3FFB               	dw	16379

Data Sizes:
    Strings     383
    Constant    0
    Data        38
    BSS         17
    Persistent  0
    Stack       0

Auto Spaces:
    Space          Size  Autos    Used
    COMMON           14      9      12
    BANK0            80     67      77
    BANK1            80      7      49
    BANK3            96      0       0
    BANK2            96      0       0

Pointer List with Targets:

    clcd_print@str	PTR const unsigned char  size(2) Largest target is 17
		 -> STR_1(CODE[15]), STR_10(CODE[7]), STR_11(CODE[11]), STR_12(CODE[12]), 
		 -> STR_13(CODE[8]), STR_14(CODE[11]), STR_15(CODE[10]), STR_16(CODE[9]), 
		 -> STR_17(CODE[10]), STR_18(CODE[11]), STR_19(CODE[5]), STR_2(CODE[9]), 
		 -> STR_20(CODE[4]), STR_21(CODE[7]), STR_22(CODE[5]), STR_23(CODE[4]), 
		 -> STR_24(CODE[12]), STR_25(CODE[16]), STR_26(CODE[16]), STR_27(CODE[14]), 
		 -> STR_28(CODE[6]), STR_29(CODE[6]), STR_3(CODE[16]), STR_30(CODE[11]), 
		 -> STR_31(CODE[7]), STR_32(CODE[16]), STR_33(CODE[5]), STR_34(CODE[6]), 
		 -> STR_35(CODE[6]), STR_36(CODE[6]), STR_37(CODE[6]), STR_38(CODE[6]), 
		 -> STR_39(CODE[5]), STR_4(CODE[13]), STR_40(CODE[17]), STR_41(CODE[15]), 
		 -> STR_42(CODE[16]), STR_43(CODE[7]), STR_44(CODE[11]), STR_45(CODE[11]), 
		 -> STR_46(CODE[7]), STR_47(CODE[16]), STR_5(CODE[12]), STR_6(CODE[11]), 
		 -> STR_7(CODE[6]), STR_8(CODE[6]), STR_9(CODE[10]), 

    washing_program	PTR unsigned char [12] size(2) Largest target is 12
		 -> STR_10(CODE[7]), STR_11(CODE[11]), STR_12(CODE[12]), STR_13(CODE[8]), 
		 -> STR_14(CODE[11]), STR_15(CODE[10]), STR_16(CODE[9]), STR_17(CODE[10]), 
		 -> STR_18(CODE[11]), STR_7(CODE[6]), STR_8(CODE[6]), STR_9(CODE[10]), 

    water_level	PTR unsigned char [5] size(2) Largest target is 7
		 -> STR_19(CODE[5]), STR_20(CODE[4]), STR_21(CODE[7]), STR_22(CODE[5]), 
		 -> STR_23(CODE[4]), 


Critical Paths under _main in COMMON

    _water_level_screen->_clcd_putch
    _washing_program_display->_clcd_putch
    _run_program->_clcd_putch
    _door_status_check->_clear_screen
    _clear_screen->_clcd_write
    ___fltol->___xxtofl
    ___flsub->___fladd
    ___flsub->___xxtofl
    ___flmul->__Umul8_16
    ___flmul->___xxtofl
    ___flge->___xxtofl
    _power_on_screen->_clcd_putch
    _clcd_putch->___awmod
    _clcd_print->___awmod
    _init_clcd->_init_display_controller
    _init_display_controller->_clcd_write

Critical Paths under _isr in COMMON

    None.

Critical Paths under _main in BANK0

    _main->_run_program
    _water_level_screen->_clcd_putch
    _washing_program_display->_clcd_putch
    _run_program->___flge
    _door_status_check->_clcd_print
    ___fltol->___flmul
    ___flsub->___flmul
    ___flmul->___xxtofl
    ___flge->___flsub
    _power_on_screen->_clcd_putch
    _clcd_putch->___awdiv

Critical Paths under _isr in BANK0

    None.

Critical Paths under _main in BANK1

    None.

Critical Paths under _isr in BANK1

    None.

Critical Paths under _main in BANK3

    None.

Critical Paths under _isr in BANK3

    None.

Critical Paths under _main in BANK2

    None.

Critical Paths under _isr in BANK2

    None.

Call Graph Tables:

 ---------------------------------------------------------------------------------
 (Depth) Function   	        Calls       Base Space   Used Autos Params    Refs
 ---------------------------------------------------------------------------------
 (0) _main                                                11    11      0   81697
                                             63 BANK0      4     4      0
                                              0 BANK1      7     7      0
                         _clcd_print
                       _clear_screen
                        _init_config
                    _power_on_screen
                _read_digital_keypad
                        _run_program
                           _set_time
            _washing_program_display
                 _water_level_screen
 ---------------------------------------------------------------------------------
 (1) _water_level_screen                                   3     3      0   13170
                                              5 BANK0      3     3      0
                            ___awmod
                         _clcd_print
                         _clcd_putch
                       _clear_screen
 ---------------------------------------------------------------------------------
 (1) _washing_program_display                              3     3      0   12345
                                              5 BANK0      3     3      0
                         _clcd_print
                         _clcd_putch
                       _clear_screen
 ---------------------------------------------------------------------------------
 (1) _set_time                                             2     2      0       0
                                              2 COMMON     2     2      0
 ---------------------------------------------------------------------------------
 (1) _run_program                                          7     7      0   33196
                                             56 BANK0      7     7      0
                            ___awdiv
                            ___awmod
                             ___flge
                            ___flmul
                            ___flsub
                            ___fltol
                             ___wmul
                           ___xxtofl
                         _clcd_print
                         _clcd_putch
                       _clear_screen
                  _door_status_check
 ---------------------------------------------------------------------------------
 (2) _door_status_check                                    0     0      0    9940
                         _clcd_print
                       _clear_screen
 ---------------------------------------------------------------------------------
 (2) _clear_screen                                         2     2      0    1052
                                              6 COMMON     2     2      0
                         _clcd_write
 ---------------------------------------------------------------------------------
 (2) ___xxtofl                                            14    10      4    1016
                                              2 COMMON     4     0      4
                                              0 BANK0     10    10      0
 ---------------------------------------------------------------------------------
 (2) ___wmul                                               6     2      4     616
                                              2 COMMON     6     2      4
 ---------------------------------------------------------------------------------
 (2) ___fltol                                             10     6      4     607
                                              6 COMMON     2     2      0
                                             36 BANK0      8     4      4
                            ___flmul (ARG)
                           ___xxtofl (ARG)
 ---------------------------------------------------------------------------------
 (2) ___flsub                                              8     0      8    3367
                                             36 BANK0      8     0      8
                            ___fladd
                            ___flmul (ARG)
                           ___xxtofl (ARG)
 ---------------------------------------------------------------------------------
 (3) ___fladd                                             20    12      8    3122
                                              2 COMMON     4     4      0
                                              0 BANK0     16     8      8
 ---------------------------------------------------------------------------------
 (2) ___flmul                                             26    18      8    3893
                                             10 BANK0     26    18      8
                          __Umul8_16
                           ___xxtofl (ARG)
 ---------------------------------------------------------------------------------
 (3) __Umul8_16                                            9     7      2     980
                                              2 COMMON     4     2      2
                                              0 BANK0      5     5      0
 ---------------------------------------------------------------------------------
 (2) ___flge                                              12     4      8     446
                                             44 BANK0     12     4      8
                            ___flmul (ARG)
                            ___flsub (ARG)
                           ___xxtofl (ARG)
 ---------------------------------------------------------------------------------
 (2) ___awmod                                              6     2      4     825
                                              2 COMMON     6     2      4
 ---------------------------------------------------------------------------------
 (2) ___awdiv                                              8     4      4     130
                                              2 COMMON     4     0      4
                                              0 BANK0      4     4      0
 ---------------------------------------------------------------------------------
 (1) _read_digital_keypad                                  2     2      0      96
                                              2 COMMON     1     1      0
 ---------------------------------------------------------------------------------
 (1) _power_on_screen                                      5     5      0   11460
                                              5 BANK0      5     5      0
                         _clcd_print
                         _clcd_putch
 ---------------------------------------------------------------------------------
 (2) _clcd_putch                                           2     1      1    2374
                                              8 COMMON     1     0      1
                                              4 BANK0      1     1      0
                            ___awdiv (ARG)
                            ___awmod (ARG)
                         _clcd_write
 ---------------------------------------------------------------------------------
 (2) _clcd_print                                           3     0      3    8888
                                              0 BANK0      3     0      3
                            ___awmod (ARG)
                         _clcd_write
 ---------------------------------------------------------------------------------
 (1) _init_config                                          0     0      0    1052
                          _init_clcd
                _init_digital_keypad
                        _init_timer2
 ---------------------------------------------------------------------------------
 (2) _init_timer2                                          0     0      0       0
 ---------------------------------------------------------------------------------
 (2) _init_digital_keypad                                  0     0      0       0
 ---------------------------------------------------------------------------------
 (2) _init_clcd                                            0     0      0    1052
            _init_display_controller
 ---------------------------------------------------------------------------------
 (3) _init_display_controller                              2     2      0    1052
                                              6 COMMON     2     2      0
                         _clcd_write
 ---------------------------------------------------------------------------------
 (3) _clcd_write                                           4     3      1    1052
                                              2 COMMON     4     3      1
 ---------------------------------------------------------------------------------
 Estimated maximum stack depth 3
 ---------------------------------------------------------------------------------
 (Depth) Function   	        Calls       Base Space   Used Autos Params    Refs
 ---------------------------------------------------------------------------------
 (5) _isr                                                  2     2      0       0
                                              0 COMMON     2     2      0
 ---------------------------------------------------------------------------------
 Estimated maximum stack depth 5
 ---------------------------------------------------------------------------------

 Call Graph Graphs:

 _main (ROOT)
   _clcd_print
     ___awmod (ARG)
     _clcd_write (ARG)
   _clear_screen
     _clcd_write
   _init_config
     _init_clcd
       _init_display_controller
         _clcd_write
     _init_digital_keypad
     _init_timer2
   _power_on_screen
     _clcd_print
     _clcd_putch
       ___awdiv (ARG)
       ___awmod (ARG)
       _clcd_write (ARG)
   _read_digital_keypad
   _run_program
     ___awdiv
     ___awmod
     ___flge
       ___flmul (ARG)
         __Umul8_16
         ___xxtofl (ARG)
       ___flsub (ARG)
         ___fladd
         ___flmul (ARG)
         ___xxtofl (ARG)
       ___xxtofl (ARG)
     ___flmul
     ___flsub
     ___fltol
       ___flmul (ARG)
       ___xxtofl (ARG)
     ___wmul
     ___xxtofl
     _clcd_print
     _clcd_putch
     _clear_screen
     _door_status_check
       _clcd_print
       _clear_screen
   _set_time
   _washing_program_display
     _clcd_print
     _clcd_putch
     _clear_screen
   _water_level_screen
     ___awmod
     _clcd_print
     _clcd_putch
     _clear_screen

 _isr (ROOT)

 Address spaces:
Name               Size   Autos  Total    Cost      Usage
BANK3               60      0       0       9        0.0%
BITBANK3            60      0       0       8        0.0%
SFR3                 0      0       0       4        0.0%
BITSFR3              0      0       0       4        0.0%
BANK2               60      0       0      11        0.0%
BITBANK2            60      0       0      10        0.0%
SFR2                 0      0       0       5        0.0%
BITSFR2              0      0       0       5        0.0%
BANK1               50      7      31       7       61.3%
BITBANK1            50      0       0       6        0.0%
SFR1                 0      0       0       2        0.0%
BITSFR1              0      0       0       2        0.0%
BANK0               50     43      4D       5       96.2%
BITBANK0            50      0       0       4        0.0%
SFR0                 0      0       0       1        0.0%
BITSFR0              0      0       0       1        0.0%
COMMON               E      9       C       1       85.7%
BITCOMMON            E      0       0       0        0.0%
CODE                 0      0       0       0        0.0%
DATA                 0      0      8A      12        0.0%
ABS                  0      0      8A       3        0.0%
NULL                 0      0       0       0        0.0%
STACK                0      0       0       2        0.0%
EEDATA             100      0       0       0        0.0%


Microchip Technology PIC Macro Assembler V2.45 build 20230818022343 
Symbol Table                                                                                   Sun Jun 22 23:37:51 2025

                              pc 0002                   clcd_print@addr 0022                               l43 13EF  
                             l65 0BCA                               l91 140F                               l59 0B7A  
                             l94 15C1                               l97 139E                     ___awdiv@sign 0021  
                             fsr 0004              ___wmul@multiplicand 0074              __Umul8_16@word_mpld 0022  
                            l100 13D5                              l113 1393                              l106 14D6  
                            l126 156A                              l230 13C0                              l127 1569  
                            l313 0C6A                              l305 0C4A                              l241 0A69  
                            l330 0CA7                              l227 1762                              l315 0C6A  
                            l307 0C4A                              l340 0CD2                              l174 13AF  
                            l271 16BF                              l247 17FF                              l272 16EE  
                            l265 042F                              l370 0D57                              l354 0D16  
                            l347 0CF7                              l612 1683                              l461 147A  
                            l269 16B9                              l373 0D9F                              l640 088D  
                            l625 161A                              l803 0FFF                              l459 1462  
                            l660 07D7                              l900 08CB                              l645 08A6  
                            l637 0821                              l653 07EC                              l806 1455  
                            l902 0960                              l663 07EC                              l760 0DFB  
                            l913 092A                              l914 0936                              l764 0E80  
                            l781 0F4F                              l773 0FFF                              l862 06E4  
                            l766 0E57                              l791 0F95                              l856 0774  
                            l785 0F73                              l875 1491                              l877 14A3  
                            _GIE 005F                              _RB0 0030                              _RC1 0039  
                            _RC2 003A                              _RE1 0049                              _RE2 004A  
                            _PR2 0092                              _min 0069                              _sec 0067  
                            _isr 14D7                   clcd_putch@addr 0078                              fsr0 0004  
                 clcd_putch@data 0024                              indf 0000                     ___awmod@sign 0077  
                   ___flmul@aexp 0038                     ___flmul@bexp 003D                     ___flmul@sign 0037  
                   ___flmul@temp 0042                     ___flmul@prod 003E                      _run_program 0049  
                   ___fltol@exp1 0077                             l4001 13AD            ??_read_digital_keypad 0072  
                           l4003 13C4                             l4011 1692                             l4101 15E7  
                           l4021 16D4                             l4013 169F                             l4005 1684  
                           l4111 1606                             l4103 15EB                             l4031 1469  
                           l4023 16E1                             l4015 16AC                             l4007 168A  
                           l4105 15EF                             l4113 160C                             l4121 0803  
                           l4201 0452                             l4033 1470                             l4025 1456  
                           l4017 16C2                             l4009 168D                             l4115 1611  
                           l4107 15F9                             l4131 0865                             l4123 0819  
                           l4211 0468                             l4203 045A                             l4035 1476  
                           l4027 1458                             l4019 16C7                             l4117 1616  
                           l4109 15FF                             l4133 0869                             l4125 0835  
                           l4301 0719                             l4221 0484                             l4213 046D  
                           l4205 045F                             l4141 0775                             l4029 145C  
                           l4135 08A3                             l4127 083D                             l4311 0750  
                           l4303 071F                             l4231 04A5                             l4223 0489  
                           l4215 0472                             l4207 0463                             l4151 079D  
                           l4143 0780                             l4401 152B                             l4137 08A5  
                           l4129 0841                             l4313 0752                             l4321 0768  
                           l4305 072C                             l4241 052F                             l4233 04B2  
                           l4225 048E                             l4217 047A                             l4209 0467  
                           l4153 07A5                             l4411 1540                             l4403 1531  
                           l5211 1629                             l5203 161B                             l4091 15CE  
                           l4083 15C2                             l4323 076C                             l4315 075E  
                           l4307 0737                             l4251 058D                             l4243 054B  
                           l4235 04CD                             l4219 047C                             l4163 07B3  
                           l4155 07A7                             l4147 0789                             l4331 08B3  
                           l4421 1552                             l4405 1536                             l5221 163E  
                           l5213 162D                             l5205 161E                             l4093 15D2  
                           l4085 15C3                             l4317 0762                             l4309 0746  
                           l4261 0617                             l4253 05AA                             l4245 0554  
                           l4237 04E9                             l4229 0497                             l4181 1436  
                           l4173 07CC                             l4165 07BC                             l4157 07AB  
                           l4149 079C                             l4341 08DF                             l4333 08C3  
                           l5301 024F                             l4501 0C03                             l4423 1557  
                           l4407 1538                             l4415 1542                             l5231 1661  
                           l5223 1641                             l5215 1632                             l5207 1622  
                           l4095 15D7                             l4087 15C7                             l4319 0763  
                           l4271 06A7                             l4263 0642                             l4255 05C1  
                           l4247 0562                             l4239 0513                             l4191 043D  
                           l4175 07DC                             l4167 07C5                             l4351 0905  
                           l4343 08E3                             l4335 08D3                             l4327 08AA  
                           l5311 02B8                             l5303 0255                             l3721 13FD  
                           l4425 155D                             l4417 1547                             l4409 153E  
                           l4433 1569                             l5241 167A                             l5233 1667  
                           l5225 1648                             l5217 1636                             l5209 1627  
                           l4097 15DD                             l4089 15CC                             l4273 06B0  
                           l4281 06C4                             l4265 0668                             l4257 05DE  
                           l4249 057F                             l4193 043E                             l4185 0430  
                           l3801 0E01                             l4177 07E1                             l4361 092E  
                           l4353 090E                             l4345 08EC                             l4329 08AF  
                           l5321 0357                             l5305 026F                             l5313 02C4  
                           l4521 0C2E                             l4513 0C0C                             l5401 0B52  
                           l3723 1403                             l3731 14C6                             l4451 1715  
                           l4443 16F2                             l4427 1563                             l4419 154D  
                           l5243 167F                             l5235 1668                             l5227 164C  
                           l5219 1638                             l4099 15E0                             l4283 06C8  
                           l4275 06B4                             l4267 0690                             l4259 0609  
                           l4195 0443                             l4187 0435                             l3811 0E0F  
                           l3803 0E05                             l4179 1432                             l4371 0958  
                           l4363 0938                             l4355 0915                             l4347 08F3  
                           l4339 08DC                             l5331 03AA                             l5323 035D  
                           l5315 02CA                             l5307 027B                             l5251 0059  
                           l4531 0C51                             l4515 0C25                             l4507 0C06  
                           l5411 0B77                             l5403 0B5F                             l3717 13F1  
                           l3741 157A                             l4381 13E7                             l3725 14A4  
                           l4461 1739                             l4453 172D                             l4445 16FB  
                           l4437 16EF                             l4429 1567                             l5237 166F  
                           l5229 1650                             l4293 06E9                             l4285 06C9  
                           l4277 06B5                             l4269 0699                             l4197 0448  
                           l4189 0439                             l3901 0F6E                             l3821 0E19  
                           l3813 0E11                             l3805 0E09                             l4365 094E  
                           l4357 0920                             l4349 08F7                             l3733 13B0  
                           l5341 03F4                             l5333 03B2                             l5325 0369  
                           l5317 033B                             l5309 02AC                             l5261 00A8  
                           l5253 005E                             l4533 0C6E                             l4525 0C31  
                           l4517 0C28                             l4509 0C09                             l4701 0A28  
                           l5421 0B95                             l5413 0B78                             l5405 0B65  
                           l3719 13FB                             l3751 15A0                             l3743 158A  
                           l4383 13EA                             l4375 13D6                             l3727 14AE  
                           l4463 1747                             l4447 1709                             l4391 151A  
                           l5239 1675                             l4295 06EE                             l4287 06CD  
                           l4279 06BE                             l4199 0450                             l3911 0F81  
                           l3903 0F72                             l3831 0E23                             l3823 0E1B  
                           l3815 0E13                             l3807 0E0B                             l4367 0953  
                           l4359 0924                             l3735 13B7                             l5351 0415  
                           l5343 03F9                             l5335 03CD                             l5319 0349  
                           l5327 0374                             l5271 0105                             l5263 00C3  
                           l5255 006B                             l5247 004C                             l4615 0D58  
                           l4607 0D3E                             l4551 0CA7                             l4543 0C8A  
                           l4527 0C4E                             l4519 0C2B                             l4471 0BCF  
                           l4703 0A2E                             l4711 1775                             l5423 0B9C  
                           l5415 0B7B                             l5407 0B6D                             l3753 15AC  
                           l3745 158F                             l3737 156B                             l4385 13EB  
                           l4377 13E5                             l3729 14BE                             l4465 174D  
                           l4449 170F                             l4393 1520                             l4297 06FC  
                           l4289 06E1                             l3921 0F92                             l3905 0F77  
                           l3913 0F83                             l3841 0E5B                             l3833 0E25  
                           l3825 0E1D                             l3817 0E15                             l3809 0E0D  
                           l3761 0DA9                             l4369 0957                             l5353 0423  
                           l5345 03FC                             l5337 03E8                             l5329 038F  
                           l5281 015F                             l5273 0113                             l5265 00CB  
                           l5257 0080                             l5249 0051                             l4561 0CCA  
                           l4553 0CAA                             l4537 0C71                             l4473 0BD2  
                           l4713 177B                             l4721 178B                             l4705 1766  
                           l5425 0BA2                             l5417 0B84                             l5409 0B75  
                           l5433 0BB2                             l5361 0A6F                             l3755 15B5  
                           l3747 1596                             l3739 1573                             l4387 13EE  
                           l4379 13E6                             l4467 1753                             l4459 1730  
                           l4395 1525                             l4299 0700                             l3931 0FB1  
                           l3907 0F7A                             l3915 0F87                             l3851 0E76  
                           l3843 0E64                             l3827 0E1F                             l3819 0E17  
                           l3835 0E27                             l3771 0DC0                             l3763 0DAD  
                           l5355 0426                             l5347 03FD                             l5339 03EF  
                           l5291 022A                             l5283 01A0                             l5275 0118  
                           l5267 00E6                             l5259 008D                             l4571 0CD8  
                           l4563 0CCC                             l4483 0BDB                             l4475 0BD5  
                           l4619 0D71                             l4723 1798                             l4715 1780  
                           l4707 176C                             l5427 0BA6                             l5419 0B8D  
                           l5371 0ADF                             l5363 0A7C                             l3749 1599  
                           l4397 1526                             l4389 1515                             l3941 0FE5  
                           l3933 0FCF                             l3925 0F9A                             l3917 0F88  
                           l3909 0F7C                             l3861 0E94                             l3845 0E66  
                           l3853 0E7A                             l3837 0E28                             l3829 0E21  
                           l3781 0DD4                             l3773 0DC1                             l3765 0DAE  
                           l3757 0DA0                             l5357 0428                             l5349 0408  
                           l5285 01E3                             l5277 0125                             l5269 0101  
                           l5293 022B                             l4573 0CF1                             l4565 0CCF  
                           l4557 0CAD                             l4549 0C8E                             l4493 0BE1  
                           l4485 0BDE                             l4477 0BD8                             l4469 0BCE  
                           l4725 17A0                             l4717 1784                             l4709 1771  
                           l5429 0BA9                             l5381 0B01                             l5373 0AEA  
                           l5365 0A89                             l4399 1528                             l3951 0FF5  
                           l3943 0FEA                             l3927 0F9F                             l3935 0FD3  
                           l3919 0F8C                             l3871 0EBE                             l3863 0EAD  
                           l3855 0E84                             l3847 0E6C                             l3839 0E3F  
                           l3791 0DE3                             l3783 0DD5                             l3767 0DB3  
                           l3775 0DC3                             l3759 0DA5                             l5295 0231  
                           l5287 0226                             l5279 0132                             l4591 0D1C  
                           l4583 0CFD                             l4575 0CF4                             l4567 0CD6  
                           l4559 0CC6                             l4495 0BFA                             l4727 17B5  
                           l4719 178A                             l5391 0B29                             l5383 0B0F  
                           l5375 0AEF                             l5367 0A97                             l5359 0A6A  
                           l3961 1487                             l3953 0FFA                             l3945 0FEB  
                           l3937 0FD8                             l3929 0FAD                             l3881 0EE9  
                           l3873 0EC2                             l3865 0EB1                             l3857 0E89  
                           l3849 0E6D                             l3793 0DE8                             l3785 0DD9  
                           l3777 0DCB                             l3769 0DB8                             l5297 0233  
                           l5289 0229                             l4593 0D35                             l4585 0D16  
                           l4577 0CF7                             l4497 0BFD                             l5721 0BE9  
                           l4681 0979                             l4673 0964                             l4729 17DA  
                           l5393 0B31                             l5385 0B15                             l5377 0AF4  
                           l5369 0AA1                             l3971 1394                             l3963 148B  
                           l3955 0FFE                             l3947 0FEF                             l3939 0FDD  
                           l3883 0F27                             l3891 0F41                             l3875 0EC3  
                           l3867 0EB5                             l3795 0DF0                             l3787 0DDD  
                           l3779 0DCE                             l5299 0235                             l4587 0D19  
                           l4579 0CFA                             l5731 0C96                             l5723 0C14  
                           l4499 0C00                             l4691 0996                             l4683 097E  
                           l4675 096A                             l5395 0B33                             l5387 0B1C  
                           l5379 0AFD                             l3973 1397                             l3981 139F  
                           l3965 149A                             l3957 147E                             l3949 0FF1  
                           l3893 0F57                             l3885 0F2B                             l3877 0ECC  
                           l3869 0EBC                             l3797 0DF1                             l3789 0DDE  
                           l5741 0D46                             l4597 0D39                             l5733 0CB5  
                           l5725 0C39                             l4693 099E                             l4685 0982  
                           l4677 096F                             l5397 0B38                             l5389 0B21  
                           l3975 1398                             l3991 13A6                             l3983 13A2  
                           l3967 149F                             l3959 1480                             l3895 0F5C  
                           l3887 0F2D                             l3879 0ED1                             l3799 0DF3  
                           l5743 0D60                             l5735 0CE0                             l5727 0C59  
                           l4695 09A4                             l4687 0988                             l4679 0973  
                           l5719 0BBC                             l5399 0B45                             l3977 1399  
                           l3993 13A7                             l3985 13A3                             l3889 0F32  
                           l5745 0D79                             l5737 0D05                             l5729 0C79  
                           l4697 09E4                             l4689 0989                             l3979 138E  
                           l3995 13A8                             l3987 13A4                             l3899 0F65  
                           l5739 0D24                             l4699 09EA                             ?_isr 0070  
                           l3997 13A9                             l3989 13A5                             l3999 13AA  
                           STR_1 1060                             STR_2 1117                             STR_3 1041  
                           STR_4 107D                             STR_5 10A2                             STR_6 10E5  
                           STR_7 115C                             STR_8 1162                             STR_9 10F0  
                           u4000 0FD8                             u4001 0FD7                             u4010 0FDD  
                           u4011 0FDC                             u4020 0FEA                             u4100 145C  
                           u4021 0FE9                             u4101 145B                             u4030 0FEF  
                           u4031 0FEE                             u4040 0FFE                             u5000 0957  
                           u4041 0FFD                             u5001 0956                             u5010 1520  
                           u4050 148B                             u4130 1476                             u5011 151F  
                           u4051 148A                             u4131 1475                             u4115 1463  
                           u5100 1563                             u5020 1525                             u5101 1562  
                           u5021 1524                             u4125 146A                             u5110 1715  
                           u5030 1531                             u4310 160C                             u4070 149F  
                           u5111 1714                             u5031 1530                             u4311 160B  
                           u4071 149E                             u5120 1753                             u5040 1536  
                           u4320 1611                             u4240 15C7                             u3600 0DB3  
                           u4400 0780                             u4080 168A                             u5200 177B  
                           u5121 1752                             u5041 1535                             u4321 1610  
                           u4305 1600                             u4241 15C6                             u4065 1492  
                           u3601 0DB2                             u4401 077F                             u4081 1689  
                           u5201 177A                             u5050 153E                             u4250 15D2  
                           u4330 0819                             u3610 0DB8                             u4410 0797  
                           u4090 16BF                             u5130 096A                             u5210 178A  
                           u5051 153D                             u4251 15D1                             u4331 0818  
                           u3611 0DB7                             u4091 16BE                             u5131 0969  
                           u5211 1789                             u5060 1547                             u4260 15DD  
                           u4340 0835                             u4500 043D                             u3700 0E4B  
                           u3620 0DD4                             u4420 07AB                             u5140 0979  
                           u5061 1546                             u4261 15DC                             u4341 0834  
                           u4501 043C                             u3621 0DD3                             u4421 07AA  
                           u5141 0978                             u5070 154D                             u4350 0841  
                           u4510 0443                             u3710 0E5B                             u3630 0DDD  
                           u4430 07B2                             u5150 0988                             u5071 154C  
                           u4351 0840                             u4511 0442                             u3711 0E5A  
                           u3631 0DDC                             u4431 07B1                             u4415 0792  
                           u5151 0987                             u3560 13F8                             u5080 1557  
                           u4280 15EF                             u4520 0448                             u3800 0EC2  
                           u3720 0E6C                             u3640 0DE3                             u5160 09A4  
                           u3561 13F4                             u5081 1556                             u4281 15EE  
                           u4361 0850                             u4601 0521                             u4521 0447  
                           u3801 0EC1                             u3721 0E6B                             u3641 0DE2  
                           u5161 09A3                             u5090 155D                             u4290 15F9  
                           u4370 0869                             u4362 0851                             u4602 0528  
                           u4530 0467                             u3650 0DE8                             u4450 07C4  
                           u5170 09EA                             u5091 155C                             u4291 15F8  
                           u4275 15E1                             u4371 0868                             u4363 0856  
                           u4611 053D                             u4603 052F                             u4531 0466  
                           u3651 0DE7                             u4451 07C3                             u5171 09E9  
                           _PEIE 005E                             u3580 14D6                             u5500 1661  
                           u4364 0857                             u4612 0544                             u4540 046D  
                           u3900 0F77                             u3820 0EE9                             u3740 0E80  
                           u3660 0E01                             u4460 07CB                             u5180 0A2E  
                           u3581 14D5                             u5501 1660                             u4381 0878  
                           u4365 085C                             u4701 065A                             u4613 054B  
                           u4541 046C                             u3901 0F76                             u3821 0EE8  
                           u3741 0E7F                             u3661 0E00                             u4461 07CA  
                           u4445 07B4                             u5181 0A2D                             u3574 13FB  
                           u4390 08A3                             u4382 0879                             u4366 085D  
                           u4710 0676                             u4702 0661                             u4550 0472  
                           u3910 0F81                             u3750 0E84                             u3670 0E05  
                           u3590 0DAD                             u5190 176C                             u4295 15F5  
                           u4391 08A2                             u4383 087E                             u4703 0668  
                           u4631 0571                             u4551 0471                             u3911 0F80  
                           u3831 0F00                             u3823 0EE5                             u3815 0EC5  
                           u3751 0E83                             u3735 0E6F                             u3671 0E04  
                           u3591 0DAC                             u5191 176B                             u5520 1675  
                           u5440 1622                             u4384 087F                             u4800 06E8  
                           u4632 0578                             u4560 0489                             u3920 0F87  
                           u3840 0F14                             u3832 0F01                             u3760 0E89  
                           u3680 0E3F                             u4480 07DC                             u5600 033B  
                           u5521 1674                             u5505 165D                             u5441 1621  
                           u4385 0884                             u4801 06E7                             u4721 0682  
                           u4641 059C                             u4633 057F                             u4625 054D  
                           u4561 0488                             u3921 0F86                             u3841 0F15  
                           u3833 0F06                             u3761 0E88                             u3681 0E3E  
                           u4481 07DB                             u5601 033A                             u5530 167A  
                           u5450 162D                             u4386 0885                             u4810 06EE  
                           u4722 0689                             u4642 05A3                             u4570 048E  
                           u3930 0F8C                             u3850 0F32                             u3842 0F1A  
                           u3834 0F07                             u3690 0E4A                             u4490 07E1  
                           u5610 035D                             u5531 1679                             u5515 1669  
                           u5451 162C                             u4395 089F                             u4811 06ED  
                           u4723 0690                             u4715 0671                             u4643 05AA  
                           u4571 048D                             u3931 0F8B                             u3851 0F31  
                           u3843 0F1B                             u3835 0F0C                             u3771 0E9F  
                           u3691 0E48                             u4491 07E0                             u4475 07CE  
                           u5611 035C                             u5460 163E                             u4820 0700  
                           u3940 0F92                             u3860 0F57                             u3836 0F0D  
                           u3780 0EB1                             u3772 0EA6                             u5620 03EF  
                           u5540 0059                             u5700 0B29                             u5461 163D  
                           u4821 06FF                             u4661 05D0                             u4581 04DB  
                           u3941 0F91                             u3861 0F56                             u3781 0EB0  
                           u3773 0EAD                             u3685 0E3B                             u5621 03EE  
                           u5541 0058                             u5701 0B28                             u4830 070F  
                           u4750 06B4                             u4662 05D7                             u4582 04E2  
                           u3950 0F99                             u3870 0F5C                             u3790 0EB5  
                           u4910 08F2                             u5630 03F4                             u5550 0231  
                           u5710 0B31                             u4751 06B3                             u4735 0692  
                           u4671 05FB                             u4663 05DE                             u4655 05AC  
                           u4591 04F7                             u4583 04E9                             u3951 0F98  
                           u3871 0F5B                             u3791 0EB4                             u4911 08F1  
                           u5631 03F3                             u5551 0230                             u5711 0B30  
                           u5480 1650                             u4840 072C                             u4672 0602  
                           u4592 04FE                             u3960 0F9F                             u5560 0255  
                           u5720 0B6D                             u5640 0ACD                             u5481 164F  
                           u4841 072B                             u4745 06A9                             u4681 0626  
                           u4673 0609                             u4593 0505                             u3961 0F9E  
                           u4905 08E4                             u5561 0254                             u5721 0B6C  
                           u4850 0746                             u4770 06C8                             u4690 064E  
                           u4682 062D                             u3970 0FB1                             u3890 0F72  
                           u4930 0914                             u5570 026F                             u5730 0B75  
                           u5650 0ADF                             u5475 1642                             u4851 0745  
                           u4835 070A                             u4771 06C7                             u4683 0634  
                           u3971 0FB0                             u3891 0F71                             u4931 0913  
                           u5571 026E                             u5731 0B74                             u5651 0ADE  
                           u4860 0762                             u4780 06CD                             u3980 0FC0  
                           u5580 02AC                             u5740 0B95                             u5660 0AEA  
                           u4861 0761                             u4845 0728                             u4781 06CC  
                           u4765 06B7                             u3885 0F67                             u4925 0906  
                           u5581 02AB                             u5741 0B94                             u5661 0AE9  
                           u5645 0AB6                             u4790 06E1                             u3990 0FCF  
                           u4950 0924                             u4870 08AF                             u5590 02CA  
                           u5750 0BA2                             u5670 0B0F                             u5646 0AB9  
                           u5807 1741                             u5495 1651                             u4855 0742  
                           u4791 06E0                             u4695 0649                             u3991 0FCE  
                           u4951 0923                             u4871 08AE                             u5591 02C9  
                           u5575 026B                             u5751 0BA1                             u5671 0B0E  
                           u5647 0AC0                             u4960 092A                             u4880 08B3  
                           u5680 0B15                             u5648 0AC3                             u5817 175B  
                           u3985 0FBB                             u4961 0929                             u4945 0919  
                           u4881 08B2                             u5585 02A8                             u5681 0B14  
                           u5649 0ACA                             u4970 092E                             u4890 08D3  
                           u5690 0B1C                             u5827 156F                             u4971 092D  
                           u4891 08D2                             u5691 0B1B                             u4980 0943  
                           u5837 157E                             u4990 0953                             u5847 158C  
                           u4991 0952                             u5767 010D                             u5857 15A2  
                           u4985 093E                             u5777 041D                             u5867 15B0  
                           u5787 13BB                             u5877 15BE                             u5797 1703  
                           u5887 1400                             u5897 140A                             _TMR2 0011  
  read_digital_keypad@long_press 006A                             _main 0A6A                             _time 0063  
                           btemp 007E                             start 000C                   clcd_write@byte 0075  
                 clcd_write@mode 0072                     main@delay_93 00CE          __end_of_power_on_screen 1763  
      ??_washing_program_display 0025                            ??_isr 0070                    ___fltol@sign1 0076  
                __end_of___fladd 1000                            ?_main 0070                  __end_of___awdiv 1684  
                          STR_10 113D                            STR_11 10C4                            STR_20 1177  
                          STR_12 1096                            STR_21 1136                            STR_13 1120  
                          STR_30 10AE                            STR_22 116D                            STR_14 10DA  
                          STR_31 1128                            STR_23 117B                            STR_15 1104  
                          STR_24 108A                            STR_32 1021                            STR_40 1000  
                          STR_16 110E                            STR_25 1041                            STR_33 1168  
                          STR_41 1051                            STR_17 10FA                            STR_34 1156  
                          STR_26 1031                            STR_42 1011                            STR_18 10B9  
                          STR_35 1144                            STR_43 112F                            STR_27 106F  
                          STR_19 1172                            STR_36 1156                            STR_28 1150  
                          STR_44 10CF                  __end_of___awmod 161B                            STR_45 10AE  
                          STR_37 1144                            STR_29 114A                            STR_46 1128  
                          STR_38 1144                            STR_47 1021                            STR_39 1168  
                __end_of___flmul 0775                  __end_of___flsub 1456                  __end_of___fltol 07ED  
                ___awdiv@divisor 0072                            i1l144 150E                            i1l149 150E  
                   ?_init_config 0070                  ___awdiv@counter 0020                            _PORTB 0006  
                          _PORTD 0008                            _TRISB 0086                            _TRISD 0088  
                   ?_init_timer2 0070             __end_of_clear_screen 13C1                            _count 00C8  
                          _level 0079                            pclath 000A                            status 0003  
                          wtemp0 007E                  __initialization 000F                     __end_of_main 0BCE  
                         ??_main 005F                   run_program@key 005E  __end_of_washing_program_display 0A6A  
               ___awdiv@dividend 0074                           i1l3421 14E2                           i1l3431 1504  
                         i1l3423 14F3                           i1l3415 14D7                           i1l3433 1509  
                         i1l3425 14F5                           i1l3417 14DD                           i1l3435 150B  
                         i1l3427 14FC                           i1l3419 14E1                           i1l3429 14FF  
                         u350_20 14DD                           u350_21 14DC                           u351_20 14E1  
                         u351_21 14E0                           u352_20 14F3                           u352_21 14F2  
                         u353_20 14FC                           u353_21 14FB                           u354_20 1504  
                         u354_21 1503                           u355_20 1509                           u355_21 1508  
                         _TMR2IE 0461                           _TMR2IF 0061                           _TMR2ON 0092  
                         _TRISC1 0439                           _TRISC2 043A                           _TRISE1 0449  
                         _TRISE2 044A                 __end_of___xxtofl 0961      __end_of_init_digital_keypad 1394  
                         ___flge 0803          _init_display_controller 156B                        ??___fladd 0028  
                         ___wmul 1456                        ??___awdiv 0076                 ?_power_on_screen 0070  
                      ??___awmod 0076                        ??___flmul 0032                        ??___flsub 0076  
                      ??___fltol 0048                 ___awdiv@quotient 0022                  ___awmod@divisor 0072  
                ___awmod@counter 0076                     __pdataCOMMON 007B                 __end_of_set_time 0DA0  
                         saved_w 007E                       ___flge@ff1 004C                       ___flge@ff2 0050  
                   ___xxtofl@arg 0026                     ___xxtofl@exp 0025                     ___xxtofl@val 0072  
        __end_of__initialization 0045                       ___fltol@f1 0044                   __pcstackCOMMON 0070  
                   __pidataBANK0 0800                     __pidataBANK1 1410                     ?_run_program 0070  
                     __pbssBANK0 0063                       __pbssBANK1 00C2        ??_init_display_controller 0076  
                     _clcd_print 14A4                       _clcd_putch 13C1                       _clcd_write 13F0  
              __end_of__Umul8_16 14A4                       __pmaintext 0A6A                     _clear_screen 13B0  
                        ?___flge 004C                          ?___wmul 0072                       __pintentry 0004  
                        _T2CKPS0 0090                          _T2CKPS1 0091      __end_of_read_digital_keypad 156B  
                      ?___xxtofl 0072                          _TOUTPS0 0093                          _TOUTPS1 0094  
                        _TOUTPS2 0095                          _TOUTPS3 0096                       __stringtab 117F  
                      ?_set_time 0070                          ___fladd 0DA0                          ___awdiv 161B  
                        ___awmod 15C2                          ___flmul 0430                          ___flsub 1432  
                        ___fltol 0775                          __ptext1 1763                          __ptext2 0961  
                        __ptext3 0BCE                          __ptext4 0049                          __ptext5 1684  
                        __ptext6 13B0                          __ptext7 08A7                          __ptext8 1456  
                        __ptext9 0775  __end_of_init_display_controller 15C2                __end_of_init_clcd 139F  
         read_digital_keypad@key 0072                       ??___xxtofl 0020                 ___awmod@dividend 0074  
                        main@key 00D0             end_of_initialization 0045                      ?_clcd_print 0020  
                    ?_clcd_putch 0078                      ?_clcd_write 0072         ?_washing_program_display 0070  
                     _reset_flag 006B                       ??_set_time 0072                     __pstringtext 1000  
                     _rinse_time 00C4                      ___fladd@grs 0075       washing_program_display@key 0027  
                     _program_no 007A                    ___xxtofl@sign 0024                    clcd_print@str 0020  
                    ___flmul@grs 0039                       _total_time 0065                   __end_of___flge 08A7  
                 __end_of___wmul 147B                    __pidataCOMMON 0003              start_initialization 000F  
                    __end_of_isr 1515            water_level_screen@key 0027                         ??___flge 0054  
                       ??___wmul 0076                       init_fetch0 07ED                        __Umul8_16 147B  
     __end_of_water_level_screen 1800                      __pdataBANK0 006A                      __pdataBANK1 00A0  
     read_digital_keypad@pre_key 0068                    ??_init_config 0078                        ___fladd@a 0024  
                      ___fladd@b 0020                    ??_init_timer2 0072                        ___flmul@a 002E  
                      ___flmul@b 002A                      __pbssCOMMON 0079                        ___flsub@a 0044  
                      ___flsub@b 0048                        ___latbits 0002                    __pcstackBANK0 0020  
                  __pcstackBANK1 00CA             power_on_screen@i_201 0029                         ?___fladd 0020  
                       ?___awdiv 0072                         ?___awmod 0072                         ?___flmul 002A  
                       ?___flsub 0044                         ?___fltol 0044                       ?__Umul8_16 0072  
                      __pstrings 117F                        _init_clcd 1394              __end_of_init_config 13F0  
              ??_power_on_screen 0025              __end_of_init_timer2 13B0                  _washing_program 00A0  
       ?_init_display_controller 0070                interrupt_function 0004                   ___wmul@product 0076  
                   ??_clcd_print 0078                     ??_clcd_putch 0079                     ??_clcd_write 0073  
                      _wash_time 00C6                        _spin_time 00C2                      __stringbase 1191  
              ___wmul@multiplier 0072                        main@delay 00CA               __end_of_clcd_print 14D7  
             __end_of_clcd_putch 13D6               __end_of_clcd_write 1410                       ?_init_clcd 0070  
            _init_digital_keypad 138E                      ??__Umul8_16 0074             ?_init_digital_keypad 0070  
             __end_of__stringtab 1191                      _init_config 13D6                         ___xxtofl 08A7  
               _operational_mode 006C                      _init_timer2 139F                    ??_run_program 0058  
                       __ptext10 1432                         __ptext11 0DA0                         __ptext20 14A4  
                       __ptext12 0430                         __ptext21 13D6                         __ptext13 147B  
                       __ptext22 139F                         __ptext14 0803                         __ptext23 138E  
                       __ptext15 15C2                         __ptext24 1394                         __ptext16 161B  
                       __ptext25 156B                         __ptext17 1515                         __ptext26 13F0  
                       __ptext18 16EF                         __ptext27 14D7                         __ptext19 13C1  
        read_digital_keypad@mode 0070          read_digital_keypad@once 007B                    ?_clear_screen 0070  
                       _set_time 0BCE            ??_init_digital_keypad 0072                _door_status_check 1684  
             ?_door_status_check 0070              ??_door_status_check 0078                         init_ram0 07F1  
             _water_level_screen 1763                      ??_init_clcd 0078                         intlevel1 0000  
            ?_water_level_screen 0070              __end_of_run_program 0430                        stringcode 1189  
                 ??_clear_screen 0076        __end_of_door_status_check 16EF              _read_digital_keypad 1515  
           ??_water_level_screen 0025          _washing_program_display 0961           __Umul8_16@multiplicand 0072  
                _power_on_screen 16EF                         stringtab 117F                    ___fladd@signs 0072  
           ?_read_digital_keypad 0070                 power_on_screen@i 0028                      _water_level 00B8  
                   ___fladd@aexp 0073                     ___fladd@bexp 0074             __Umul8_16@multiplier 0024  
              __Umul8_16@product 0020  
